
bios.elf:     file format elf32-lm32


Disassembly of section .text:

00860000 <_ftext>:
  860000:	98 00 00 00 	xor r0,r0,r0
  860004:	d0 00 00 00 	wcsr IE,r0
  860008:	78 01 00 86 	mvhi r1,0x86
  86000c:	38 21 00 00 	ori r1,r1,0x0
  860010:	d0 e1 00 00 	wcsr EBA,r1
  860014:	f8 00 10 05 	calli 864028 <_sdram_init>
  860018:	98 42 10 00 	xor r2,r2,r2
  86001c:	e0 00 00 33 	bi 8600e8 <_crt0>

00860020 <_breakpoint_handler>:
  860020:	34 00 00 00 	nop
  860024:	34 00 00 00 	nop
  860028:	34 00 00 00 	nop
  86002c:	34 00 00 00 	nop
  860030:	34 00 00 00 	nop
  860034:	34 00 00 00 	nop
  860038:	34 00 00 00 	nop
  86003c:	34 00 00 00 	nop

00860040 <_instruction_bus_error_handler>:
  860040:	34 00 00 00 	nop
  860044:	34 00 00 00 	nop
  860048:	34 00 00 00 	nop
  86004c:	34 00 00 00 	nop
  860050:	34 00 00 00 	nop
  860054:	34 00 00 00 	nop
  860058:	34 00 00 00 	nop
  86005c:	34 00 00 00 	nop

00860060 <_watchpoint_hander>:
  860060:	34 00 00 00 	nop
  860064:	34 00 00 00 	nop
  860068:	34 00 00 00 	nop
  86006c:	34 00 00 00 	nop
  860070:	34 00 00 00 	nop
  860074:	34 00 00 00 	nop
  860078:	34 00 00 00 	nop
  86007c:	34 00 00 00 	nop

00860080 <_data_bus_error_handler>:
  860080:	34 00 00 00 	nop
  860084:	34 00 00 00 	nop
  860088:	34 00 00 00 	nop
  86008c:	34 00 00 00 	nop
  860090:	34 00 00 00 	nop
  860094:	34 00 00 00 	nop
  860098:	34 00 00 00 	nop
  86009c:	34 00 00 00 	nop

008600a0 <_divide_by_zero_handler>:
  8600a0:	34 00 00 00 	nop
  8600a4:	34 00 00 00 	nop
  8600a8:	34 00 00 00 	nop
  8600ac:	34 00 00 00 	nop
  8600b0:	34 00 00 00 	nop
  8600b4:	34 00 00 00 	nop
  8600b8:	34 00 00 00 	nop
  8600bc:	34 00 00 00 	nop

008600c0 <_interrupt_handler>:
  8600c0:	5b 9d 00 00 	sw (sp+0),ra
  8600c4:	f8 00 00 2b 	calli 860170 <.save_all>
  8600c8:	f8 00 00 54 	calli 860218 <isr>
  8600cc:	e0 00 00 39 	bi 8601b0 <.restore_all_and_eret>
  8600d0:	34 00 00 00 	nop
  8600d4:	34 00 00 00 	nop
  8600d8:	34 00 00 00 	nop
  8600dc:	34 00 00 00 	nop

008600e0 <macaddress>:
  8600e0:	10 e2 d5 00 	lb r2,(r7+-11008)
  8600e4:	00 00 00 00 	srui r0,r0,0

008600e8 <_crt0>:
  8600e8:	78 04 bb bb 	mvhi r4,0xbbbb
  8600ec:	38 84 bb bb 	ori r4,r4,0xbbbb
  8600f0:	78 13 e0 00 	mvhi r19,0xe000
  8600f4:	3a 73 40 04 	ori r19,r19,0x4004
  8600f8:	5a 64 00 00 	sw (r19+0),r4
  8600fc:	78 1c 40 9f 	mvhi sp,0x409f
  860100:	3b 9c ff fc 	ori sp,sp,0xfffc
  860104:	78 1a 00 87 	mvhi gp,0x87
  860108:	3b 5a 19 a0 	ori gp,gp,0x19a0
  86010c:	78 01 40 00 	mvhi r1,0x4000
  860110:	38 21 00 00 	ori r1,r1,0x0
  860114:	78 03 40 66 	mvhi r3,0x4066
  860118:	38 63 16 94 	ori r3,r3,0x1694

0086011c <.clearBSS>:
  86011c:	44 23 00 04 	be r1,r3,86012c <.callMain>
  860120:	58 20 00 00 	sw (r1+0),r0
  860124:	34 21 00 04 	addi r1,r1,4
  860128:	e3 ff ff fd 	bi 86011c <.clearBSS>

0086012c <.callMain>:
  86012c:	78 04 cc cc 	mvhi r4,0xcccc
  860130:	38 84 cc cc 	ori r4,r4,0xcccc
  860134:	78 13 e0 00 	mvhi r19,0xe000
  860138:	3a 73 50 04 	ori r19,r19,0x5004
  86013c:	5a 64 00 00 	sw (r19+0),r4
  860140:	b8 40 08 00 	mv r1,r2
  860144:	34 02 00 00 	mvi r2,0
  860148:	34 03 00 00 	mvi r3,0
  86014c:	e0 00 00 f4 	bi 86051c <main>
  860150:	f8 00 00 27 	calli 8601ec <print_lcd>
  860154:	e0 00 00 01 	bi 860158 <loop>

00860158 <loop>:
  860158:	34 00 00 00 	nop
  86015c:	34 00 00 00 	nop
  860160:	34 00 00 00 	nop
  860164:	34 00 00 00 	nop
  860168:	34 00 00 00 	nop
  86016c:	e3 ff ff fb 	bi 860158 <loop>

00860170 <.save_all>:
  860170:	37 9c ff c8 	addi sp,sp,-56
  860174:	5b 81 00 04 	sw (sp+4),r1
  860178:	5b 82 00 08 	sw (sp+8),r2
  86017c:	5b 83 00 0c 	sw (sp+12),r3
  860180:	5b 84 00 10 	sw (sp+16),r4
  860184:	5b 85 00 14 	sw (sp+20),r5
  860188:	5b 86 00 18 	sw (sp+24),r6
  86018c:	5b 87 00 1c 	sw (sp+28),r7
  860190:	5b 88 00 20 	sw (sp+32),r8
  860194:	5b 89 00 24 	sw (sp+36),r9
  860198:	5b 8a 00 28 	sw (sp+40),r10
  86019c:	5b 9e 00 30 	sw (sp+48),ea
  8601a0:	5b 9f 00 34 	sw (sp+52),ba
  8601a4:	2b 81 00 38 	lw r1,(sp+56)
  8601a8:	5b 81 00 2c 	sw (sp+44),r1
  8601ac:	c3 a0 00 00 	ret

008601b0 <.restore_all_and_eret>:
  8601b0:	2b 81 00 04 	lw r1,(sp+4)
  8601b4:	2b 82 00 08 	lw r2,(sp+8)
  8601b8:	2b 83 00 0c 	lw r3,(sp+12)
  8601bc:	2b 84 00 10 	lw r4,(sp+16)
  8601c0:	2b 85 00 14 	lw r5,(sp+20)
  8601c4:	2b 86 00 18 	lw r6,(sp+24)
  8601c8:	2b 87 00 1c 	lw r7,(sp+28)
  8601cc:	2b 88 00 20 	lw r8,(sp+32)
  8601d0:	2b 89 00 24 	lw r9,(sp+36)
  8601d4:	2b 8a 00 28 	lw r10,(sp+40)
  8601d8:	2b 9d 00 2c 	lw ra,(sp+44)
  8601dc:	2b 9e 00 30 	lw ea,(sp+48)
  8601e0:	2b 9f 00 34 	lw ba,(sp+52)
  8601e4:	37 9c 00 38 	addi sp,sp,56
  8601e8:	c3 c0 00 00 	eret

008601ec <print_lcd>:
  8601ec:	78 13 40 00 	mvhi r19,0x4000
  8601f0:	3a 73 00 00 	ori r19,r19,0x0
  8601f4:	2a 64 00 00 	lw r4,(r19+0)
  8601f8:	2a 65 00 04 	lw r5,(r19+4)
  8601fc:	78 13 e0 00 	mvhi r19,0xe000
  860200:	3a 73 40 04 	ori r19,r19,0x4004
  860204:	5a 64 00 00 	sw (r19+0),r4
  860208:	78 13 e0 00 	mvhi r19,0xe000
  86020c:	3a 73 10 04 	ori r19,r19,0x1004
  860210:	5a 65 00 00 	sw (r19+0),r5
  860214:	c3 a0 00 00 	ret

00860218 <isr>:
  860218:	37 9c ff f8 	addi sp,sp,-8
  86021c:	5b 8b 00 08 	sw (sp+8),r11
  860220:	5b 9d 00 04 	sw (sp+4),ra
  860224:	90 40 08 00 	rcsr r1,IP
  860228:	90 20 58 00 	rcsr r11,IM
  86022c:	a1 61 58 00 	and r11,r11,r1
  860230:	21 61 00 01 	andi r1,r11,0x1
  860234:	5c 20 00 11 	bne r1,r0,860278 <isr+0x60>
  860238:	21 61 00 02 	andi r1,r11,0x2
  86023c:	5c 20 00 0d 	bne r1,r0,860270 <isr+0x58>
  860240:	21 61 04 00 	andi r1,r11,0x400
  860244:	5c 20 00 09 	bne r1,r0,860268 <isr+0x50>
  860248:	78 01 00 02 	mvhi r1,0x2
  86024c:	a1 61 58 00 	and r11,r11,r1
  860250:	45 60 00 02 	be r11,r0,860258 <isr+0x40>
  860254:	f8 00 27 0c 	calli 869e84 <usb_isr>
  860258:	2b 9d 00 04 	lw ra,(sp+4)
  86025c:	2b 8b 00 08 	lw r11,(sp+8)
  860260:	37 9c 00 08 	addi sp,sp,8
  860264:	c3 a0 00 00 	ret
  860268:	f8 00 25 69 	calli 86980c <tmu_isr>
  86026c:	e3 ff ff f7 	bi 860248 <isr+0x30>
  860270:	f8 00 19 22 	calli 8666f8 <uart_isr_tx>
  860274:	e3 ff ff f3 	bi 860240 <isr+0x28>
  860278:	f8 00 18 f7 	calli 866654 <uart_isr_rx>
  86027c:	e3 ff ff ef 	bi 860238 <isr+0x20>

00860280 <lscb>:
  860280:	37 9c ff fc 	addi sp,sp,-4
  860284:	5b 9d 00 04 	sw (sp+4),ra
  860288:	b8 20 20 00 	mv r4,r1
  86028c:	78 01 00 86 	mvhi r1,0x86
  860290:	b8 40 18 00 	mv r3,r2
  860294:	38 21 da 7c 	ori r1,r1,0xda7c
  860298:	b8 80 10 00 	mv r2,r4
  86029c:	f8 00 14 a8 	calli 86553c <printf>
  8602a0:	34 01 00 01 	mvi r1,1
  8602a4:	2b 9d 00 04 	lw ra,(sp+4)
  8602a8:	37 9c 00 04 	addi sp,sp,4
  8602ac:	c3 a0 00 00 	ret

008602b0 <parse_csr>:
  8602b0:	37 9c ff f8 	addi sp,sp,-8
  8602b4:	5b 8b 00 08 	sw (sp+8),r11
  8602b8:	5b 9d 00 04 	sw (sp+4),ra
  8602bc:	78 02 00 86 	mvhi r2,0x86
  8602c0:	38 42 da 88 	ori r2,r2,0xda88
  8602c4:	b8 20 58 00 	mv r11,r1
  8602c8:	f8 00 11 07 	calli 8646e4 <strcmp>
  8602cc:	34 02 00 01 	mvi r2,1
  8602d0:	5c 20 00 06 	bne r1,r0,8602e8 <parse_csr+0x38>
  8602d4:	b8 40 08 00 	mv r1,r2
  8602d8:	2b 9d 00 04 	lw ra,(sp+4)
  8602dc:	2b 8b 00 08 	lw r11,(sp+8)
  8602e0:	37 9c 00 08 	addi sp,sp,8
  8602e4:	c3 a0 00 00 	ret
  8602e8:	78 02 00 86 	mvhi r2,0x86
  8602ec:	38 42 da 8c 	ori r2,r2,0xda8c
  8602f0:	b9 60 08 00 	mv r1,r11
  8602f4:	f8 00 10 fc 	calli 8646e4 <strcmp>
  8602f8:	34 02 00 02 	mvi r2,2
  8602fc:	44 20 ff f6 	be r1,r0,8602d4 <parse_csr+0x24>
  860300:	78 02 00 86 	mvhi r2,0x86
  860304:	38 42 da 90 	ori r2,r2,0xda90
  860308:	b9 60 08 00 	mv r1,r11
  86030c:	f8 00 10 f6 	calli 8646e4 <strcmp>
  860310:	34 02 00 03 	mvi r2,3
  860314:	44 20 ff f0 	be r1,r0,8602d4 <parse_csr+0x24>
  860318:	78 02 00 86 	mvhi r2,0x86
  86031c:	38 42 da 94 	ori r2,r2,0xda94
  860320:	b9 60 08 00 	mv r1,r11
  860324:	f8 00 10 f0 	calli 8646e4 <strcmp>
  860328:	34 02 00 04 	mvi r2,4
  86032c:	44 20 ff ea 	be r1,r0,8602d4 <parse_csr+0x24>
  860330:	78 02 00 86 	mvhi r2,0x86
  860334:	38 42 da 98 	ori r2,r2,0xda98
  860338:	b9 60 08 00 	mv r1,r11
  86033c:	f8 00 10 ea 	calli 8646e4 <strcmp>
  860340:	34 02 00 05 	mvi r2,5
  860344:	44 20 ff e4 	be r1,r0,8602d4 <parse_csr+0x24>
  860348:	78 02 00 86 	mvhi r2,0x86
  86034c:	38 42 da 9c 	ori r2,r2,0xda9c
  860350:	b9 60 08 00 	mv r1,r11
  860354:	f8 00 10 e4 	calli 8646e4 <strcmp>
  860358:	34 02 00 06 	mvi r2,6
  86035c:	44 20 ff de 	be r1,r0,8602d4 <parse_csr+0x24>
  860360:	78 02 00 86 	mvhi r2,0x86
  860364:	38 42 da a0 	ori r2,r2,0xdaa0
  860368:	b9 60 08 00 	mv r1,r11
  86036c:	f8 00 10 de 	calli 8646e4 <strcmp>
  860370:	34 02 00 07 	mvi r2,7
  860374:	44 20 ff d8 	be r1,r0,8602d4 <parse_csr+0x24>
  860378:	78 02 00 86 	mvhi r2,0x86
  86037c:	38 42 da a4 	ori r2,r2,0xdaa4
  860380:	b9 60 08 00 	mv r1,r11
  860384:	f8 00 10 d8 	calli 8646e4 <strcmp>
  860388:	34 02 00 08 	mvi r2,8
  86038c:	44 20 ff d2 	be r1,r0,8602d4 <parse_csr+0x24>
  860390:	78 02 00 86 	mvhi r2,0x86
  860394:	38 42 da a8 	ori r2,r2,0xdaa8
  860398:	b9 60 08 00 	mv r1,r11
  86039c:	f8 00 10 d2 	calli 8646e4 <strcmp>
  8603a0:	34 02 00 09 	mvi r2,9
  8603a4:	44 20 ff cc 	be r1,r0,8602d4 <parse_csr+0x24>
  8603a8:	78 02 00 86 	mvhi r2,0x86
  8603ac:	38 42 da ac 	ori r2,r2,0xdaac
  8603b0:	b9 60 08 00 	mv r1,r11
  8603b4:	f8 00 10 cc 	calli 8646e4 <strcmp>
  8603b8:	34 02 00 0a 	mvi r2,10
  8603bc:	44 20 ff c6 	be r1,r0,8602d4 <parse_csr+0x24>
  8603c0:	78 02 00 86 	mvhi r2,0x86
  8603c4:	38 42 da b4 	ori r2,r2,0xdab4
  8603c8:	b9 60 08 00 	mv r1,r11
  8603cc:	f8 00 10 c6 	calli 8646e4 <strcmp>
  8603d0:	34 02 00 0b 	mvi r2,11
  8603d4:	44 20 ff c0 	be r1,r0,8602d4 <parse_csr+0x24>
  8603d8:	78 02 00 86 	mvhi r2,0x86
  8603dc:	38 42 da b8 	ori r2,r2,0xdab8
  8603e0:	b9 60 08 00 	mv r1,r11
  8603e4:	f8 00 10 c0 	calli 8646e4 <strcmp>
  8603e8:	34 02 00 0c 	mvi r2,12
  8603ec:	44 20 ff ba 	be r1,r0,8602d4 <parse_csr+0x24>
  8603f0:	78 02 00 86 	mvhi r2,0x86
  8603f4:	38 42 da bc 	ori r2,r2,0xdabc
  8603f8:	b9 60 08 00 	mv r1,r11
  8603fc:	f8 00 10 ba 	calli 8646e4 <strcmp>
  860400:	34 02 00 0d 	mvi r2,13
  860404:	44 20 ff b4 	be r1,r0,8602d4 <parse_csr+0x24>
  860408:	78 02 00 86 	mvhi r2,0x86
  86040c:	38 42 da c0 	ori r2,r2,0xdac0
  860410:	b9 60 08 00 	mv r1,r11
  860414:	f8 00 10 b4 	calli 8646e4 <strcmp>
  860418:	34 02 00 0e 	mvi r2,14
  86041c:	44 20 ff ae 	be r1,r0,8602d4 <parse_csr+0x24>
  860420:	78 02 00 86 	mvhi r2,0x86
  860424:	38 42 da c4 	ori r2,r2,0xdac4
  860428:	b9 60 08 00 	mv r1,r11
  86042c:	f8 00 10 ae 	calli 8646e4 <strcmp>
  860430:	34 02 00 0f 	mvi r2,15
  860434:	44 20 ff a8 	be r1,r0,8602d4 <parse_csr+0x24>
  860438:	78 02 00 86 	mvhi r2,0x86
  86043c:	38 42 da c8 	ori r2,r2,0xdac8
  860440:	b9 60 08 00 	mv r1,r11
  860444:	f8 00 10 a8 	calli 8646e4 <strcmp>
  860448:	34 02 00 10 	mvi r2,16
  86044c:	44 20 ff a2 	be r1,r0,8602d4 <parse_csr+0x24>
  860450:	78 02 00 86 	mvhi r2,0x86
  860454:	38 42 da cc 	ori r2,r2,0xdacc
  860458:	b9 60 08 00 	mv r1,r11
  86045c:	f8 00 10 a2 	calli 8646e4 <strcmp>
  860460:	34 02 00 11 	mvi r2,17
  860464:	44 20 ff 9c 	be r1,r0,8602d4 <parse_csr+0x24>
  860468:	78 02 00 86 	mvhi r2,0x86
  86046c:	38 42 da d0 	ori r2,r2,0xdad0
  860470:	b9 60 08 00 	mv r1,r11
  860474:	f8 00 10 9c 	calli 8646e4 <strcmp>
  860478:	34 02 00 12 	mvi r2,18
  86047c:	44 20 ff 96 	be r1,r0,8602d4 <parse_csr+0x24>
  860480:	78 02 00 86 	mvhi r2,0x86
  860484:	38 42 da d4 	ori r2,r2,0xdad4
  860488:	b9 60 08 00 	mv r1,r11
  86048c:	f8 00 10 96 	calli 8646e4 <strcmp>
  860490:	34 02 00 13 	mvi r2,19
  860494:	44 20 ff 90 	be r1,r0,8602d4 <parse_csr+0x24>
  860498:	78 02 00 86 	mvhi r2,0x86
  86049c:	38 42 da d8 	ori r2,r2,0xdad8
  8604a0:	b9 60 08 00 	mv r1,r11
  8604a4:	f8 00 10 90 	calli 8646e4 <strcmp>
  8604a8:	64 21 00 00 	cmpei r1,r1,0
  8604ac:	c8 01 10 00 	sub r2,r0,r1
  8604b0:	20 42 00 14 	andi r2,r2,0x14
  8604b4:	e3 ff ff 88 	bi 8602d4 <parse_csr+0x24>

008604b8 <get_token>:
  8604b8:	37 9c ff f4 	addi sp,sp,-12
  8604bc:	5b 8b 00 0c 	sw (sp+12),r11
  8604c0:	5b 8c 00 08 	sw (sp+8),r12
  8604c4:	5b 9d 00 04 	sw (sp+4),ra
  8604c8:	b8 20 58 00 	mv r11,r1
  8604cc:	28 21 00 00 	lw r1,(r1+0)
  8604d0:	34 02 00 20 	mvi r2,32
  8604d4:	f8 00 10 3a 	calli 8645bc <strchr>
  8604d8:	44 20 00 0b 	be r1,r0,860504 <get_token+0x4c>
  8604dc:	30 20 00 00 	sb (r1+0),r0
  8604e0:	34 21 00 01 	addi r1,r1,1
  8604e4:	29 6c 00 00 	lw r12,(r11+0)
  8604e8:	59 61 00 00 	sw (r11+0),r1
  8604ec:	b9 80 08 00 	mv r1,r12
  8604f0:	2b 9d 00 04 	lw ra,(sp+4)
  8604f4:	2b 8b 00 0c 	lw r11,(sp+12)
  8604f8:	2b 8c 00 08 	lw r12,(sp+8)
  8604fc:	37 9c 00 0c 	addi sp,sp,12
  860500:	c3 a0 00 00 	ret
  860504:	29 6c 00 00 	lw r12,(r11+0)
  860508:	b9 80 08 00 	mv r1,r12
  86050c:	f8 00 10 9f 	calli 864788 <strlen>
  860510:	b5 81 08 00 	add r1,r12,r1
  860514:	59 61 00 00 	sw (r11+0),r1
  860518:	e3 ff ff f5 	bi 8604ec <get_token+0x34>

0086051c <main>:
  86051c:	37 9c ff 00 	addi sp,sp,-256
  860520:	5b 8b 00 44 	sw (sp+68),r11
  860524:	5b 8c 00 40 	sw (sp+64),r12
  860528:	5b 8d 00 3c 	sw (sp+60),r13
  86052c:	5b 8e 00 38 	sw (sp+56),r14
  860530:	5b 8f 00 34 	sw (sp+52),r15
  860534:	5b 90 00 30 	sw (sp+48),r16
  860538:	5b 91 00 2c 	sw (sp+44),r17
  86053c:	5b 92 00 28 	sw (sp+40),r18
  860540:	5b 93 00 24 	sw (sp+36),r19
  860544:	5b 94 00 20 	sw (sp+32),r20
  860548:	5b 95 00 1c 	sw (sp+28),r21
  86054c:	5b 96 00 18 	sw (sp+24),r22
  860550:	5b 97 00 14 	sw (sp+20),r23
  860554:	5b 98 00 10 	sw (sp+16),r24
  860558:	5b 99 00 0c 	sw (sp+12),r25
  86055c:	5b 9b 00 08 	sw (sp+8),fp
  860560:	5b 9d 00 04 	sw (sp+4),ra
  860564:	78 05 00 86 	mvhi r5,0x86
  860568:	38 a5 e0 d0 	ori r5,r5,0xe0d0
  86056c:	28 a3 00 00 	lw r3,(r5+0)
  860570:	78 01 00 86 	mvhi r1,0x86
  860574:	38 21 05 1c 	ori r1,r1,0x51c
  860578:	78 02 00 86 	mvhi r2,0x86
  86057c:	f0 41 10 00 	cmpgeu r2,r2,r1
  860580:	34 04 00 01 	mvi r4,1
  860584:	78 01 40 66 	mvhi r1,0x4066
  860588:	58 64 00 00 	sw (r3+0),r4
  86058c:	38 21 16 68 	ori r1,r1,0x1668
  860590:	58 22 00 00 	sw (r1+0),r2
  860594:	34 01 00 00 	mvi r1,0
  860598:	d0 21 00 00 	wcsr IM,r1
  86059c:	34 01 00 01 	mvi r1,1
  8605a0:	d0 01 00 00 	wcsr IE,r1
  8605a4:	f8 00 18 99 	calli 866808 <uart_init>
  8605a8:	78 01 40 66 	mvhi r1,0x4066
  8605ac:	38 21 16 68 	ori r1,r1,0x1668
  8605b0:	28 21 00 00 	lw r1,(r1+0)
  8605b4:	44 20 03 40 	be r1,r0,8612b4 <main+0xd98>
  8605b8:	f8 00 0d 50 	calli 863af8 <netboot>
  8605bc:	f8 00 0c 73 	calli 863788 <serialboot>
  8605c0:	34 01 00 00 	mvi r1,0
  8605c4:	f8 00 0d ca 	calli 863cec <fsboot>
  8605c8:	f8 00 0e 29 	calli 863e6c <flashboot>
  8605cc:	78 02 00 86 	mvhi r2,0x86
  8605d0:	78 05 00 86 	mvhi r5,0x86
  8605d4:	5b 82 00 48 	sw (sp+72),r2
  8605d8:	5b 85 00 4c 	sw (sp+76),r5
  8605dc:	78 02 00 86 	mvhi r2,0x86
  8605e0:	78 05 00 86 	mvhi r5,0x86
  8605e4:	5b 82 00 50 	sw (sp+80),r2
  8605e8:	5b 85 00 58 	sw (sp+88),r5
  8605ec:	78 02 00 86 	mvhi r2,0x86
  8605f0:	78 05 00 86 	mvhi r5,0x86
  8605f4:	5b 82 00 5c 	sw (sp+92),r2
  8605f8:	5b 85 00 60 	sw (sp+96),r5
  8605fc:	78 02 00 86 	mvhi r2,0x86
  860600:	78 05 00 86 	mvhi r5,0x86
  860604:	5b 82 00 64 	sw (sp+100),r2
  860608:	5b 85 00 68 	sw (sp+104),r5
  86060c:	78 02 00 86 	mvhi r2,0x86
  860610:	78 05 00 86 	mvhi r5,0x86
  860614:	5b 82 00 6c 	sw (sp+108),r2
  860618:	5b 85 00 7c 	sw (sp+124),r5
  86061c:	78 02 00 86 	mvhi r2,0x86
  860620:	78 05 00 86 	mvhi r5,0x86
  860624:	5b 82 00 80 	sw (sp+128),r2
  860628:	5b 85 00 84 	sw (sp+132),r5
  86062c:	78 02 00 86 	mvhi r2,0x86
  860630:	78 05 00 86 	mvhi r5,0x86
  860634:	5b 82 00 88 	sw (sp+136),r2
  860638:	5b 85 00 8c 	sw (sp+140),r5
  86063c:	78 02 00 86 	mvhi r2,0x86
  860640:	78 05 00 86 	mvhi r5,0x86
  860644:	5b 82 00 70 	sw (sp+112),r2
  860648:	5b 85 00 74 	sw (sp+116),r5
  86064c:	78 02 00 86 	mvhi r2,0x86
  860650:	78 05 00 86 	mvhi r5,0x86
  860654:	5b 82 00 78 	sw (sp+120),r2
  860658:	5b 85 00 54 	sw (sp+84),r5
  86065c:	78 02 00 86 	mvhi r2,0x86
  860660:	78 05 00 86 	mvhi r5,0x86
  860664:	5b 82 00 90 	sw (sp+144),r2
  860668:	5b 85 00 94 	sw (sp+148),r5
  86066c:	78 02 00 86 	mvhi r2,0x86
  860670:	78 05 00 86 	mvhi r5,0x86
  860674:	5b 82 00 98 	sw (sp+152),r2
  860678:	5b 85 00 9c 	sw (sp+156),r5
  86067c:	78 02 00 86 	mvhi r2,0x86
  860680:	78 05 00 86 	mvhi r5,0x86
  860684:	5b 82 00 a0 	sw (sp+160),r2
  860688:	5b 85 00 a4 	sw (sp+164),r5
  86068c:	78 02 00 86 	mvhi r2,0x86
  860690:	78 05 00 86 	mvhi r5,0x86
  860694:	78 01 00 86 	mvhi r1,0x86
  860698:	78 1b 00 86 	mvhi fp,0x86
  86069c:	5b 82 00 a8 	sw (sp+168),r2
  8606a0:	5b 85 00 ac 	sw (sp+172),r5
  8606a4:	78 02 00 86 	mvhi r2,0x86
  8606a8:	78 05 00 86 	mvhi r5,0x86
  8606ac:	38 21 da dc 	ori r1,r1,0xdadc
  8606b0:	5b 82 00 b0 	sw (sp+176),r2
  8606b4:	5b 85 00 b4 	sw (sp+180),r5
  8606b8:	f8 00 13 a1 	calli 86553c <printf>
  8606bc:	2b 81 00 48 	lw r1,(sp+72)
  8606c0:	2b 82 00 4c 	lw r2,(sp+76)
  8606c4:	2b 85 00 50 	lw r5,(sp+80)
  8606c8:	38 21 da f8 	ori r1,r1,0xdaf8
  8606cc:	5b 81 00 48 	sw (sp+72),r1
  8606d0:	38 42 db 0c 	ori r2,r2,0xdb0c
  8606d4:	2b 81 00 58 	lw r1,(sp+88)
  8606d8:	5b 82 00 4c 	sw (sp+76),r2
  8606dc:	2b 82 00 5c 	lw r2,(sp+92)
  8606e0:	38 a5 db 14 	ori r5,r5,0xdb14
  8606e4:	38 21 db 1c 	ori r1,r1,0xdb1c
  8606e8:	5b 85 00 50 	sw (sp+80),r5
  8606ec:	5b 81 00 58 	sw (sp+88),r1
  8606f0:	2b 85 00 60 	lw r5,(sp+96)
  8606f4:	2b 81 00 64 	lw r1,(sp+100)
  8606f8:	38 42 db 90 	ori r2,r2,0xdb90
  8606fc:	5b 82 00 5c 	sw (sp+92),r2
  860700:	2b 82 00 68 	lw r2,(sp+104)
  860704:	38 a5 db dc 	ori r5,r5,0xdbdc
  860708:	38 21 dc 34 	ori r1,r1,0xdc34
  86070c:	5b 85 00 60 	sw (sp+96),r5
  860710:	5b 81 00 64 	sw (sp+100),r1
  860714:	2b 85 00 6c 	lw r5,(sp+108)
  860718:	2b 81 00 7c 	lw r1,(sp+124)
  86071c:	38 42 dc 60 	ori r2,r2,0xdc60
  860720:	5b 82 00 68 	sw (sp+104),r2
  860724:	2b 82 00 80 	lw r2,(sp+128)
  860728:	38 a5 dc 64 	ori r5,r5,0xdc64
  86072c:	38 21 dc 88 	ori r1,r1,0xdc88
  860730:	5b 85 00 6c 	sw (sp+108),r5
  860734:	5b 81 00 7c 	sw (sp+124),r1
  860738:	2b 85 00 84 	lw r5,(sp+132)
  86073c:	2b 81 00 88 	lw r1,(sp+136)
  860740:	38 42 dc 90 	ori r2,r2,0xdc90
  860744:	5b 82 00 80 	sw (sp+128),r2
  860748:	2b 82 00 8c 	lw r2,(sp+140)
  86074c:	38 a5 dc 9c 	ori r5,r5,0xdc9c
  860750:	38 21 dc a4 	ori r1,r1,0xdca4
  860754:	5b 85 00 84 	sw (sp+132),r5
  860758:	5b 81 00 88 	sw (sp+136),r1
  86075c:	2b 85 00 70 	lw r5,(sp+112)
  860760:	2b 81 00 74 	lw r1,(sp+116)
  860764:	38 42 dc b0 	ori r2,r2,0xdcb0
  860768:	5b 82 00 8c 	sw (sp+140),r2
  86076c:	2b 82 00 78 	lw r2,(sp+120)
  860770:	38 a5 dc e8 	ori r5,r5,0xdce8
  860774:	38 21 dd 0c 	ori r1,r1,0xdd0c
  860778:	5b 85 00 70 	sw (sp+112),r5
  86077c:	5b 81 00 74 	sw (sp+116),r1
  860780:	38 42 dd 1c 	ori r2,r2,0xdd1c
  860784:	5b 82 00 78 	sw (sp+120),r2
  860788:	2b 85 00 54 	lw r5,(sp+84)
  86078c:	2b 81 00 90 	lw r1,(sp+144)
  860790:	2b 82 00 94 	lw r2,(sp+148)
  860794:	38 a5 db 08 	ori r5,r5,0xdb08
  860798:	38 21 dd 24 	ori r1,r1,0xdd24
  86079c:	5b 85 00 54 	sw (sp+84),r5
  8607a0:	5b 81 00 90 	sw (sp+144),r1
  8607a4:	2b 85 00 98 	lw r5,(sp+152)
  8607a8:	2b 81 00 9c 	lw r1,(sp+156)
  8607ac:	38 42 dd 2c 	ori r2,r2,0xdd2c
  8607b0:	38 a5 e0 44 	ori r5,r5,0xe044
  8607b4:	38 21 e0 50 	ori r1,r1,0xe050
  8607b8:	5b 82 00 94 	sw (sp+148),r2
  8607bc:	5b 85 00 98 	sw (sp+152),r5
  8607c0:	2b 82 00 a0 	lw r2,(sp+160)
  8607c4:	2b 85 00 a4 	lw r5,(sp+164)
  8607c8:	5b 81 00 9c 	sw (sp+156),r1
  8607cc:	2b 81 00 a8 	lw r1,(sp+168)
  8607d0:	38 42 e0 8c 	ori r2,r2,0xe08c
  8607d4:	38 a5 f1 10 	ori r5,r5,0xf110
  8607d8:	38 21 e0 bc 	ori r1,r1,0xe0bc
  8607dc:	5b 82 00 a0 	sw (sp+160),r2
  8607e0:	5b 85 00 a4 	sw (sp+164),r5
  8607e4:	2b 82 00 ac 	lw r2,(sp+172)
  8607e8:	2b 85 00 b0 	lw r5,(sp+176)
  8607ec:	5b 81 00 a8 	sw (sp+168),r1
  8607f0:	2b 81 00 b4 	lw r1,(sp+180)
  8607f4:	38 42 e0 94 	ori r2,r2,0xe094
  8607f8:	38 a5 e1 04 	ori r5,r5,0xe104
  8607fc:	38 21 e0 d4 	ori r1,r1,0xe0d4
  860800:	37 99 00 b8 	addi r25,sp,184
  860804:	3b 7b e4 c8 	ori fp,fp,0xe4c8
  860808:	5b 82 00 ac 	sw (sp+172),r2
  86080c:	5b 85 00 b0 	sw (sp+176),r5
  860810:	5b 81 00 b4 	sw (sp+180),r1
  860814:	2b 81 00 48 	lw r1,(sp+72)
  860818:	34 0b 00 00 	mvi r11,0
  86081c:	34 0c 00 0a 	mvi r12,10
  860820:	f8 00 13 28 	calli 8654c0 <putsnonl>
  860824:	34 0e 00 1b 	mvi r14,27
  860828:	33 80 01 01 	sb (sp+257),r0
  86082c:	34 10 00 7f 	mvi r16,127
  860830:	34 11 00 0d 	mvi r17,13
  860834:	34 0d 00 07 	mvi r13,7
  860838:	34 0f 00 08 	mvi r15,8
  86083c:	f8 00 12 d5 	calli 865390 <readchar>
  860840:	33 81 01 00 	sb (sp+256),r1
  860844:	44 2c 00 0d 	be r1,r12,860878 <main+0x35c>
  860848:	48 2c 00 8e 	bg r1,r12,860a80 <main+0x564>
  86084c:	44 2d ff fc 	be r1,r13,86083c <main+0x320>
  860850:	44 2f 00 90 	be r1,r15,860a90 <main+0x574>
  860854:	37 81 01 00 	addi r1,sp,256
  860858:	f8 00 13 1a 	calli 8654c0 <putsnonl>
  86085c:	43 82 01 00 	lbu r2,(sp+256)
  860860:	b7 2b 18 00 	add r3,r25,r11
  860864:	35 6b 00 01 	addi r11,r11,1
  860868:	30 62 00 00 	sb (r3+0),r2
  86086c:	f8 00 12 c9 	calli 865390 <readchar>
  860870:	33 81 01 00 	sb (sp+256),r1
  860874:	5c 2c ff f5 	bne r1,r12,860848 <main+0x32c>
  860878:	b7 2b 18 00 	add r3,r25,r11
  86087c:	bb 60 08 00 	mv r1,fp
  860880:	30 60 00 00 	sb (r3+0),r0
  860884:	f8 00 13 0f 	calli 8654c0 <putsnonl>
  860888:	bb 20 08 00 	mv r1,r25
  86088c:	34 02 00 20 	mvi r2,32
  860890:	5b 99 00 fc 	sw (sp+252),r25
  860894:	f8 00 0f 4a 	calli 8645bc <strchr>
  860898:	44 20 00 de 	be r1,r0,860c10 <main+0x6f4>
  86089c:	30 20 00 00 	sb (r1+0),r0
  8608a0:	34 23 00 01 	addi r3,r1,1
  8608a4:	2b 8c 00 fc 	lw r12,(sp+252)
  8608a8:	5b 83 00 fc 	sw (sp+252),r3
  8608ac:	2b 82 00 4c 	lw r2,(sp+76)
  8608b0:	b9 80 08 00 	mv r1,r12
  8608b4:	f8 00 0f 8c 	calli 8646e4 <strcmp>
  8608b8:	44 20 00 7f 	be r1,r0,860ab4 <main+0x598>
  8608bc:	2b 82 00 50 	lw r2,(sp+80)
  8608c0:	b9 80 08 00 	mv r1,r12
  8608c4:	f8 00 0f 88 	calli 8646e4 <strcmp>
  8608c8:	44 20 00 7f 	be r1,r0,860ac4 <main+0x5a8>
  8608cc:	2b 82 00 58 	lw r2,(sp+88)
  8608d0:	b9 80 08 00 	mv r1,r12
  8608d4:	f8 00 0f 84 	calli 8646e4 <strcmp>
  8608d8:	b8 20 58 00 	mv r11,r1
  8608dc:	5c 20 00 7c 	bne r1,r0,860acc <main+0x5b0>
  8608e0:	2b 81 00 fc 	lw r1,(sp+252)
  8608e4:	34 02 00 20 	mvi r2,32
  8608e8:	f8 00 0f 35 	calli 8645bc <strchr>
  8608ec:	44 2b 01 b9 	be r1,r11,860fd0 <main+0xab4>
  8608f0:	30 20 00 00 	sb (r1+0),r0
  8608f4:	34 23 00 01 	addi r3,r1,1
  8608f8:	2b 8b 00 fc 	lw r11,(sp+252)
  8608fc:	5b 83 00 fc 	sw (sp+252),r3
  860900:	b8 60 08 00 	mv r1,r3
  860904:	34 02 00 20 	mvi r2,32
  860908:	f8 00 0f 2d 	calli 8645bc <strchr>
  86090c:	44 20 01 ab 	be r1,r0,860fb8 <main+0xa9c>
  860910:	30 20 00 00 	sb (r1+0),r0
  860914:	34 23 00 01 	addi r3,r1,1
  860918:	2b 8c 00 fc 	lw r12,(sp+252)
  86091c:	5b 83 00 fc 	sw (sp+252),r3
  860920:	11 63 00 00 	lb r3,(r11+0)
  860924:	44 60 00 b6 	be r3,r0,860bfc <main+0x6e0>
  860928:	37 8d 00 f8 	addi r13,sp,248
  86092c:	34 03 00 00 	mvi r3,0
  860930:	b9 60 08 00 	mv r1,r11
  860934:	b9 a0 10 00 	mv r2,r13
  860938:	f8 00 10 81 	calli 864b3c <strtoul>
  86093c:	2b 83 00 f8 	lw r3,(sp+248)
  860940:	b8 20 b0 00 	mv r22,r1
  860944:	10 64 00 00 	lb r4,(r3+0)
  860948:	5c 80 00 d9 	bne r4,r0,860cac <main+0x790>
  86094c:	11 83 00 00 	lb r3,(r12+0)
  860950:	44 64 00 dc 	be r3,r4,860cc0 <main+0x7a4>
  860954:	34 03 00 00 	mvi r3,0
  860958:	b9 80 08 00 	mv r1,r12
  86095c:	b9 a0 10 00 	mv r2,r13
  860960:	f8 00 10 77 	calli 864b3c <strtoul>
  860964:	2b 83 00 f8 	lw r3,(sp+248)
  860968:	b8 20 98 00 	mv r19,r1
  86096c:	10 6b 00 00 	lb r11,(r3+0)
  860970:	5d 60 01 0c 	bne r11,r0,860da0 <main+0x884>
  860974:	78 03 00 86 	mvhi r3,0x86
  860978:	b8 60 08 00 	mv r1,r3
  86097c:	38 21 db 60 	ori r1,r1,0xdb60
  860980:	f8 00 12 d0 	calli 8654c0 <putsnonl>
  860984:	4d 73 00 7a 	bge r11,r19,860b6c <main+0x650>
  860988:	ba c0 70 00 	mv r14,r22
  86098c:	78 17 00 86 	mvhi r23,0x86
  860990:	78 11 00 86 	mvhi r17,0x86
  860994:	78 0f 00 86 	mvhi r15,0x86
  860998:	78 10 00 86 	mvhi r16,0x86
  86099c:	78 15 00 86 	mvhi r21,0x86
  8609a0:	78 14 00 86 	mvhi r20,0x86
  8609a4:	3a f7 db 70 	ori r23,r23,0xdb70
  8609a8:	3a 31 db 7c 	ori r17,r17,0xdb7c
  8609ac:	39 ef db 78 	ori r15,r15,0xdb78
  8609b0:	34 18 00 10 	mvi r24,16
  8609b4:	34 0d 00 0f 	mvi r13,15
  8609b8:	3a 10 db 84 	ori r16,r16,0xdb84
  8609bc:	34 12 00 5e 	mvi r18,94
  8609c0:	3a b5 db 8c 	ori r21,r21,0xdb8c
  8609c4:	3a 94 db 88 	ori r20,r20,0xdb88
  8609c8:	ba 60 60 00 	mv r12,r19
  8609cc:	4f 13 00 02 	bge r24,r19,8609d4 <main+0x4b8>
  8609d0:	34 0c 00 10 	mvi r12,16
  8609d4:	ba e0 08 00 	mv r1,r23
  8609d8:	ba c0 10 00 	mv r2,r22
  8609dc:	f8 00 12 d8 	calli 86553c <printf>
  8609e0:	34 0b 00 00 	mvi r11,0
  8609e4:	b5 cb 10 00 	add r2,r14,r11
  8609e8:	40 42 00 00 	lbu r2,(r2+0)
  8609ec:	35 6b 00 01 	addi r11,r11,1
  8609f0:	ba 20 08 00 	mv r1,r17
  8609f4:	f8 00 12 d2 	calli 86553c <printf>
  8609f8:	49 8b ff fb 	bg r12,r11,8609e4 <main+0x4c8>
  8609fc:	4d ab 00 14 	bge r13,r11,860a4c <main+0x530>
  860a00:	b9 e0 08 00 	mv r1,r15
  860a04:	f8 00 12 ce 	calli 86553c <printf>
  860a08:	34 0b 00 00 	mvi r11,0
  860a0c:	b5 cb 10 00 	add r2,r14,r11
  860a10:	10 42 00 00 	lb r2,(r2+0)
  860a14:	34 43 ff e0 	addi r3,r2,-32
  860a18:	20 63 00 ff 	andi r3,r3,0xff
  860a1c:	52 43 00 16 	bgeu r18,r3,860a74 <main+0x558>
  860a20:	ba 80 08 00 	mv r1,r20
  860a24:	f8 00 12 c6 	calli 86553c <printf>
  860a28:	35 6b 00 01 	addi r11,r11,1
  860a2c:	49 8b ff f8 	bg r12,r11,860a0c <main+0x4f0>
  860a30:	4d ab 00 0c 	bge r13,r11,860a60 <main+0x544>
  860a34:	ca 6c 98 00 	sub r19,r19,r12
  860a38:	4c 13 00 4d 	bge r0,r19,860b6c <main+0x650>
  860a3c:	b1 80 18 00 	sextb r3,r12
  860a40:	b5 c3 70 00 	add r14,r14,r3
  860a44:	b6 cc b0 00 	add r22,r22,r12
  860a48:	e3 ff ff e0 	bi 8609c8 <main+0x4ac>
  860a4c:	35 6b 00 01 	addi r11,r11,1
  860a50:	ba 00 08 00 	mv r1,r16
  860a54:	f8 00 12 ba 	calli 86553c <printf>
  860a58:	4d ab ff fd 	bge r13,r11,860a4c <main+0x530>
  860a5c:	e3 ff ff e9 	bi 860a00 <main+0x4e4>
  860a60:	35 6b 00 01 	addi r11,r11,1
  860a64:	b9 e0 08 00 	mv r1,r15
  860a68:	f8 00 12 b5 	calli 86553c <printf>
  860a6c:	4d ab ff fd 	bge r13,r11,860a60 <main+0x544>
  860a70:	e3 ff ff f1 	bi 860a34 <main+0x518>
  860a74:	ba a0 08 00 	mv r1,r21
  860a78:	f8 00 12 b1 	calli 86553c <printf>
  860a7c:	e3 ff ff eb 	bi 860a28 <main+0x50c>
  860a80:	44 2e 00 09 	be r1,r14,860aa4 <main+0x588>
  860a84:	44 30 00 03 	be r1,r16,860a90 <main+0x574>
  860a88:	5c 31 ff 73 	bne r1,r17,860854 <main+0x338>
  860a8c:	e3 ff ff 7b 	bi 860878 <main+0x35c>
  860a90:	45 60 ff 6b 	be r11,r0,86083c <main+0x320>
  860a94:	2b 81 00 54 	lw r1,(sp+84)
  860a98:	35 6b ff ff 	addi r11,r11,-1
  860a9c:	f8 00 12 89 	calli 8654c0 <putsnonl>
  860aa0:	e3 ff ff 67 	bi 86083c <main+0x320>
  860aa4:	f8 00 29 61 	calli 86b028 <vga_get_console>
  860aa8:	64 21 00 00 	cmpei r1,r1,0
  860aac:	f8 00 29 4c 	calli 86afdc <vga_set_console>
  860ab0:	e3 ff ff 63 	bi 86083c <main+0x320>
  860ab4:	f8 00 29 5d 	calli 86b028 <vga_get_console>
  860ab8:	64 21 00 00 	cmpei r1,r1,0
  860abc:	f8 00 29 48 	calli 86afdc <vga_set_console>
  860ac0:	e3 ff ff 55 	bi 860814 <main+0x2f8>
  860ac4:	f8 00 16 2a 	calli 86636c <flush_bridge_cache>
  860ac8:	e3 ff ff 53 	bi 860814 <main+0x2f8>
  860acc:	2b 82 00 5c 	lw r2,(sp+92)
  860ad0:	b9 80 08 00 	mv r1,r12
  860ad4:	f8 00 0f 04 	calli 8646e4 <strcmp>
  860ad8:	b8 20 58 00 	mv r11,r1
  860adc:	44 20 00 27 	be r1,r0,860b78 <main+0x65c>
  860ae0:	2b 82 00 60 	lw r2,(sp+96)
  860ae4:	b9 80 08 00 	mv r1,r12
  860ae8:	f8 00 0e ff 	calli 8646e4 <strcmp>
  860aec:	b8 20 58 00 	mv r11,r1
  860af0:	44 20 00 4e 	be r1,r0,860c28 <main+0x70c>
  860af4:	2b 82 00 64 	lw r2,(sp+100)
  860af8:	b9 80 08 00 	mv r1,r12
  860afc:	f8 00 0e fa 	calli 8646e4 <strcmp>
  860b00:	b8 20 58 00 	mv r11,r1
  860b04:	5c 20 00 76 	bne r1,r0,860cdc <main+0x7c0>
  860b08:	2b 81 00 fc 	lw r1,(sp+252)
  860b0c:	34 02 00 20 	mvi r2,32
  860b10:	f8 00 0e ab 	calli 8645bc <strchr>
  860b14:	44 2b 01 84 	be r1,r11,861124 <main+0xc08>
  860b18:	30 20 00 00 	sb (r1+0),r0
  860b1c:	34 23 00 01 	addi r3,r1,1
  860b20:	2b 8c 00 fc 	lw r12,(sp+252)
  860b24:	5b 83 00 fc 	sw (sp+252),r3
  860b28:	b8 60 08 00 	mv r1,r3
  860b2c:	34 02 00 20 	mvi r2,32
  860b30:	f8 00 0e a3 	calli 8645bc <strchr>
  860b34:	44 20 01 76 	be r1,r0,86110c <main+0xbf0>
  860b38:	30 20 00 00 	sb (r1+0),r0
  860b3c:	34 23 00 01 	addi r3,r1,1
  860b40:	2b 8b 00 fc 	lw r11,(sp+252)
  860b44:	5b 83 00 fc 	sw (sp+252),r3
  860b48:	11 83 00 00 	lb r3,(r12+0)
  860b4c:	44 60 00 03 	be r3,r0,860b58 <main+0x63c>
  860b50:	11 63 00 00 	lb r3,(r11+0)
  860b54:	5c 60 00 db 	bne r3,r0,860ec0 <main+0x9a4>
  860b58:	78 03 00 86 	mvhi r3,0x86
  860b5c:	b8 60 08 00 	mv r1,r3
  860b60:	38 21 dc 38 	ori r1,r1,0xdc38
  860b64:	f8 00 12 76 	calli 86553c <printf>
  860b68:	e3 ff ff 2b 	bi 860814 <main+0x2f8>
  860b6c:	bb 60 08 00 	mv r1,fp
  860b70:	f8 00 12 73 	calli 86553c <printf>
  860b74:	e3 ff ff 28 	bi 860814 <main+0x2f8>
  860b78:	2b 81 00 fc 	lw r1,(sp+252)
  860b7c:	34 02 00 20 	mvi r2,32
  860b80:	f8 00 0e 8f 	calli 8645bc <strchr>
  860b84:	44 2b 01 36 	be r1,r11,86105c <main+0xb40>
  860b88:	30 20 00 00 	sb (r1+0),r0
  860b8c:	34 23 00 01 	addi r3,r1,1
  860b90:	2b 8c 00 fc 	lw r12,(sp+252)
  860b94:	5b 83 00 fc 	sw (sp+252),r3
  860b98:	b8 60 08 00 	mv r1,r3
  860b9c:	34 02 00 20 	mvi r2,32
  860ba0:	f8 00 0e 87 	calli 8645bc <strchr>
  860ba4:	44 20 01 20 	be r1,r0,861024 <main+0xb08>
  860ba8:	30 20 00 00 	sb (r1+0),r0
  860bac:	34 23 00 01 	addi r3,r1,1
  860bb0:	2b 8b 00 fc 	lw r11,(sp+252)
  860bb4:	5b 83 00 fc 	sw (sp+252),r3
  860bb8:	b8 60 08 00 	mv r1,r3
  860bbc:	34 02 00 20 	mvi r2,32
  860bc0:	f8 00 0e 7f 	calli 8645bc <strchr>
  860bc4:	44 20 01 1e 	be r1,r0,86103c <main+0xb20>
  860bc8:	30 20 00 00 	sb (r1+0),r0
  860bcc:	34 23 00 01 	addi r3,r1,1
  860bd0:	2b 8d 00 fc 	lw r13,(sp+252)
  860bd4:	5b 83 00 fc 	sw (sp+252),r3
  860bd8:	11 83 00 00 	lb r3,(r12+0)
  860bdc:	44 60 00 03 	be r3,r0,860be8 <main+0x6cc>
  860be0:	11 63 00 00 	lb r3,(r11+0)
  860be4:	5c 60 00 54 	bne r3,r0,860d34 <main+0x818>
  860be8:	78 03 00 86 	mvhi r3,0x86
  860bec:	b8 60 08 00 	mv r1,r3
  860bf0:	38 21 db 94 	ori r1,r1,0xdb94
  860bf4:	f8 00 12 52 	calli 86553c <printf>
  860bf8:	e3 ff ff 07 	bi 860814 <main+0x2f8>
  860bfc:	78 03 00 86 	mvhi r3,0x86
  860c00:	b8 60 08 00 	mv r1,r3
  860c04:	38 21 db 20 	ori r1,r1,0xdb20
  860c08:	f8 00 12 4d 	calli 86553c <printf>
  860c0c:	e3 ff ff 02 	bi 860814 <main+0x2f8>
  860c10:	2b 8c 00 fc 	lw r12,(sp+252)
  860c14:	b9 80 08 00 	mv r1,r12
  860c18:	f8 00 0e dc 	calli 864788 <strlen>
  860c1c:	b5 81 18 00 	add r3,r12,r1
  860c20:	5b 83 00 fc 	sw (sp+252),r3
  860c24:	e3 ff ff 22 	bi 8608ac <main+0x390>
  860c28:	2b 81 00 fc 	lw r1,(sp+252)
  860c2c:	34 02 00 20 	mvi r2,32
  860c30:	f8 00 0e 63 	calli 8645bc <strchr>
  860c34:	44 2b 01 2c 	be r1,r11,8610e4 <main+0xbc8>
  860c38:	30 20 00 00 	sb (r1+0),r0
  860c3c:	34 23 00 01 	addi r3,r1,1
  860c40:	2b 8d 00 fc 	lw r13,(sp+252)
  860c44:	5b 83 00 fc 	sw (sp+252),r3
  860c48:	b8 60 08 00 	mv r1,r3
  860c4c:	34 02 00 20 	mvi r2,32
  860c50:	f8 00 0e 5b 	calli 8645bc <strchr>
  860c54:	44 20 01 4a 	be r1,r0,86117c <main+0xc60>
  860c58:	30 20 00 00 	sb (r1+0),r0
  860c5c:	34 23 00 01 	addi r3,r1,1
  860c60:	2b 8b 00 fc 	lw r11,(sp+252)
  860c64:	5b 83 00 fc 	sw (sp+252),r3
  860c68:	b8 60 08 00 	mv r1,r3
  860c6c:	34 02 00 20 	mvi r2,32
  860c70:	f8 00 0e 53 	calli 8645bc <strchr>
  860c74:	44 20 01 3c 	be r1,r0,861164 <main+0xc48>
  860c78:	30 20 00 00 	sb (r1+0),r0
  860c7c:	34 23 00 01 	addi r3,r1,1
  860c80:	2b 8c 00 fc 	lw r12,(sp+252)
  860c84:	5b 83 00 fc 	sw (sp+252),r3
  860c88:	11 a3 00 00 	lb r3,(r13+0)
  860c8c:	44 60 00 03 	be r3,r0,860c98 <main+0x77c>
  860c90:	11 63 00 00 	lb r3,(r11+0)
  860c94:	5c 60 00 6d 	bne r3,r0,860e48 <main+0x92c>
  860c98:	78 03 00 86 	mvhi r3,0x86
  860c9c:	b8 60 08 00 	mv r1,r3
  860ca0:	38 21 db e0 	ori r1,r1,0xdbe0
  860ca4:	f8 00 12 26 	calli 86553c <printf>
  860ca8:	e3 ff fe db 	bi 860814 <main+0x2f8>
  860cac:	78 03 00 86 	mvhi r3,0x86
  860cb0:	b8 60 08 00 	mv r1,r3
  860cb4:	38 21 db 38 	ori r1,r1,0xdb38
  860cb8:	f8 00 12 21 	calli 86553c <printf>
  860cbc:	e3 ff fe d6 	bi 860814 <main+0x2f8>
  860cc0:	78 03 00 86 	mvhi r3,0x86
  860cc4:	b8 60 08 00 	mv r1,r3
  860cc8:	38 21 db 60 	ori r1,r1,0xdb60
  860ccc:	ba c0 70 00 	mv r14,r22
  860cd0:	f8 00 11 fc 	calli 8654c0 <putsnonl>
  860cd4:	34 13 00 01 	mvi r19,1
  860cd8:	e3 ff ff 2d 	bi 86098c <main+0x470>
  860cdc:	2b 82 00 68 	lw r2,(sp+104)
  860ce0:	b9 80 08 00 	mv r1,r12
  860ce4:	f8 00 0e 80 	calli 8646e4 <strcmp>
  860ce8:	b8 20 58 00 	mv r11,r1
  860cec:	5c 20 00 32 	bne r1,r0,860db4 <main+0x898>
  860cf0:	2b 81 00 fc 	lw r1,(sp+252)
  860cf4:	34 02 00 20 	mvi r2,32
  860cf8:	f8 00 0e 31 	calli 8645bc <strchr>
  860cfc:	44 2b 01 42 	be r1,r11,861204 <main+0xce8>
  860d00:	30 20 00 00 	sb (r1+0),r0
  860d04:	34 23 00 01 	addi r3,r1,1
  860d08:	5b 83 00 fc 	sw (sp+252),r3
  860d0c:	34 01 00 00 	mvi r1,0
  860d10:	f8 00 12 3e 	calli 865608 <fatfs_init>
  860d14:	44 20 fe c0 	be r1,r0,860814 <main+0x2f8>
  860d18:	78 03 00 86 	mvhi r3,0x86
  860d1c:	b8 60 08 00 	mv r1,r3
  860d20:	34 02 00 00 	mvi r2,0
  860d24:	38 21 02 80 	ori r1,r1,0x280
  860d28:	f8 00 13 08 	calli 865948 <fatfs_list_files>
  860d2c:	f8 00 15 81 	calli 866330 <fatfs_done>
  860d30:	e3 ff fe b9 	bi 860814 <main+0x2f8>
  860d34:	37 8f 00 f8 	addi r15,sp,248
  860d38:	b9 80 08 00 	mv r1,r12
  860d3c:	34 03 00 00 	mvi r3,0
  860d40:	b9 e0 10 00 	mv r2,r15
  860d44:	f8 00 0f 7e 	calli 864b3c <strtoul>
  860d48:	2b 83 00 f8 	lw r3,(sp+248)
  860d4c:	b8 20 80 00 	mv r16,r1
  860d50:	10 6c 00 00 	lb r12,(r3+0)
  860d54:	5d 80 ff d6 	bne r12,r0,860cac <main+0x790>
  860d58:	b9 60 08 00 	mv r1,r11
  860d5c:	34 03 00 00 	mvi r3,0
  860d60:	b9 e0 10 00 	mv r2,r15
  860d64:	f8 00 0f 76 	calli 864b3c <strtoul>
  860d68:	2b 83 00 f8 	lw r3,(sp+248)
  860d6c:	b8 20 58 00 	mv r11,r1
  860d70:	10 6e 00 00 	lb r14,(r3+0)
  860d74:	5d cc 00 d2 	bne r14,r12,8610bc <main+0xba0>
  860d78:	11 a3 00 00 	lb r3,(r13+0)
  860d7c:	5c 6e 00 a0 	bne r3,r14,860ffc <main+0xae0>
  860d80:	34 05 00 01 	mvi r5,1
  860d84:	ba 00 20 00 	mv r4,r16
  860d88:	34 03 00 00 	mvi r3,0
  860d8c:	58 8b 00 00 	sw (r4+0),r11
  860d90:	34 63 00 01 	addi r3,r3,1
  860d94:	34 84 00 04 	addi r4,r4,4
  860d98:	54 a3 ff fd 	bgu r5,r3,860d8c <main+0x870>
  860d9c:	e3 ff fe 9e 	bi 860814 <main+0x2f8>
  860da0:	78 03 00 86 	mvhi r3,0x86
  860da4:	b8 60 08 00 	mv r1,r3
  860da8:	38 21 db 4c 	ori r1,r1,0xdb4c
  860dac:	f8 00 11 e4 	calli 86553c <printf>
  860db0:	e3 ff fe 99 	bi 860814 <main+0x2f8>
  860db4:	2b 82 00 6c 	lw r2,(sp+108)
  860db8:	b9 80 08 00 	mv r1,r12
  860dbc:	f8 00 0e 4a 	calli 8646e4 <strcmp>
  860dc0:	b8 20 58 00 	mv r11,r1
  860dc4:	5c 20 00 59 	bne r1,r0,860f28 <main+0xa0c>
  860dc8:	2b 81 00 fc 	lw r1,(sp+252)
  860dcc:	34 02 00 20 	mvi r2,32
  860dd0:	f8 00 0d fb 	calli 8645bc <strchr>
  860dd4:	44 2b 02 4d 	be r1,r11,861708 <main+0x11ec>
  860dd8:	30 20 00 00 	sb (r1+0),r0
  860ddc:	34 23 00 01 	addi r3,r1,1
  860de0:	2b 8d 00 fc 	lw r13,(sp+252)
  860de4:	5b 83 00 fc 	sw (sp+252),r3
  860de8:	b8 60 08 00 	mv r1,r3
  860dec:	34 02 00 20 	mvi r2,32
  860df0:	f8 00 0d f3 	calli 8645bc <strchr>
  860df4:	44 20 02 3f 	be r1,r0,8616f0 <main+0x11d4>
  860df8:	30 20 00 00 	sb (r1+0),r0
  860dfc:	34 23 00 01 	addi r3,r1,1
  860e00:	2b 8c 00 fc 	lw r12,(sp+252)
  860e04:	5b 83 00 fc 	sw (sp+252),r3
  860e08:	b8 60 08 00 	mv r1,r3
  860e0c:	34 02 00 20 	mvi r2,32
  860e10:	f8 00 0d eb 	calli 8645bc <strchr>
  860e14:	44 20 02 24 	be r1,r0,8616a4 <main+0x1188>
  860e18:	30 20 00 00 	sb (r1+0),r0
  860e1c:	34 23 00 01 	addi r3,r1,1
  860e20:	5b 83 00 fc 	sw (sp+252),r3
  860e24:	11 a3 00 00 	lb r3,(r13+0)
  860e28:	44 60 00 03 	be r3,r0,860e34 <main+0x918>
  860e2c:	11 83 00 00 	lb r3,(r12+0)
  860e30:	5c 60 00 91 	bne r3,r0,861074 <main+0xb58>
  860e34:	78 03 00 86 	mvhi r3,0x86
  860e38:	b8 60 08 00 	mv r1,r3
  860e3c:	38 21 dc 6c 	ori r1,r1,0xdc6c
  860e40:	f8 00 11 bf 	calli 86553c <printf>
  860e44:	e3 ff fe 74 	bi 860814 <main+0x2f8>
  860e48:	37 8e 00 f8 	addi r14,sp,248
  860e4c:	b9 a0 08 00 	mv r1,r13
  860e50:	34 03 00 00 	mvi r3,0
  860e54:	b9 c0 10 00 	mv r2,r14
  860e58:	f8 00 0f 39 	calli 864b3c <strtoul>
  860e5c:	2b 83 00 f8 	lw r3,(sp+248)
  860e60:	b8 20 80 00 	mv r16,r1
  860e64:	10 6d 00 00 	lb r13,(r3+0)
  860e68:	5d a0 00 60 	bne r13,r0,860fe8 <main+0xacc>
  860e6c:	b9 60 08 00 	mv r1,r11
  860e70:	34 03 00 00 	mvi r3,0
  860e74:	b9 c0 10 00 	mv r2,r14
  860e78:	f8 00 0f 31 	calli 864b3c <strtoul>
  860e7c:	2b 83 00 f8 	lw r3,(sp+248)
  860e80:	b8 20 78 00 	mv r15,r1
  860e84:	10 6b 00 00 	lb r11,(r3+0)
  860e88:	5d 6d 00 92 	bne r11,r13,8610d0 <main+0xbb4>
  860e8c:	11 83 00 00 	lb r3,(r12+0)
  860e90:	5c 6b 00 ab 	bne r3,r11,86113c <main+0xc20>
  860e94:	34 07 00 01 	mvi r7,1
  860e98:	ba 00 28 00 	mv r5,r16
  860e9c:	b9 e0 20 00 	mv r4,r15
  860ea0:	34 06 00 00 	mvi r6,0
  860ea4:	28 81 00 00 	lw r1,(r4+0)
  860ea8:	34 c6 00 01 	addi r6,r6,1
  860eac:	34 84 00 04 	addi r4,r4,4
  860eb0:	58 a1 00 00 	sw (r5+0),r1
  860eb4:	34 a5 00 04 	addi r5,r5,4
  860eb8:	54 e6 ff fb 	bgu r7,r6,860ea4 <main+0x988>
  860ebc:	e3 ff fe 56 	bi 860814 <main+0x2f8>
  860ec0:	37 8d 00 f8 	addi r13,sp,248
  860ec4:	b9 80 08 00 	mv r1,r12
  860ec8:	34 03 00 00 	mvi r3,0
  860ecc:	b9 a0 10 00 	mv r2,r13
  860ed0:	f8 00 0f 1b 	calli 864b3c <strtoul>
  860ed4:	2b 83 00 f8 	lw r3,(sp+248)
  860ed8:	b8 20 70 00 	mv r14,r1
  860edc:	10 6c 00 00 	lb r12,(r3+0)
  860ee0:	5d 80 ff 73 	bne r12,r0,860cac <main+0x790>
  860ee4:	34 03 00 00 	mvi r3,0
  860ee8:	b9 60 08 00 	mv r1,r11
  860eec:	b9 a0 10 00 	mv r2,r13
  860ef0:	f8 00 0f 13 	calli 864b3c <strtoul>
  860ef4:	2b 83 00 f8 	lw r3,(sp+248)
  860ef8:	10 63 00 00 	lb r3,(r3+0)
  860efc:	5c 6c ff a9 	bne r3,r12,860da0 <main+0x884>
  860f00:	b8 20 10 00 	mv r2,r1
  860f04:	b9 c0 08 00 	mv r1,r14
  860f08:	f8 00 10 ad 	calli 8651bc <crc32>
  860f0c:	78 03 00 86 	mvhi r3,0x86
  860f10:	b8 20 20 00 	mv r4,r1
  860f14:	b8 60 08 00 	mv r1,r3
  860f18:	b8 80 10 00 	mv r2,r4
  860f1c:	38 21 dc 50 	ori r1,r1,0xdc50
  860f20:	f8 00 11 87 	calli 86553c <printf>
  860f24:	e3 ff fe 3c 	bi 860814 <main+0x2f8>
  860f28:	2b 82 00 7c 	lw r2,(sp+124)
  860f2c:	b9 80 08 00 	mv r1,r12
  860f30:	f8 00 0d ed 	calli 8646e4 <strcmp>
  860f34:	44 20 00 48 	be r1,r0,861054 <main+0xb38>
  860f38:	2b 82 00 80 	lw r2,(sp+128)
  860f3c:	b9 80 08 00 	mv r1,r12
  860f40:	f8 00 0d e9 	calli 8646e4 <strcmp>
  860f44:	44 20 00 6e 	be r1,r0,8610fc <main+0xbe0>
  860f48:	2b 82 00 84 	lw r2,(sp+132)
  860f4c:	b9 80 08 00 	mv r1,r12
  860f50:	f8 00 0d e5 	calli 8646e4 <strcmp>
  860f54:	44 20 00 6c 	be r1,r0,861104 <main+0xbe8>
  860f58:	2b 82 00 88 	lw r2,(sp+136)
  860f5c:	b9 80 08 00 	mv r1,r12
  860f60:	f8 00 0d e1 	calli 8646e4 <strcmp>
  860f64:	44 20 00 8c 	be r1,r0,861194 <main+0xc78>
  860f68:	2b 82 00 8c 	lw r2,(sp+140)
  860f6c:	b9 80 08 00 	mv r1,r12
  860f70:	f8 00 0d dd 	calli 8646e4 <strcmp>
  860f74:	b8 20 58 00 	mv r11,r1
  860f78:	5c 20 00 8e 	bne r1,r0,8611b0 <main+0xc94>
  860f7c:	37 81 00 fc 	addi r1,sp,252
  860f80:	fb ff fd 4e 	calli 8604b8 <get_token>
  860f84:	10 23 00 00 	lb r3,(r1+0)
  860f88:	44 6b 01 aa 	be r3,r11,861630 <main+0x1114>
  860f8c:	34 03 00 00 	mvi r3,0
  860f90:	37 82 00 f8 	addi r2,sp,248
  860f94:	f8 00 0e ea 	calli 864b3c <strtoul>
  860f98:	2b 83 00 f8 	lw r3,(sp+248)
  860f9c:	10 63 00 00 	lb r3,(r3+0)
  860fa0:	44 60 01 c7 	be r3,r0,8616bc <main+0x11a0>
  860fa4:	78 03 00 86 	mvhi r3,0x86
  860fa8:	b8 60 08 00 	mv r1,r3
  860fac:	38 21 dc cc 	ori r1,r1,0xdccc
  860fb0:	f8 00 11 63 	calli 86553c <printf>
  860fb4:	e3 ff fe 18 	bi 860814 <main+0x2f8>
  860fb8:	2b 8c 00 fc 	lw r12,(sp+252)
  860fbc:	b9 80 08 00 	mv r1,r12
  860fc0:	f8 00 0d f2 	calli 864788 <strlen>
  860fc4:	b5 81 18 00 	add r3,r12,r1
  860fc8:	5b 83 00 fc 	sw (sp+252),r3
  860fcc:	e3 ff fe 55 	bi 860920 <main+0x404>
  860fd0:	2b 8b 00 fc 	lw r11,(sp+252)
  860fd4:	b9 60 08 00 	mv r1,r11
  860fd8:	f8 00 0d ec 	calli 864788 <strlen>
  860fdc:	b5 61 18 00 	add r3,r11,r1
  860fe0:	5b 83 00 fc 	sw (sp+252),r3
  860fe4:	e3 ff fe 47 	bi 860900 <main+0x3e4>
  860fe8:	78 03 00 86 	mvhi r3,0x86
  860fec:	b8 60 08 00 	mv r1,r3
  860ff0:	38 21 db f8 	ori r1,r1,0xdbf8
  860ff4:	f8 00 11 52 	calli 86553c <printf>
  860ff8:	e3 ff fe 07 	bi 860814 <main+0x2f8>
  860ffc:	34 03 00 00 	mvi r3,0
  861000:	b9 a0 08 00 	mv r1,r13
  861004:	b9 e0 10 00 	mv r2,r15
  861008:	f8 00 0e cd 	calli 864b3c <strtoul>
  86100c:	2b 83 00 f8 	lw r3,(sp+248)
  861010:	b8 20 28 00 	mv r5,r1
  861014:	10 63 00 00 	lb r3,(r3+0)
  861018:	5c 6e 00 61 	bne r3,r14,86119c <main+0xc80>
  86101c:	5c 23 ff 5a 	bne r1,r3,860d84 <main+0x868>
  861020:	e3 ff fd fd 	bi 860814 <main+0x2f8>
  861024:	2b 8b 00 fc 	lw r11,(sp+252)
  861028:	b9 60 08 00 	mv r1,r11
  86102c:	f8 00 0d d7 	calli 864788 <strlen>
  861030:	b5 61 18 00 	add r3,r11,r1
  861034:	5b 83 00 fc 	sw (sp+252),r3
  861038:	e3 ff fe e0 	bi 860bb8 <main+0x69c>
  86103c:	2b 8d 00 fc 	lw r13,(sp+252)
  861040:	b9 a0 08 00 	mv r1,r13
  861044:	f8 00 0d d1 	calli 864788 <strlen>
  861048:	b5 a1 18 00 	add r3,r13,r1
  86104c:	5b 83 00 fc 	sw (sp+252),r3
  861050:	e3 ff fe e2 	bi 860bd8 <main+0x6bc>
  861054:	f8 00 0a a9 	calli 863af8 <netboot>
  861058:	e3 ff fd ef 	bi 860814 <main+0x2f8>
  86105c:	2b 8c 00 fc 	lw r12,(sp+252)
  861060:	b9 80 08 00 	mv r1,r12
  861064:	f8 00 0d c9 	calli 864788 <strlen>
  861068:	b5 81 18 00 	add r3,r12,r1
  86106c:	5b 83 00 fc 	sw (sp+252),r3
  861070:	e3 ff fe ca 	bi 860b98 <main+0x67c>
  861074:	b9 80 08 00 	mv r1,r12
  861078:	34 03 00 00 	mvi r3,0
  86107c:	37 82 00 f8 	addi r2,sp,248
  861080:	f8 00 0e af 	calli 864b3c <strtoul>
  861084:	2b 83 00 f8 	lw r3,(sp+248)
  861088:	b8 20 60 00 	mv r12,r1
  86108c:	10 6b 00 00 	lb r11,(r3+0)
  861090:	5d 60 ff 07 	bne r11,r0,860cac <main+0x790>
  861094:	34 01 00 00 	mvi r1,0
  861098:	f8 00 11 5c 	calli 865608 <fatfs_init>
  86109c:	44 2b fd de 	be r1,r11,860814 <main+0x2f8>
  8610a0:	b9 80 10 00 	mv r2,r12
  8610a4:	78 03 01 00 	mvhi r3,0x100
  8610a8:	34 04 00 00 	mvi r4,0
  8610ac:	b9 a0 08 00 	mv r1,r13
  8610b0:	f8 00 13 9a 	calli 865f18 <fatfs_load>
  8610b4:	f8 00 14 9f 	calli 866330 <fatfs_done>
  8610b8:	e3 ff fd d7 	bi 860814 <main+0x2f8>
  8610bc:	78 03 00 86 	mvhi r3,0x86
  8610c0:	b8 60 08 00 	mv r1,r3
  8610c4:	38 21 db b4 	ori r1,r1,0xdbb4
  8610c8:	f8 00 11 1d 	calli 86553c <printf>
  8610cc:	e3 ff fd d2 	bi 860814 <main+0x2f8>
  8610d0:	78 03 00 86 	mvhi r3,0x86
  8610d4:	b8 60 08 00 	mv r1,r3
  8610d8:	38 21 dc 18 	ori r1,r1,0xdc18
  8610dc:	f8 00 11 18 	calli 86553c <printf>
  8610e0:	e3 ff fd cd 	bi 860814 <main+0x2f8>
  8610e4:	2b 8d 00 fc 	lw r13,(sp+252)
  8610e8:	b9 a0 08 00 	mv r1,r13
  8610ec:	f8 00 0d a7 	calli 864788 <strlen>
  8610f0:	b5 a1 18 00 	add r3,r13,r1
  8610f4:	5b 83 00 fc 	sw (sp+252),r3
  8610f8:	e3 ff fe d4 	bi 860c48 <main+0x72c>
  8610fc:	f8 00 09 a3 	calli 863788 <serialboot>
  861100:	e3 ff fd c5 	bi 860814 <main+0x2f8>
  861104:	f8 00 0a fa 	calli 863cec <fsboot>
  861108:	e3 ff fd c3 	bi 860814 <main+0x2f8>
  86110c:	2b 8b 00 fc 	lw r11,(sp+252)
  861110:	b9 60 08 00 	mv r1,r11
  861114:	f8 00 0d 9d 	calli 864788 <strlen>
  861118:	b5 61 18 00 	add r3,r11,r1
  86111c:	5b 83 00 fc 	sw (sp+252),r3
  861120:	e3 ff fe 8a 	bi 860b48 <main+0x62c>
  861124:	2b 8c 00 fc 	lw r12,(sp+252)
  861128:	b9 80 08 00 	mv r1,r12
  86112c:	f8 00 0d 97 	calli 864788 <strlen>
  861130:	b5 81 18 00 	add r3,r12,r1
  861134:	5b 83 00 fc 	sw (sp+252),r3
  861138:	e3 ff fe 7c 	bi 860b28 <main+0x60c>
  86113c:	34 03 00 00 	mvi r3,0
  861140:	b9 80 08 00 	mv r1,r12
  861144:	b9 c0 10 00 	mv r2,r14
  861148:	f8 00 0e 7d 	calli 864b3c <strtoul>
  86114c:	2b 83 00 f8 	lw r3,(sp+248)
  861150:	b8 20 38 00 	mv r7,r1
  861154:	10 63 00 00 	lb r3,(r3+0)
  861158:	5c 6b 00 11 	bne r3,r11,86119c <main+0xc80>
  86115c:	44 23 fd ae 	be r1,r3,860814 <main+0x2f8>
  861160:	e3 ff ff 4e 	bi 860e98 <main+0x97c>
  861164:	2b 8c 00 fc 	lw r12,(sp+252)
  861168:	b9 80 08 00 	mv r1,r12
  86116c:	f8 00 0d 87 	calli 864788 <strlen>
  861170:	b5 81 18 00 	add r3,r12,r1
  861174:	5b 83 00 fc 	sw (sp+252),r3
  861178:	e3 ff fe c4 	bi 860c88 <main+0x76c>
  86117c:	2b 8b 00 fc 	lw r11,(sp+252)
  861180:	b9 60 08 00 	mv r1,r11
  861184:	f8 00 0d 81 	calli 864788 <strlen>
  861188:	b5 61 18 00 	add r3,r11,r1
  86118c:	5b 83 00 fc 	sw (sp+252),r3
  861190:	e3 ff fe b6 	bi 860c68 <main+0x74c>
  861194:	f8 00 0b 36 	calli 863e6c <flashboot>
  861198:	e3 ff fd 9f 	bi 860814 <main+0x2f8>
  86119c:	78 03 00 86 	mvhi r3,0x86
  8611a0:	b8 60 08 00 	mv r1,r3
  8611a4:	38 21 db c8 	ori r1,r1,0xdbc8
  8611a8:	f8 00 10 e5 	calli 86553c <printf>
  8611ac:	e3 ff fd 9a 	bi 860814 <main+0x2f8>
  8611b0:	2b 82 00 70 	lw r2,(sp+112)
  8611b4:	b9 80 08 00 	mv r1,r12
  8611b8:	f8 00 0d 4b 	calli 8646e4 <strcmp>
  8611bc:	b8 20 68 00 	mv r13,r1
  8611c0:	5c 20 00 17 	bne r1,r0,86121c <main+0xd00>
  8611c4:	37 8b 00 fc 	addi r11,sp,252
  8611c8:	b9 60 08 00 	mv r1,r11
  8611cc:	fb ff fc bb 	calli 8604b8 <get_token>
  8611d0:	b8 20 60 00 	mv r12,r1
  8611d4:	b9 60 08 00 	mv r1,r11
  8611d8:	fb ff fc b8 	calli 8604b8 <get_token>
  8611dc:	11 83 00 00 	lb r3,(r12+0)
  8611e0:	b8 20 70 00 	mv r14,r1
  8611e4:	44 6d 00 03 	be r3,r13,8611f0 <main+0xcd4>
  8611e8:	10 23 00 00 	lb r3,(r1+0)
  8611ec:	5c 60 01 16 	bne r3,r0,861644 <main+0x1128>
  8611f0:	78 03 00 86 	mvhi r3,0x86
  8611f4:	b8 60 08 00 	mv r1,r3
  8611f8:	38 21 dc f0 	ori r1,r1,0xdcf0
  8611fc:	f8 00 10 d0 	calli 86553c <printf>
  861200:	e3 ff fd 85 	bi 860814 <main+0x2f8>
  861204:	2b 8b 00 fc 	lw r11,(sp+252)
  861208:	b9 60 08 00 	mv r1,r11
  86120c:	f8 00 0d 5f 	calli 864788 <strlen>
  861210:	b5 61 18 00 	add r3,r11,r1
  861214:	5b 83 00 fc 	sw (sp+252),r3
  861218:	e3 ff fe bd 	bi 860d0c <main+0x7f0>
  86121c:	2b 82 00 74 	lw r2,(sp+116)
  861220:	b9 80 08 00 	mv r1,r12
  861224:	f8 00 0d 30 	calli 8646e4 <strcmp>
  861228:	44 20 00 fd 	be r1,r0,86161c <main+0x1100>
  86122c:	2b 82 00 78 	lw r2,(sp+120)
  861230:	b9 80 08 00 	mv r1,r12
  861234:	f8 00 0d 2c 	calli 8646e4 <strcmp>
  861238:	44 20 00 f8 	be r1,r0,861618 <main+0x10fc>
  86123c:	2b 82 00 90 	lw r2,(sp+144)
  861240:	b9 80 08 00 	mv r1,r12
  861244:	f8 00 0d 28 	calli 8646e4 <strcmp>
  861248:	44 20 00 cc 	be r1,r0,861578 <main+0x105c>
  86124c:	2b 82 00 94 	lw r2,(sp+148)
  861250:	b9 80 08 00 	mv r1,r12
  861254:	f8 00 0d 24 	calli 8646e4 <strcmp>
  861258:	44 20 00 6f 	be r1,r0,861414 <main+0xef8>
  86125c:	2b 82 00 98 	lw r2,(sp+152)
  861260:	b9 80 08 00 	mv r1,r12
  861264:	f8 00 0d 20 	calli 8646e4 <strcmp>
  861268:	44 20 00 47 	be r1,r0,861384 <main+0xe68>
  86126c:	2b 82 00 9c 	lw r2,(sp+156)
  861270:	b9 80 08 00 	mv r1,r12
  861274:	f8 00 0d 1c 	calli 8646e4 <strcmp>
  861278:	5c 20 00 37 	bne r1,r0,861354 <main+0xe38>
  86127c:	37 81 00 fc 	addi r1,sp,252
  861280:	fb ff fc 8e 	calli 8604b8 <get_token>
  861284:	10 23 00 00 	lb r3,(r1+0)
  861288:	44 60 00 2e 	be r3,r0,861340 <main+0xe24>
  86128c:	fb ff fc 09 	calli 8602b0 <parse_csr>
  861290:	44 20 00 27 	be r1,r0,86132c <main+0xe10>
  861294:	34 23 ff ff 	addi r3,r1,-1
  861298:	34 04 00 0b 	mvi r4,11
  86129c:	54 64 00 1f 	bgu r3,r4,861318 <main+0xdfc>
  8612a0:	2b 82 00 b4 	lw r2,(sp+180)
  8612a4:	3c 63 00 02 	sli r3,r3,2
  8612a8:	b4 43 18 00 	add r3,r2,r3
  8612ac:	28 63 00 00 	lw r3,(r3+0)
  8612b0:	c0 60 00 00 	b r3
  8612b4:	f8 00 09 35 	calli 863788 <serialboot>
  8612b8:	e3 ff fc c5 	bi 8605cc <main+0xb0>
  8612bc:	91 e0 20 00 	rcsr r4,JRX
  8612c0:	78 03 00 86 	mvhi r3,0x86
  8612c4:	b8 60 08 00 	mv r1,r3
  8612c8:	b8 80 10 00 	mv r2,r4
  8612cc:	38 21 e0 84 	ori r1,r1,0xe084
  8612d0:	f8 00 10 9b 	calli 86553c <printf>
  8612d4:	e3 ff fd 50 	bi 860814 <main+0x2f8>
  8612d8:	91 c0 20 00 	rcsr r4,JTX
  8612dc:	e3 ff ff f9 	bi 8612c0 <main+0xda4>
  8612e0:	91 20 20 00 	rcsr r4,DEBA
  8612e4:	e3 ff ff f7 	bi 8612c0 <main+0xda4>
  8612e8:	90 e0 20 00 	rcsr r4,EBA
  8612ec:	e3 ff ff f5 	bi 8612c0 <main+0xda4>
  8612f0:	90 c0 20 00 	rcsr r4,CFG
  8612f4:	e3 ff ff f3 	bi 8612c0 <main+0xda4>
  8612f8:	90 a0 20 00 	rcsr r4,CC
  8612fc:	e3 ff ff f1 	bi 8612c0 <main+0xda4>
  861300:	90 40 20 00 	rcsr r4,IP
  861304:	e3 ff ff ef 	bi 8612c0 <main+0xda4>
  861308:	90 20 20 00 	rcsr r4,IM
  86130c:	e3 ff ff ed 	bi 8612c0 <main+0xda4>
  861310:	90 00 20 00 	rcsr r4,IE
  861314:	e3 ff ff eb 	bi 8612c0 <main+0xda4>
  861318:	78 03 00 86 	mvhi r3,0x86
  86131c:	b8 60 08 00 	mv r1,r3
  861320:	38 21 e0 74 	ori r1,r1,0xe074
  861324:	f8 00 10 86 	calli 86553c <printf>
  861328:	e3 ff fd 3b 	bi 860814 <main+0x2f8>
  86132c:	78 03 00 86 	mvhi r3,0x86
  861330:	b8 60 08 00 	mv r1,r3
  861334:	38 21 e0 64 	ori r1,r1,0xe064
  861338:	f8 00 10 81 	calli 86553c <printf>
  86133c:	e3 ff fd 36 	bi 860814 <main+0x2f8>
  861340:	78 03 00 86 	mvhi r3,0x86
  861344:	b8 60 08 00 	mv r1,r3
  861348:	38 21 e0 58 	ori r1,r1,0xe058
  86134c:	f8 00 10 7c 	calli 86553c <printf>
  861350:	e3 ff fd 31 	bi 860814 <main+0x2f8>
  861354:	2b 82 00 a0 	lw r2,(sp+160)
  861358:	b9 80 08 00 	mv r1,r12
  86135c:	f8 00 0c e2 	calli 8646e4 <strcmp>
  861360:	b8 20 68 00 	mv r13,r1
  861364:	44 20 00 0a 	be r1,r0,86138c <main+0xe70>
  861368:	2b 82 00 a4 	lw r2,(sp+164)
  86136c:	b9 80 08 00 	mv r1,r12
  861370:	f8 00 0c dd 	calli 8646e4 <strcmp>
  861374:	44 20 fd 28 	be r1,r0,860814 <main+0x2f8>
  861378:	2b 81 00 a8 	lw r1,(sp+168)
  86137c:	f8 00 10 70 	calli 86553c <printf>
  861380:	e3 ff fd 25 	bi 860814 <main+0x2f8>
  861384:	fb ff fb 9a 	calli 8601ec <print_lcd>
  861388:	e3 ff fd 23 	bi 860814 <main+0x2f8>
  86138c:	37 8b 00 fc 	addi r11,sp,252
  861390:	b9 60 08 00 	mv r1,r11
  861394:	fb ff fc 49 	calli 8604b8 <get_token>
  861398:	b8 20 60 00 	mv r12,r1
  86139c:	b9 60 08 00 	mv r1,r11
  8613a0:	fb ff fc 46 	calli 8604b8 <get_token>
  8613a4:	11 83 00 00 	lb r3,(r12+0)
  8613a8:	b8 20 58 00 	mv r11,r1
  8613ac:	44 6d 00 03 	be r3,r13,8613b8 <main+0xe9c>
  8613b0:	10 23 00 00 	lb r3,(r1+0)
  8613b4:	5c 60 00 04 	bne r3,r0,8613c4 <main+0xea8>
  8613b8:	2b 81 00 ac 	lw r1,(sp+172)
  8613bc:	f8 00 10 60 	calli 86553c <printf>
  8613c0:	e3 ff fd 15 	bi 860814 <main+0x2f8>
  8613c4:	b9 80 08 00 	mv r1,r12
  8613c8:	fb ff fb ba 	calli 8602b0 <parse_csr>
  8613cc:	b8 20 60 00 	mv r12,r1
  8613d0:	44 20 ff d7 	be r1,r0,86132c <main+0xe10>
  8613d4:	34 03 00 00 	mvi r3,0
  8613d8:	b9 60 08 00 	mv r1,r11
  8613dc:	37 82 00 f8 	addi r2,sp,248
  8613e0:	f8 00 0d d7 	calli 864b3c <strtoul>
  8613e4:	2b 83 00 f8 	lw r3,(sp+248)
  8613e8:	b8 20 28 00 	mv r5,r1
  8613ec:	10 63 00 00 	lb r3,(r3+0)
  8613f0:	5c 60 ff 33 	bne r3,r0,8610bc <main+0xba0>
  8613f4:	35 83 ff ff 	addi r3,r12,-1
  8613f8:	34 04 00 13 	mvi r4,19
  8613fc:	54 64 00 82 	bgu r3,r4,861604 <main+0x10e8>
  861400:	2b 81 00 b0 	lw r1,(sp+176)
  861404:	3c 63 00 02 	sli r3,r3,2
  861408:	b4 23 18 00 	add r3,r1,r3
  86140c:	28 63 00 00 	lw r3,(r3+0)
  861410:	c0 60 00 00 	b r3
  861414:	78 03 00 86 	mvhi r3,0x86
  861418:	b8 60 08 00 	mv r1,r3
  86141c:	38 21 dd 34 	ori r1,r1,0xdd34
  861420:	f8 00 10 02 	calli 865428 <puts>
  861424:	78 03 00 86 	mvhi r3,0x86
  861428:	b8 60 08 00 	mv r1,r3
  86142c:	38 21 dd 54 	ori r1,r1,0xdd54
  861430:	f8 00 0f fe 	calli 865428 <puts>
  861434:	78 03 00 86 	mvhi r3,0x86
  861438:	b8 60 08 00 	mv r1,r3
  86143c:	38 21 dd 80 	ori r1,r1,0xdd80
  861440:	f8 00 0f fa 	calli 865428 <puts>
  861444:	78 03 00 86 	mvhi r3,0x86
  861448:	b8 60 08 00 	mv r1,r3
  86144c:	38 21 dd 94 	ori r1,r1,0xdd94
  861450:	f8 00 0f f6 	calli 865428 <puts>
  861454:	78 03 00 86 	mvhi r3,0x86
  861458:	b8 60 08 00 	mv r1,r3
  86145c:	38 21 dd b8 	ori r1,r1,0xddb8
  861460:	f8 00 0f f2 	calli 865428 <puts>
  861464:	78 03 00 86 	mvhi r3,0x86
  861468:	b8 60 08 00 	mv r1,r3
  86146c:	38 21 dd dc 	ori r1,r1,0xdddc
  861470:	f8 00 0f ee 	calli 865428 <puts>
  861474:	78 03 00 86 	mvhi r3,0x86
  861478:	b8 60 08 00 	mv r1,r3
  86147c:	38 21 dd fc 	ori r1,r1,0xddfc
  861480:	f8 00 0f ea 	calli 865428 <puts>
  861484:	78 03 00 86 	mvhi r3,0x86
  861488:	b8 60 08 00 	mv r1,r3
  86148c:	38 21 de 20 	ori r1,r1,0xde20
  861490:	f8 00 0f e6 	calli 865428 <puts>
  861494:	78 03 00 86 	mvhi r3,0x86
  861498:	b8 60 08 00 	mv r1,r3
  86149c:	38 21 de 40 	ori r1,r1,0xde40
  8614a0:	f8 00 0f e2 	calli 865428 <puts>
  8614a4:	78 03 00 86 	mvhi r3,0x86
  8614a8:	b8 60 08 00 	mv r1,r3
  8614ac:	38 21 de 7c 	ori r1,r1,0xde7c
  8614b0:	f8 00 0f de 	calli 865428 <puts>
  8614b4:	78 03 00 86 	mvhi r3,0x86
  8614b8:	b8 60 08 00 	mv r1,r3
  8614bc:	38 21 de 9c 	ori r1,r1,0xde9c
  8614c0:	f8 00 0f da 	calli 865428 <puts>
  8614c4:	78 03 00 86 	mvhi r3,0x86
  8614c8:	b8 60 08 00 	mv r1,r3
  8614cc:	38 21 de c0 	ori r1,r1,0xdec0
  8614d0:	f8 00 0f d6 	calli 865428 <puts>
  8614d4:	78 03 00 86 	mvhi r3,0x86
  8614d8:	b8 60 08 00 	mv r1,r3
  8614dc:	38 21 de ec 	ori r1,r1,0xdeec
  8614e0:	f8 00 0f d2 	calli 865428 <puts>
  8614e4:	78 03 00 86 	mvhi r3,0x86
  8614e8:	b8 60 08 00 	mv r1,r3
  8614ec:	38 21 df 1c 	ori r1,r1,0xdf1c
  8614f0:	f8 00 0f ce 	calli 865428 <puts>
  8614f4:	78 03 00 86 	mvhi r3,0x86
  8614f8:	b8 60 08 00 	mv r1,r3
  8614fc:	38 21 df 38 	ori r1,r1,0xdf38
  861500:	f8 00 0f ca 	calli 865428 <puts>
  861504:	78 03 00 86 	mvhi r3,0x86
  861508:	b8 60 08 00 	mv r1,r3
  86150c:	38 21 df 54 	ori r1,r1,0xdf54
  861510:	f8 00 0f c6 	calli 865428 <puts>
  861514:	78 03 00 86 	mvhi r3,0x86
  861518:	b8 60 08 00 	mv r1,r3
  86151c:	38 21 df 7c 	ori r1,r1,0xdf7c
  861520:	f8 00 0f c2 	calli 865428 <puts>
  861524:	78 03 00 86 	mvhi r3,0x86
  861528:	b8 60 08 00 	mv r1,r3
  86152c:	38 21 df 9c 	ori r1,r1,0xdf9c
  861530:	f8 00 0f be 	calli 865428 <puts>
  861534:	78 03 00 86 	mvhi r3,0x86
  861538:	b8 60 08 00 	mv r1,r3
  86153c:	38 21 df bc 	ori r1,r1,0xdfbc
  861540:	f8 00 0f ba 	calli 865428 <puts>
  861544:	78 03 00 86 	mvhi r3,0x86
  861548:	b8 60 08 00 	mv r1,r3
  86154c:	38 21 df e0 	ori r1,r1,0xdfe0
  861550:	f8 00 0f b6 	calli 865428 <puts>
  861554:	78 03 00 86 	mvhi r3,0x86
  861558:	b8 60 08 00 	mv r1,r3
  86155c:	38 21 e0 00 	ori r1,r1,0xe000
  861560:	f8 00 0f b2 	calli 865428 <puts>
  861564:	78 03 00 86 	mvhi r3,0x86
  861568:	b8 60 08 00 	mv r1,r3
  86156c:	38 21 e0 1c 	ori r1,r1,0xe01c
  861570:	f8 00 0f ae 	calli 865428 <puts>
  861574:	e3 ff fc a8 	bi 860814 <main+0x2f8>
  861578:	f8 00 13 92 	calli 8663c0 <reconf>
  86157c:	d3 65 00 00 	wcsr WP3,r5
  861580:	e3 ff fc a5 	bi 860814 <main+0x2f8>
  861584:	d3 45 00 00 	wcsr WP2,r5
  861588:	e3 ff fc a3 	bi 860814 <main+0x2f8>
  86158c:	d3 25 00 00 	wcsr WP1,r5
  861590:	e3 ff fc a1 	bi 860814 <main+0x2f8>
  861594:	d3 05 00 00 	wcsr WP0,r5
  861598:	e3 ff fc 9f 	bi 860814 <main+0x2f8>
  86159c:	d2 65 00 00 	wcsr BP3,r5
  8615a0:	e3 ff fc 9d 	bi 860814 <main+0x2f8>
  8615a4:	d2 45 00 00 	wcsr BP2,r5
  8615a8:	e3 ff fc 9b 	bi 860814 <main+0x2f8>
  8615ac:	d2 25 00 00 	wcsr BP1,r5
  8615b0:	e3 ff fc 99 	bi 860814 <main+0x2f8>
  8615b4:	d2 05 00 00 	wcsr BP0,r5
  8615b8:	e3 ff fc 97 	bi 860814 <main+0x2f8>
  8615bc:	d1 e5 00 00 	wcsr JRX,r5
  8615c0:	e3 ff fc 95 	bi 860814 <main+0x2f8>
  8615c4:	d1 c5 00 00 	wcsr JTX,r5
  8615c8:	e3 ff fc 93 	bi 860814 <main+0x2f8>
  8615cc:	d1 25 00 00 	wcsr DEBA,r5
  8615d0:	e3 ff fc 91 	bi 860814 <main+0x2f8>
  8615d4:	d0 85 00 00 	wcsr DCC,r5
  8615d8:	e3 ff fc 8f 	bi 860814 <main+0x2f8>
  8615dc:	d0 e5 00 00 	wcsr EBA,r5
  8615e0:	e3 ff fc 8d 	bi 860814 <main+0x2f8>
  8615e4:	d0 85 00 00 	wcsr DCC,r5
  8615e8:	e3 ff fc 8b 	bi 860814 <main+0x2f8>
  8615ec:	d0 65 00 00 	wcsr ICC,r5
  8615f0:	e3 ff fc 89 	bi 860814 <main+0x2f8>
  8615f4:	d0 25 00 00 	wcsr IM,r5
  8615f8:	e3 ff fc 87 	bi 860814 <main+0x2f8>
  8615fc:	d0 05 00 00 	wcsr IE,r5
  861600:	e3 ff fc 85 	bi 860814 <main+0x2f8>
  861604:	78 03 00 86 	mvhi r3,0x86
  861608:	b8 60 08 00 	mv r1,r3
  86160c:	38 21 e0 ac 	ori r1,r1,0xe0ac
  861610:	f8 00 0f cb 	calli 86553c <printf>
  861614:	e3 ff fc 80 	bi 860814 <main+0x2f8>
  861618:	f8 00 13 5d 	calli 86638c <reboot>
  86161c:	78 03 00 86 	mvhi r3,0x86
  861620:	b8 60 08 00 	mv r1,r3
  861624:	38 21 dd 14 	ori r1,r1,0xdd14
  861628:	f8 00 0f 80 	calli 865428 <puts>
  86162c:	e3 ff fc 7a 	bi 860814 <main+0x2f8>
  861630:	78 03 00 86 	mvhi r3,0x86
  861634:	b8 60 08 00 	mv r1,r3
  861638:	38 21 dc b8 	ori r1,r1,0xdcb8
  86163c:	f8 00 0f c0 	calli 86553c <printf>
  861640:	e3 ff fc 75 	bi 860814 <main+0x2f8>
  861644:	37 8d 00 f8 	addi r13,sp,248
  861648:	b9 80 08 00 	mv r1,r12
  86164c:	34 03 00 00 	mvi r3,0
  861650:	b9 a0 10 00 	mv r2,r13
  861654:	f8 00 0d 3a 	calli 864b3c <strtoul>
  861658:	2b 83 00 f8 	lw r3,(sp+248)
  86165c:	b8 20 60 00 	mv r12,r1
  861660:	10 6b 00 00 	lb r11,(r3+0)
  861664:	5d 60 fd 92 	bne r11,r0,860cac <main+0x790>
  861668:	34 03 00 00 	mvi r3,0
  86166c:	b9 c0 08 00 	mv r1,r14
  861670:	b9 a0 10 00 	mv r2,r13
  861674:	f8 00 0d 32 	calli 864b3c <strtoul>
  861678:	2b 84 00 f8 	lw r4,(sp+248)
  86167c:	b8 20 18 00 	mv r3,r1
  861680:	10 84 00 00 	lb r4,(r4+0)
  861684:	5c 8b fe 8e 	bne r4,r11,8610bc <main+0xba0>
  861688:	78 04 40 66 	mvhi r4,0x4066
  86168c:	38 84 16 6c 	ori r4,r4,0x166c
  861690:	28 84 00 00 	lw r4,(r4+0)
  861694:	b9 80 10 00 	mv r2,r12
  861698:	28 81 00 28 	lw r1,(r4+40)
  86169c:	f8 00 28 df 	calli 86ba18 <mdio_write>
  8616a0:	e3 ff fc 5d 	bi 860814 <main+0x2f8>
  8616a4:	2b 8b 00 fc 	lw r11,(sp+252)
  8616a8:	b9 60 08 00 	mv r1,r11
  8616ac:	f8 00 0c 37 	calli 864788 <strlen>
  8616b0:	b5 61 18 00 	add r3,r11,r1
  8616b4:	5b 83 00 fc 	sw (sp+252),r3
  8616b8:	e3 ff fd db 	bi 860e24 <main+0x908>
  8616bc:	78 03 40 66 	mvhi r3,0x4066
  8616c0:	38 63 16 6c 	ori r3,r3,0x166c
  8616c4:	28 63 00 00 	lw r3,(r3+0)
  8616c8:	b8 20 10 00 	mv r2,r1
  8616cc:	28 61 00 28 	lw r1,(r3+40)
  8616d0:	f8 00 2a 5b 	calli 86c03c <mdio_read>
  8616d4:	78 03 00 86 	mvhi r3,0x86
  8616d8:	b8 20 20 00 	mv r4,r1
  8616dc:	b8 60 08 00 	mv r1,r3
  8616e0:	b8 80 10 00 	mv r2,r4
  8616e4:	38 21 dc e0 	ori r1,r1,0xdce0
  8616e8:	f8 00 0f 95 	calli 86553c <printf>
  8616ec:	e3 ff fc 4a 	bi 860814 <main+0x2f8>
  8616f0:	2b 8c 00 fc 	lw r12,(sp+252)
  8616f4:	b9 80 08 00 	mv r1,r12
  8616f8:	f8 00 0c 24 	calli 864788 <strlen>
  8616fc:	b5 81 18 00 	add r3,r12,r1
  861700:	5b 83 00 fc 	sw (sp+252),r3
  861704:	e3 ff fd c1 	bi 860e08 <main+0x8ec>
  861708:	2b 8d 00 fc 	lw r13,(sp+252)
  86170c:	b9 a0 08 00 	mv r1,r13
  861710:	f8 00 0c 1e 	calli 864788 <strlen>
  861714:	b5 a1 18 00 	add r3,r13,r1
  861718:	5b 83 00 fc 	sw (sp+252),r3
  86171c:	e3 ff fd b3 	bi 860de8 <main+0x8cc>

00861720 <nofill>:
  861720:	34 01 ff ff 	mvi r1,-1
  861724:	c3 a0 00 00 	ret

00861728 <unlzma>:
  861728:	37 9c ff 4c 	addi sp,sp,-180
  86172c:	5b 9b 00 08 	sw (sp+8),fp
  861730:	34 1b 00 b4 	mvi fp,180
  861734:	b7 7c d8 00 	add fp,fp,sp
  861738:	5b 8b 00 44 	sw (sp+68),r11
  86173c:	5b 8c 00 40 	sw (sp+64),r12
  861740:	5b 8d 00 3c 	sw (sp+60),r13
  861744:	5b 8e 00 38 	sw (sp+56),r14
  861748:	5b 8f 00 34 	sw (sp+52),r15
  86174c:	5b 90 00 30 	sw (sp+48),r16
  861750:	5b 91 00 2c 	sw (sp+44),r17
  861754:	5b 92 00 28 	sw (sp+40),r18
  861758:	5b 93 00 24 	sw (sp+36),r19
  86175c:	5b 94 00 20 	sw (sp+32),r20
  861760:	5b 95 00 1c 	sw (sp+28),r21
  861764:	5b 96 00 18 	sw (sp+24),r22
  861768:	5b 97 00 14 	sw (sp+20),r23
  86176c:	5b 98 00 10 	sw (sp+16),r24
  861770:	5b 99 00 0c 	sw (sp+12),r25
  861774:	5b 9d 00 04 	sw (sp+4),ra
  861778:	5b 61 ff a0 	sw (fp+-96),r1
  86177c:	5b 64 ff b4 	sw (fp+-76),r4
  861780:	5b 66 ff c4 	sw (fp+-60),r6
  861784:	5b 67 ff ac 	sw (fp+-84),r7
  861788:	5b 7c ff a8 	sw (fp+-88),sp
  86178c:	44 20 00 f0 	be r1,r0,861b4c <unlzma+0x424>
  861790:	5b 63 ff a4 	sw (fp+-92),r3
  861794:	44 60 00 ea 	be r3,r0,861b3c <unlzma+0x414>
  861798:	2b 61 ff a0 	lw r1,(fp+-96)
  86179c:	b8 40 20 00 	mv r4,r2
  8617a0:	b4 22 18 00 	add r3,r1,r2
  8617a4:	54 61 00 0a 	bgu r3,r1,8617cc <unlzma+0xa4>
  8617a8:	2b 63 ff a4 	lw r3,(fp+-92)
  8617ac:	5b 65 ff 98 	sw (fp+-104),r5
  8617b0:	78 02 00 01 	mvhi r2,0x1
  8617b4:	d8 60 00 00 	call r3
  8617b8:	b8 20 20 00 	mv r4,r1
  8617bc:	2b 65 ff 98 	lw r5,(fp+-104)
  8617c0:	4c 01 07 8c 	bge r0,r1,8635f0 <unlzma+0x1ec8>
  8617c4:	2b 61 ff a0 	lw r1,(fp+-96)
  8617c8:	b4 24 18 00 	add r3,r1,r4
  8617cc:	2b 61 ff a0 	lw r1,(fp+-96)
  8617d0:	40 29 00 00 	lbu r9,(r1+0)
  8617d4:	34 35 00 01 	addi r21,r1,1
  8617d8:	33 69 ff f4 	sb (fp+-12),r9
  8617dc:	54 75 00 0b 	bgu r3,r21,861808 <unlzma+0xe0>
  8617e0:	2b 63 ff a4 	lw r3,(fp+-92)
  8617e4:	5b 65 ff 98 	sw (fp+-104),r5
  8617e8:	78 02 00 01 	mvhi r2,0x1
  8617ec:	d8 60 00 00 	call r3
  8617f0:	b8 20 20 00 	mv r4,r1
  8617f4:	2b 65 ff 98 	lw r5,(fp+-104)
  8617f8:	4c 01 07 74 	bge r0,r1,8635c8 <unlzma+0x1ea0>
  8617fc:	2b 61 ff a0 	lw r1,(fp+-96)
  861800:	b4 24 18 00 	add r3,r1,r4
  861804:	b8 20 a8 00 	mv r21,r1
  861808:	42 a9 00 00 	lbu r9,(r21+0)
  86180c:	37 6b ff f4 	addi r11,fp,-12
  861810:	36 b5 00 01 	addi r21,r21,1
  861814:	31 69 00 01 	sb (r11+1),r9
  861818:	54 75 00 0c 	bgu r3,r21,861848 <unlzma+0x120>
  86181c:	2b 61 ff a0 	lw r1,(fp+-96)
  861820:	2b 63 ff a4 	lw r3,(fp+-92)
  861824:	5b 65 ff 98 	sw (fp+-104),r5
  861828:	78 02 00 01 	mvhi r2,0x1
  86182c:	d8 60 00 00 	call r3
  861830:	b8 20 20 00 	mv r4,r1
  861834:	2b 65 ff 98 	lw r5,(fp+-104)
  861838:	4c 01 07 50 	bge r0,r1,863578 <unlzma+0x1e50>
  86183c:	2b 61 ff a0 	lw r1,(fp+-96)
  861840:	b4 24 18 00 	add r3,r1,r4
  861844:	b8 20 a8 00 	mv r21,r1
  861848:	42 a9 00 00 	lbu r9,(r21+0)
  86184c:	36 b5 00 01 	addi r21,r21,1
  861850:	31 69 00 02 	sb (r11+2),r9
  861854:	54 75 00 0c 	bgu r3,r21,861884 <unlzma+0x15c>
  861858:	2b 61 ff a0 	lw r1,(fp+-96)
  86185c:	2b 63 ff a4 	lw r3,(fp+-92)
  861860:	5b 65 ff 98 	sw (fp+-104),r5
  861864:	78 02 00 01 	mvhi r2,0x1
  861868:	d8 60 00 00 	call r3
  86186c:	b8 20 20 00 	mv r4,r1
  861870:	2b 65 ff 98 	lw r5,(fp+-104)
  861874:	4c 01 07 4b 	bge r0,r1,8635a0 <unlzma+0x1e78>
  861878:	2b 61 ff a0 	lw r1,(fp+-96)
  86187c:	b4 24 18 00 	add r3,r1,r4
  861880:	b8 20 a8 00 	mv r21,r1
  861884:	42 a9 00 00 	lbu r9,(r21+0)
  861888:	36 b5 00 01 	addi r21,r21,1
  86188c:	31 69 00 03 	sb (r11+3),r9
  861890:	54 75 00 0c 	bgu r3,r21,8618c0 <unlzma+0x198>
  861894:	2b 61 ff a0 	lw r1,(fp+-96)
  861898:	2b 63 ff a4 	lw r3,(fp+-92)
  86189c:	5b 65 ff 98 	sw (fp+-104),r5
  8618a0:	78 02 00 01 	mvhi r2,0x1
  8618a4:	d8 60 00 00 	call r3
  8618a8:	b8 20 20 00 	mv r4,r1
  8618ac:	2b 65 ff 98 	lw r5,(fp+-104)
  8618b0:	4c 01 07 0a 	bge r0,r1,8634d8 <unlzma+0x1db0>
  8618b4:	2b 61 ff a0 	lw r1,(fp+-96)
  8618b8:	b4 24 18 00 	add r3,r1,r4
  8618bc:	b8 20 a8 00 	mv r21,r1
  8618c0:	42 a9 00 00 	lbu r9,(r21+0)
  8618c4:	36 b5 00 01 	addi r21,r21,1
  8618c8:	31 69 00 04 	sb (r11+4),r9
  8618cc:	54 75 00 0c 	bgu r3,r21,8618fc <unlzma+0x1d4>
  8618d0:	2b 61 ff a0 	lw r1,(fp+-96)
  8618d4:	2b 63 ff a4 	lw r3,(fp+-92)
  8618d8:	5b 65 ff 98 	sw (fp+-104),r5
  8618dc:	78 02 00 01 	mvhi r2,0x1
  8618e0:	d8 60 00 00 	call r3
  8618e4:	b8 20 20 00 	mv r4,r1
  8618e8:	2b 65 ff 98 	lw r5,(fp+-104)
  8618ec:	4c 01 07 05 	bge r0,r1,863500 <unlzma+0x1dd8>
  8618f0:	2b 61 ff a0 	lw r1,(fp+-96)
  8618f4:	b4 24 18 00 	add r3,r1,r4
  8618f8:	b8 20 a8 00 	mv r21,r1
  8618fc:	42 a9 00 00 	lbu r9,(r21+0)
  861900:	36 b5 00 01 	addi r21,r21,1
  861904:	31 69 00 05 	sb (r11+5),r9
  861908:	54 75 00 0c 	bgu r3,r21,861938 <unlzma+0x210>
  86190c:	2b 61 ff a0 	lw r1,(fp+-96)
  861910:	2b 63 ff a4 	lw r3,(fp+-92)
  861914:	5b 65 ff 98 	sw (fp+-104),r5
  861918:	78 02 00 01 	mvhi r2,0x1
  86191c:	d8 60 00 00 	call r3
  861920:	b8 20 20 00 	mv r4,r1
  861924:	2b 65 ff 98 	lw r5,(fp+-104)
  861928:	4c 01 07 00 	bge r0,r1,863528 <unlzma+0x1e00>
  86192c:	2b 61 ff a0 	lw r1,(fp+-96)
  861930:	b4 24 18 00 	add r3,r1,r4
  861934:	b8 20 a8 00 	mv r21,r1
  861938:	42 a9 00 00 	lbu r9,(r21+0)
  86193c:	36 b5 00 01 	addi r21,r21,1
  861940:	31 69 00 06 	sb (r11+6),r9
  861944:	54 75 00 0c 	bgu r3,r21,861974 <unlzma+0x24c>
  861948:	2b 61 ff a0 	lw r1,(fp+-96)
  86194c:	2b 63 ff a4 	lw r3,(fp+-92)
  861950:	5b 65 ff 98 	sw (fp+-104),r5
  861954:	78 02 00 01 	mvhi r2,0x1
  861958:	d8 60 00 00 	call r3
  86195c:	b8 20 20 00 	mv r4,r1
  861960:	2b 65 ff 98 	lw r5,(fp+-104)
  861964:	4c 01 06 fb 	bge r0,r1,863550 <unlzma+0x1e28>
  861968:	2b 61 ff a0 	lw r1,(fp+-96)
  86196c:	b4 24 18 00 	add r3,r1,r4
  861970:	b8 20 a8 00 	mv r21,r1
  861974:	42 a9 00 00 	lbu r9,(r21+0)
  861978:	36 b5 00 01 	addi r21,r21,1
  86197c:	31 69 00 07 	sb (r11+7),r9
  861980:	54 75 00 0c 	bgu r3,r21,8619b0 <unlzma+0x288>
  861984:	2b 61 ff a0 	lw r1,(fp+-96)
  861988:	2b 63 ff a4 	lw r3,(fp+-92)
  86198c:	5b 65 ff 98 	sw (fp+-104),r5
  861990:	78 02 00 01 	mvhi r2,0x1
  861994:	d8 60 00 00 	call r3
  861998:	b8 20 20 00 	mv r4,r1
  86199c:	2b 65 ff 98 	lw r5,(fp+-104)
  8619a0:	4c 01 06 a6 	bge r0,r1,863438 <unlzma+0x1d10>
  8619a4:	2b 61 ff a0 	lw r1,(fp+-96)
  8619a8:	b4 24 18 00 	add r3,r1,r4
  8619ac:	b8 20 a8 00 	mv r21,r1
  8619b0:	42 a9 00 00 	lbu r9,(r21+0)
  8619b4:	36 b5 00 01 	addi r21,r21,1
  8619b8:	31 69 00 08 	sb (r11+8),r9
  8619bc:	54 75 00 0c 	bgu r3,r21,8619ec <unlzma+0x2c4>
  8619c0:	2b 61 ff a0 	lw r1,(fp+-96)
  8619c4:	2b 63 ff a4 	lw r3,(fp+-92)
  8619c8:	5b 65 ff 98 	sw (fp+-104),r5
  8619cc:	78 02 00 01 	mvhi r2,0x1
  8619d0:	d8 60 00 00 	call r3
  8619d4:	b8 20 20 00 	mv r4,r1
  8619d8:	2b 65 ff 98 	lw r5,(fp+-104)
  8619dc:	4c 01 06 a1 	bge r0,r1,863460 <unlzma+0x1d38>
  8619e0:	2b 61 ff a0 	lw r1,(fp+-96)
  8619e4:	b4 24 18 00 	add r3,r1,r4
  8619e8:	b8 20 a8 00 	mv r21,r1
  8619ec:	42 a9 00 00 	lbu r9,(r21+0)
  8619f0:	36 b5 00 01 	addi r21,r21,1
  8619f4:	31 69 00 09 	sb (r11+9),r9
  8619f8:	54 75 00 0c 	bgu r3,r21,861a28 <unlzma+0x300>
  8619fc:	2b 61 ff a0 	lw r1,(fp+-96)
  861a00:	2b 63 ff a4 	lw r3,(fp+-92)
  861a04:	5b 65 ff 98 	sw (fp+-104),r5
  861a08:	78 02 00 01 	mvhi r2,0x1
  861a0c:	d8 60 00 00 	call r3
  861a10:	b8 20 20 00 	mv r4,r1
  861a14:	2b 65 ff 98 	lw r5,(fp+-104)
  861a18:	4c 01 06 9c 	bge r0,r1,863488 <unlzma+0x1d60>
  861a1c:	2b 61 ff a0 	lw r1,(fp+-96)
  861a20:	b4 24 18 00 	add r3,r1,r4
  861a24:	b8 20 a8 00 	mv r21,r1
  861a28:	42 a9 00 00 	lbu r9,(r21+0)
  861a2c:	36 b5 00 01 	addi r21,r21,1
  861a30:	31 69 00 0a 	sb (r11+10),r9
  861a34:	54 75 00 0c 	bgu r3,r21,861a64 <unlzma+0x33c>
  861a38:	2b 61 ff a0 	lw r1,(fp+-96)
  861a3c:	2b 63 ff a4 	lw r3,(fp+-92)
  861a40:	5b 65 ff 98 	sw (fp+-104),r5
  861a44:	78 02 00 01 	mvhi r2,0x1
  861a48:	d8 60 00 00 	call r3
  861a4c:	b8 20 20 00 	mv r4,r1
  861a50:	2b 65 ff 98 	lw r5,(fp+-104)
  861a54:	4c 01 06 97 	bge r0,r1,8634b0 <unlzma+0x1d88>
  861a58:	2b 61 ff a0 	lw r1,(fp+-96)
  861a5c:	b4 24 18 00 	add r3,r1,r4
  861a60:	b8 20 a8 00 	mv r21,r1
  861a64:	42 a9 00 00 	lbu r9,(r21+0)
  861a68:	36 b5 00 01 	addi r21,r21,1
  861a6c:	31 69 00 0b 	sb (r11+11),r9
  861a70:	54 75 00 14 	bgu r3,r21,861ac0 <unlzma+0x398>
  861a74:	2b 61 ff a0 	lw r1,(fp+-96)
  861a78:	2b 63 ff a4 	lw r3,(fp+-92)
  861a7c:	5b 65 ff 98 	sw (fp+-104),r5
  861a80:	78 02 00 01 	mvhi r2,0x1
  861a84:	d8 60 00 00 	call r3
  861a88:	b8 20 20 00 	mv r4,r1
  861a8c:	2b 65 ff 98 	lw r5,(fp+-104)
  861a90:	48 20 00 09 	bg r1,r0,861ab4 <unlzma+0x38c>
  861a94:	78 09 00 86 	mvhi r9,0x86
  861a98:	2b 62 ff ac 	lw r2,(fp+-84)
  861a9c:	b9 20 08 00 	mv r1,r9
  861aa0:	5b 64 ff 94 	sw (fp+-108),r4
  861aa4:	38 21 e1 54 	ori r1,r1,0xe154
  861aa8:	d8 40 00 00 	call r2
  861aac:	2b 65 ff 98 	lw r5,(fp+-104)
  861ab0:	2b 64 ff 94 	lw r4,(fp+-108)
  861ab4:	2b 61 ff a0 	lw r1,(fp+-96)
  861ab8:	b4 24 18 00 	add r3,r1,r4
  861abc:	b8 20 a8 00 	mv r21,r1
  861ac0:	42 a9 00 00 	lbu r9,(r21+0)
  861ac4:	43 68 ff f4 	lbu r8,(fp+-12)
  861ac8:	36 b5 00 01 	addi r21,r21,1
  861acc:	31 69 00 0c 	sb (r11+12),r9
  861ad0:	34 09 00 e0 	mvi r9,224
  861ad4:	51 28 00 27 	bgeu r9,r8,861b70 <unlzma+0x448>
  861ad8:	2b 62 ff ac 	lw r2,(fp+-84)
  861adc:	78 01 00 86 	mvhi r1,0x86
  861ae0:	38 21 e1 64 	ori r1,r1,0xe164
  861ae4:	d8 40 00 00 	call r2
  861ae8:	34 01 ff ff 	mvi r1,-1
  861aec:	2b 7c ff a8 	lw sp,(fp+-88)
  861af0:	2b 9d 00 04 	lw ra,(sp+4)
  861af4:	2b 8b 00 44 	lw r11,(sp+68)
  861af8:	2b 8c 00 40 	lw r12,(sp+64)
  861afc:	2b 8d 00 3c 	lw r13,(sp+60)
  861b00:	2b 8e 00 38 	lw r14,(sp+56)
  861b04:	2b 8f 00 34 	lw r15,(sp+52)
  861b08:	2b 90 00 30 	lw r16,(sp+48)
  861b0c:	2b 91 00 2c 	lw r17,(sp+44)
  861b10:	2b 92 00 28 	lw r18,(sp+40)
  861b14:	2b 93 00 24 	lw r19,(sp+36)
  861b18:	2b 94 00 20 	lw r20,(sp+32)
  861b1c:	2b 95 00 1c 	lw r21,(sp+28)
  861b20:	2b 96 00 18 	lw r22,(sp+24)
  861b24:	2b 97 00 14 	lw r23,(sp+20)
  861b28:	2b 98 00 10 	lw r24,(sp+16)
  861b2c:	2b 99 00 0c 	lw r25,(sp+12)
  861b30:	2b 9b 00 08 	lw fp,(sp+8)
  861b34:	37 9c 00 b4 	addi sp,sp,180
  861b38:	c3 a0 00 00 	ret
  861b3c:	78 03 00 86 	mvhi r3,0x86
  861b40:	38 63 17 20 	ori r3,r3,0x1720
  861b44:	5b 63 ff a4 	sw (fp+-92),r3
  861b48:	e3 ff ff 14 	bi 861798 <unlzma+0x70>
  861b4c:	78 01 00 86 	mvhi r1,0x86
  861b50:	38 21 e1 88 	ori r1,r1,0xe188
  861b54:	28 28 00 00 	lw r8,(r1+0)
  861b58:	b7 88 e0 00 	add sp,sp,r8
  861b5c:	37 88 00 0b 	addi r8,sp,11
  861b60:	01 08 00 03 	srui r8,r8,3
  861b64:	3d 08 00 03 	sli r8,r8,3
  861b68:	5b 68 ff a0 	sw (fp+-96),r8
  861b6c:	e3 ff ff 09 	bi 861790 <unlzma+0x68>
  861b70:	b9 00 30 00 	mv r6,r8
  861b74:	5b 60 ff b8 	sw (fp+-72),r0
  861b78:	5b 60 ff b0 	sw (fp+-80),r0
  861b7c:	34 0b 00 08 	mvi r11,8
  861b80:	34 08 00 00 	mvi r8,0
  861b84:	4d 66 00 10 	bge r11,r6,861bc4 <unlzma+0x49c>
  861b88:	34 09 00 08 	mvi r9,8
  861b8c:	b8 c0 08 00 	mv r1,r6
  861b90:	34 21 ff f7 	addi r1,r1,-9
  861b94:	35 08 00 01 	addi r8,r8,1
  861b98:	48 29 ff fe 	bg r1,r9,861b90 <unlzma+0x468>
  861b9c:	34 0b 00 04 	mvi r11,4
  861ba0:	b8 20 30 00 	mv r6,r1
  861ba4:	34 09 00 00 	mvi r9,0
  861ba8:	34 0a 00 04 	mvi r10,4
  861bac:	49 0b 00 fa 	bg r8,r11,861f94 <unlzma+0x86c>
  861bb0:	34 0a 00 01 	mvi r10,1
  861bb4:	bd 48 50 00 	sl r10,r10,r8
  861bb8:	5b 60 ff b0 	sw (fp+-80),r0
  861bbc:	35 4a ff ff 	addi r10,r10,-1
  861bc0:	5b 6a ff b8 	sw (fp+-72),r10
  861bc4:	37 6a ff f9 	addi r10,fp,-7
  861bc8:	41 4e 00 07 	lbu r14,(r10+7)
  861bcc:	37 6b ff f5 	addi r11,fp,-11
  861bd0:	41 6c 00 03 	lbu r12,(r11+3)
  861bd4:	41 4d 00 06 	lbu r13,(r10+6)
  861bd8:	41 70 00 02 	lbu r16,(r11+2)
  861bdc:	3d ce 00 08 	sli r14,r14,8
  861be0:	3d 8c 00 08 	sli r12,r12,8
  861be4:	b9 cd 70 00 	or r14,r14,r13
  861be8:	41 4d 00 05 	lbu r13,(r10+5)
  861bec:	41 6f 00 01 	lbu r15,(r11+1)
  861bf0:	b9 90 60 00 	or r12,r12,r16
  861bf4:	3d cb 00 08 	sli r11,r14,8
  861bf8:	3d 8c 00 08 	sli r12,r12,8
  861bfc:	b9 6d 58 00 	or r11,r11,r13
  861c00:	41 4d 00 04 	lbu r13,(r10+4)
  861c04:	b9 8f 60 00 	or r12,r12,r15
  861c08:	01 ce 00 18 	srui r14,r14,24
  861c0c:	3d 6f 00 08 	sli r15,r11,8
  861c10:	43 70 ff f5 	lbu r16,(fp+-11)
  861c14:	b9 ed 68 00 	or r13,r15,r13
  861c18:	01 6b 00 18 	srui r11,r11,24
  861c1c:	41 4f 00 03 	lbu r15,(r10+3)
  861c20:	78 01 00 86 	mvhi r1,0x86
  861c24:	3d ca 00 08 	sli r10,r14,8
  861c28:	3d 8c 00 08 	sli r12,r12,8
  861c2c:	38 21 e1 8c 	ori r1,r1,0xe18c
  861c30:	28 29 00 00 	lw r9,(r1+0)
  861c34:	b9 6a 50 00 	or r10,r11,r10
  861c38:	2b 6b ff f8 	lw r11,(fp+-8)
  861c3c:	b9 90 60 00 	or r12,r12,r16
  861c40:	3d b0 00 08 	sli r16,r13,8
  861c44:	3d 8e 00 18 	sli r14,r12,24
  861c48:	ba 0f 78 00 	or r15,r16,r15
  861c4c:	01 ad 00 18 	srui r13,r13,24
  861c50:	a1 69 58 00 	and r11,r11,r9
  861c54:	3d 4a 00 08 	sli r10,r10,8
  861c58:	b9 6e 58 00 	or r11,r11,r14
  861c5c:	3d ee 00 08 	sli r14,r15,8
  861c60:	b9 aa 50 00 	or r10,r13,r10
  861c64:	21 6d 00 ff 	andi r13,r11,0xff
  861c68:	b9 cd 70 00 	or r14,r14,r13
  861c6c:	01 ef 00 18 	srui r15,r15,24
  861c70:	01 6d 00 08 	srui r13,r11,8
  861c74:	3d 4a 00 08 	sli r10,r10,8
  861c78:	3d d0 00 08 	sli r16,r14,8
  861c7c:	b9 ea 50 00 	or r10,r15,r10
  861c80:	21 ad 00 ff 	andi r13,r13,0xff
  861c84:	ba 0d 68 00 	or r13,r16,r13
  861c88:	01 ce 00 18 	srui r14,r14,24
  861c8c:	01 70 00 10 	srui r16,r11,16
  861c90:	3d 4a 00 08 	sli r10,r10,8
  861c94:	3d af 00 08 	sli r15,r13,8
  861c98:	b9 ca 50 00 	or r10,r14,r10
  861c9c:	2b 71 ff fc 	lw r17,(fp+-4)
  861ca0:	22 0e 00 ff 	andi r14,r16,0xff
  861ca4:	b9 ee b0 00 	or r22,r15,r14
  861ca8:	3d 4a 00 08 	sli r10,r10,8
  861cac:	01 ae 00 18 	srui r14,r13,24
  861cb0:	02 cf 00 08 	srui r15,r22,8
  861cb4:	78 0d ff 00 	mvhi r13,0xff00
  861cb8:	2b 74 ff f4 	lw r20,(fp+-12)
  861cbc:	2b 73 00 00 	lw r19,(fp+0)
  861cc0:	b9 ca 50 00 	or r10,r14,r10
  861cc4:	a2 2d 88 00 	and r17,r17,r13
  861cc8:	ba 2f 88 00 	or r17,r17,r15
  861ccc:	01 8e 00 08 	srui r14,r12,8
  861cd0:	3e d0 00 18 	sli r16,r22,24
  861cd4:	01 52 00 08 	srui r18,r10,8
  861cd8:	3d 4f 00 18 	sli r15,r10,24
  861cdc:	a2 8d a0 00 	and r20,r20,r13
  861ce0:	a2 69 98 00 	and r19,r19,r9
  861ce4:	a1 6d 58 00 	and r11,r11,r13
  861ce8:	a2 29 88 00 	and r17,r17,r9
  861cec:	ba 70 80 00 	or r16,r19,r16
  861cf0:	ba 8e 70 00 	or r14,r20,r14
  861cf4:	b9 72 58 00 	or r11,r11,r18
  861cf8:	ba 2f 78 00 	or r15,r17,r15
  861cfc:	5b 70 00 00 	sw (fp+0),r16
  861d00:	5b 6e ff f4 	sw (fp+-12),r14
  861d04:	5b 6b ff f8 	sw (fp+-8),r11
  861d08:	5b 6f ff fc 	sw (fp+-4),r15
  861d0c:	b9 40 80 00 	mv r16,r10
  861d10:	5d 80 00 08 	bne r12,r0,861d30 <unlzma+0x608>
  861d14:	78 0c 01 00 	mvhi r12,0x100
  861d18:	a1 69 58 00 	and r11,r11,r9
  861d1c:	b9 6c 58 00 	or r11,r11,r12
  861d20:	a1 cd 68 00 	and r13,r14,r13
  861d24:	5b 6d ff f4 	sw (fp+-12),r13
  861d28:	5b 6b ff f8 	sw (fp+-8),r11
  861d2c:	34 0c 00 01 	mvi r12,1
  861d30:	5b 65 ff bc 	sw (fp+-68),r5
  861d34:	44 a0 02 e5 	be r5,r0,8628c8 <unlzma+0x11a0>
  861d38:	b5 06 28 00 	add r5,r8,r6
  861d3c:	34 0b 03 00 	mvi r11,768
  861d40:	bd 65 58 00 	sl r11,r11,r5
  861d44:	35 6b 07 36 	addi r11,r11,1846
  861d48:	3d 65 00 01 	sli r5,r11,1
  861d4c:	34 a5 00 0a 	addi r5,r5,10
  861d50:	00 a5 00 02 	srui r5,r5,2
  861d54:	3c a5 00 02 	sli r5,r5,2
  861d58:	cb 85 e0 00 	sub sp,sp,r5
  861d5c:	37 85 00 0b 	addi r5,sp,11
  861d60:	00 a5 00 03 	srui r5,r5,3
  861d64:	3c a5 00 03 	sli r5,r5,3
  861d68:	5b 65 ff c8 	sw (fp+-56),r5
  861d6c:	4c 0b 00 17 	bge r0,r11,861dc8 <unlzma+0x6a0>
  861d70:	01 6d 00 01 	srui r13,r11,1
  861d74:	34 05 00 00 	mvi r5,0
  861d78:	3d ae 00 01 	sli r14,r13,1
  861d7c:	45 c0 00 0b 	be r14,r0,861da8 <unlzma+0x680>
  861d80:	78 02 00 86 	mvhi r2,0x86
  861d84:	38 42 e1 90 	ori r2,r2,0xe190
  861d88:	28 4c 00 00 	lw r12,(r2+0)
  861d8c:	2b 68 ff c8 	lw r8,(fp+-56)
  861d90:	59 0c 00 00 	sw (r8+0),r12
  861d94:	34 a5 00 01 	addi r5,r5,1
  861d98:	35 08 00 04 	addi r8,r8,4
  861d9c:	55 a5 ff fd 	bgu r13,r5,861d90 <unlzma+0x668>
  861da0:	b9 c0 28 00 	mv r5,r14
  861da4:	45 cb 00 09 	be r14,r11,861dc8 <unlzma+0x6a0>
  861da8:	2b 61 ff c8 	lw r1,(fp+-56)
  861dac:	3c ae 00 01 	sli r14,r5,1
  861db0:	34 0c 04 00 	mvi r12,1024
  861db4:	b4 2e 40 00 	add r8,r1,r14
  861db8:	0d 0c 00 00 	sh (r8+0),r12
  861dbc:	34 a5 00 01 	addi r5,r5,1
  861dc0:	35 08 00 02 	addi r8,r8,2
  861dc4:	49 65 ff fd 	bg r11,r5,861db8 <unlzma+0x690>
  861dc8:	54 75 00 0c 	bgu r3,r21,861df8 <unlzma+0x6d0>
  861dcc:	2b 61 ff a0 	lw r1,(fp+-96)
  861dd0:	2b 63 ff a4 	lw r3,(fp+-92)
  861dd4:	5b 66 ff 98 	sw (fp+-104),r6
  861dd8:	78 02 00 01 	mvhi r2,0x1
  861ddc:	d8 60 00 00 	call r3
  861de0:	b8 20 20 00 	mv r4,r1
  861de4:	2b 66 ff 98 	lw r6,(fp+-104)
  861de8:	4c 01 05 37 	bge r0,r1,8632c4 <unlzma+0x1b9c>
  861dec:	2b 61 ff a0 	lw r1,(fp+-96)
  861df0:	b4 24 18 00 	add r3,r1,r4
  861df4:	b8 20 a8 00 	mv r21,r1
  861df8:	36 ab 00 01 	addi r11,r21,1
  861dfc:	42 b2 00 00 	lbu r18,(r21+0)
  861e00:	54 6b 00 0c 	bgu r3,r11,861e30 <unlzma+0x708>
  861e04:	2b 61 ff a0 	lw r1,(fp+-96)
  861e08:	2b 63 ff a4 	lw r3,(fp+-92)
  861e0c:	5b 66 ff 98 	sw (fp+-104),r6
  861e10:	78 02 00 01 	mvhi r2,0x1
  861e14:	d8 60 00 00 	call r3
  861e18:	b8 20 20 00 	mv r4,r1
  861e1c:	2b 66 ff 98 	lw r6,(fp+-104)
  861e20:	4c 01 05 15 	bge r0,r1,863274 <unlzma+0x1b4c>
  861e24:	2b 61 ff a0 	lw r1,(fp+-96)
  861e28:	b4 24 18 00 	add r3,r1,r4
  861e2c:	b8 20 58 00 	mv r11,r1
  861e30:	41 71 00 00 	lbu r17,(r11+0)
  861e34:	3e 45 00 08 	sli r5,r18,8
  861e38:	35 6b 00 01 	addi r11,r11,1
  861e3c:	ba 25 88 00 	or r17,r17,r5
  861e40:	54 6b 00 0c 	bgu r3,r11,861e70 <unlzma+0x748>
  861e44:	2b 61 ff a0 	lw r1,(fp+-96)
  861e48:	2b 63 ff a4 	lw r3,(fp+-92)
  861e4c:	5b 66 ff 98 	sw (fp+-104),r6
  861e50:	78 02 00 01 	mvhi r2,0x1
  861e54:	d8 60 00 00 	call r3
  861e58:	b8 20 20 00 	mv r4,r1
  861e5c:	2b 66 ff 98 	lw r6,(fp+-104)
  861e60:	4c 01 05 0f 	bge r0,r1,86329c <unlzma+0x1b74>
  861e64:	2b 61 ff a0 	lw r1,(fp+-96)
  861e68:	b4 24 18 00 	add r3,r1,r4
  861e6c:	b8 20 58 00 	mv r11,r1
  861e70:	41 72 00 00 	lbu r18,(r11+0)
  861e74:	3e 25 00 08 	sli r5,r17,8
  861e78:	35 6b 00 01 	addi r11,r11,1
  861e7c:	ba 45 90 00 	or r18,r18,r5
  861e80:	54 6b 00 0c 	bgu r3,r11,861eb0 <unlzma+0x788>
  861e84:	2b 61 ff a0 	lw r1,(fp+-96)
  861e88:	2b 63 ff a4 	lw r3,(fp+-92)
  861e8c:	5b 66 ff 98 	sw (fp+-104),r6
  861e90:	78 02 00 01 	mvhi r2,0x1
  861e94:	d8 60 00 00 	call r3
  861e98:	b8 20 20 00 	mv r4,r1
  861e9c:	2b 66 ff 98 	lw r6,(fp+-104)
  861ea0:	4c 01 04 eb 	bge r0,r1,86324c <unlzma+0x1b24>
  861ea4:	2b 61 ff a0 	lw r1,(fp+-96)
  861ea8:	b4 24 18 00 	add r3,r1,r4
  861eac:	b8 20 58 00 	mv r11,r1
  861eb0:	41 71 00 00 	lbu r17,(r11+0)
  861eb4:	3e 45 00 08 	sli r5,r18,8
  861eb8:	35 6b 00 01 	addi r11,r11,1
  861ebc:	ba 25 88 00 	or r17,r17,r5
  861ec0:	51 63 03 c0 	bgeu r11,r3,862dc0 <unlzma+0x1698>
  861ec4:	2b 74 ff a0 	lw r20,(fp+-96)
  861ec8:	34 01 00 01 	mvi r1,1
  861ecc:	41 65 00 00 	lbu r5,(r11+0)
  861ed0:	78 02 00 86 	mvhi r2,0x86
  861ed4:	5b 61 ff cc 	sw (fp+-52),r1
  861ed8:	5b 61 ff e4 	sw (fp+-28),r1
  861edc:	5b 61 ff e0 	sw (fp+-32),r1
  861ee0:	5b 61 ff ec 	sw (fp+-20),r1
  861ee4:	78 01 00 86 	mvhi r1,0x86
  861ee8:	5b 62 ff d0 	sw (fp+-48),r2
  861eec:	38 21 e1 8c 	ori r1,r1,0xe18c
  861ef0:	28 29 00 00 	lw r9,(r1+0)
  861ef4:	2b 61 ff d0 	lw r1,(fp+-48)
  861ef8:	3e 31 00 08 	sli r17,r17,8
  861efc:	34 0c 00 08 	mvi r12,8
  861f00:	34 02 00 00 	mvi r2,0
  861f04:	38 21 e1 54 	ori r1,r1,0xe154
  861f08:	c9 86 60 00 	sub r12,r12,r6
  861f0c:	b8 b1 c0 00 	or r24,r5,r17
  861f10:	35 79 00 01 	addi r25,r11,1
  861f14:	34 17 ff ff 	mvi r23,-1
  861f18:	34 13 00 00 	mvi r19,0
  861f1c:	34 0b 00 00 	mvi r11,0
  861f20:	5b 60 ff d4 	sw (fp+-44),r0
  861f24:	5b 61 ff d0 	sw (fp+-48),r1
  861f28:	5b 6c ff d8 	sw (fp+-40),r12
  861f2c:	34 07 00 ff 	mvi r7,255
  861f30:	5b 66 ff dc 	sw (fp+-36),r6
  861f34:	5b 62 ff 9c 	sw (fp+-100),r2
  861f38:	b8 60 88 00 	mv r17,r3
  861f3c:	b8 80 90 00 	mv r18,r4
  861f40:	2b 63 ff d4 	lw r3,(fp+-44)
  861f44:	b4 73 18 00 	add r3,r3,r19
  861f48:	14 68 00 1f 	sri r8,r3,31
  861f4c:	5b 63 ff c0 	sw (fp+-64),r3
  861f50:	56 08 00 1c 	bgu r16,r8,861fc0 <unlzma+0x898>
  861f54:	5e 08 00 02 	bne r16,r8,861f5c <unlzma+0x834>
  861f58:	56 c3 00 1a 	bgu r22,r3,861fc0 <unlzma+0x898>
  861f5c:	2b 61 ff c4 	lw r1,(fp+-60)
  861f60:	44 20 00 04 	be r1,r0,861f70 <unlzma+0x848>
  861f64:	2b 62 ff a0 	lw r2,(fp+-96)
  861f68:	cb 22 18 00 	sub r3,r25,r2
  861f6c:	58 23 00 00 	sw (r1+0),r3
  861f70:	2b 63 ff b4 	lw r3,(fp+-76)
  861f74:	34 01 00 00 	mvi r1,0
  861f78:	44 60 fe dd 	be r3,r0,861aec <unlzma+0x3c4>
  861f7c:	2b 61 ff bc 	lw r1,(fp+-68)
  861f80:	ba 60 10 00 	mv r2,r19
  861f84:	d8 60 00 00 	call r3
  861f88:	e4 33 08 00 	cmpe r1,r1,r19
  861f8c:	34 21 ff ff 	addi r1,r1,-1
  861f90:	e3 ff fe d7 	bi 861aec <unlzma+0x3c4>
  861f94:	35 08 ff fb 	addi r8,r8,-5
  861f98:	35 29 00 01 	addi r9,r9,1
  861f9c:	49 0a ff fe 	bg r8,r10,861f94 <unlzma+0x86c>
  861fa0:	34 0a 00 01 	mvi r10,1
  861fa4:	bd 49 48 00 	sl r9,r10,r9
  861fa8:	bd 48 50 00 	sl r10,r10,r8
  861fac:	35 29 ff ff 	addi r9,r9,-1
  861fb0:	35 4a ff ff 	addi r10,r10,-1
  861fb4:	5b 69 ff b0 	sw (fp+-80),r9
  861fb8:	5b 6a ff b8 	sw (fp+-72),r10
  861fbc:	e3 ff ff 02 	bi 861bc4 <unlzma+0x49c>
  861fc0:	2b 62 ff 9c 	lw r2,(fp+-100)
  861fc4:	2b 63 ff c0 	lw r3,(fp+-64)
  861fc8:	2b 61 ff b0 	lw r1,(fp+-80)
  861fcc:	3c 48 00 04 	sli r8,r2,4
  861fd0:	2b 62 ff c8 	lw r2,(fp+-56)
  861fd4:	a0 61 b0 00 	and r22,r3,r1
  861fd8:	b6 c8 a8 00 	add r21,r22,r8
  861fdc:	3e a8 00 01 	sli r8,r21,1
  861fe0:	b4 48 78 00 	add r15,r2,r8
  861fe4:	56 e9 00 18 	bgu r23,r9,862044 <unlzma+0x91c>
  861fe8:	56 39 00 12 	bgu r17,r25,862030 <unlzma+0x908>
  861fec:	2b 63 ff a4 	lw r3,(fp+-92)
  861ff0:	5b 67 ff 94 	sw (fp+-108),r7
  861ff4:	5b 69 ff 98 	sw (fp+-104),r9
  861ff8:	ba 80 08 00 	mv r1,r20
  861ffc:	78 02 00 01 	mvhi r2,0x1
  862000:	d8 60 00 00 	call r3
  862004:	b8 20 90 00 	mv r18,r1
  862008:	2b 67 ff 94 	lw r7,(fp+-108)
  86200c:	2b 69 ff 98 	lw r9,(fp+-104)
  862010:	48 20 00 06 	bg r1,r0,862028 <unlzma+0x900>
  862014:	2b 61 ff d0 	lw r1,(fp+-48)
  862018:	2b 62 ff ac 	lw r2,(fp+-84)
  86201c:	d8 40 00 00 	call r2
  862020:	2b 69 ff 98 	lw r9,(fp+-104)
  862024:	2b 67 ff 94 	lw r7,(fp+-108)
  862028:	b6 92 88 00 	add r17,r20,r18
  86202c:	ba 80 c8 00 	mv r25,r20
  862030:	43 2a 00 00 	lbu r10,(r25+0)
  862034:	3f 05 00 08 	sli r5,r24,8
  862038:	3e f7 00 08 	sli r23,r23,8
  86203c:	b9 45 c0 00 	or r24,r10,r5
  862040:	37 39 00 01 	addi r25,r25,1
  862044:	2d ec 00 00 	lhu r12,(r15+0)
  862048:	02 e8 00 0b 	srui r8,r23,11
  86204c:	89 0c 70 00 	mul r14,r8,r12
  862050:	53 0e 00 c6 	bgeu r24,r14,862368 <unlzma+0xc40>
  862054:	2b 63 ff c0 	lw r3,(fp+-64)
  862058:	2b 61 ff b8 	lw r1,(fp+-72)
  86205c:	2b 62 ff dc 	lw r2,(fp+-36)
  862060:	b9 c0 b8 00 	mv r23,r14
  862064:	a0 61 30 00 	and r6,r3,r1
  862068:	2b 63 ff d8 	lw r3,(fp+-40)
  86206c:	bc c2 30 00 	sl r6,r6,r2
  862070:	34 01 08 00 	mvi r1,2048
  862074:	95 63 58 00 	sr r11,r11,r3
  862078:	c8 2c 50 00 	sub r10,r1,r12
  86207c:	b4 cb 30 00 	add r6,r6,r11
  862080:	3c cb 00 09 	sli r11,r6,9
  862084:	15 4a 00 05 	sri r10,r10,5
  862088:	3c c6 00 0b 	sli r6,r6,11
  86208c:	2b 62 ff c8 	lw r2,(fp+-56)
  862090:	2b 61 ff 9c 	lw r1,(fp+-100)
  862094:	b5 8a 50 00 	add r10,r12,r10
  862098:	c8 cb 30 00 	sub r6,r6,r11
  86209c:	34 c6 0e 6c 	addi r6,r6,3692
  8620a0:	0d ea 00 00 	sh (r15+0),r10
  8620a4:	34 03 00 06 	mvi r3,6
  8620a8:	b4 46 80 00 	add r16,r2,r6
  8620ac:	34 0d 00 01 	mvi r13,1
  8620b0:	4c 61 00 7a 	bge r3,r1,862298 <unlzma+0xb70>
  8620b4:	2b 62 ff b4 	lw r2,(fp+-76)
  8620b8:	44 40 03 57 	be r2,r0,862e14 <unlzma+0x16ec>
  8620bc:	2b 6b ff f4 	lw r11,(fp+-12)
  8620c0:	43 65 ff f8 	lbu r5,(fp+-8)
  8620c4:	2b 61 ff cc 	lw r1,(fp+-52)
  8620c8:	3d 6b 00 08 	sli r11,r11,8
  8620cc:	ca 61 50 00 	sub r10,r19,r1
  8620d0:	b8 ab 58 00 	or r11,r5,r11
  8620d4:	55 6a 00 06 	bgu r11,r10,8620ec <unlzma+0x9c4>
  8620d8:	2b 62 ff 9c 	lw r2,(fp+-100)
  8620dc:	b5 4b 50 00 	add r10,r10,r11
  8620e0:	b5 4b 08 00 	add r1,r10,r11
  8620e4:	51 4b 00 5e 	bgeu r10,r11,86225c <unlzma+0xb34>
  8620e8:	5b 62 ff 9c 	sw (fp+-100),r2
  8620ec:	2b 62 ff bc 	lw r2,(fp+-68)
  8620f0:	b4 4a 50 00 	add r10,r2,r10
  8620f4:	41 48 00 00 	lbu r8,(r10+0)
  8620f8:	2b 75 ff 9c 	lw r21,(fp+-100)
  8620fc:	b9 00 78 00 	mv r15,r8
  862100:	34 0d 00 01 	mvi r13,1
  862104:	3d ef 00 01 	sli r15,r15,1
  862108:	35 a2 01 00 	addi r2,r13,256
  86210c:	21 ec 01 00 	andi r12,r15,0x100
  862110:	b4 4c 10 00 	add r2,r2,r12
  862114:	3c 42 00 01 	sli r2,r2,1
  862118:	b6 02 58 00 	add r11,r16,r2
  86211c:	55 c9 00 18 	bgu r14,r9,86217c <unlzma+0xa54>
  862120:	56 39 00 12 	bgu r17,r25,862168 <unlzma+0xa40>
  862124:	2b 63 ff a4 	lw r3,(fp+-92)
  862128:	5b 67 ff 94 	sw (fp+-108),r7
  86212c:	5b 69 ff 98 	sw (fp+-104),r9
  862130:	ba 80 08 00 	mv r1,r20
  862134:	78 02 00 01 	mvhi r2,0x1
  862138:	d8 60 00 00 	call r3
  86213c:	b8 20 90 00 	mv r18,r1
  862140:	2b 67 ff 94 	lw r7,(fp+-108)
  862144:	2b 69 ff 98 	lw r9,(fp+-104)
  862148:	48 20 00 06 	bg r1,r0,862160 <unlzma+0xa38>
  86214c:	2b 61 ff d0 	lw r1,(fp+-48)
  862150:	2b 62 ff ac 	lw r2,(fp+-84)
  862154:	d8 40 00 00 	call r2
  862158:	2b 69 ff 98 	lw r9,(fp+-104)
  86215c:	2b 67 ff 94 	lw r7,(fp+-108)
  862160:	b6 92 88 00 	add r17,r20,r18
  862164:	ba 80 c8 00 	mv r25,r20
  862168:	43 24 00 00 	lbu r4,(r25+0)
  86216c:	3f 03 00 08 	sli r3,r24,8
  862170:	3d ce 00 08 	sli r14,r14,8
  862174:	b8 83 c0 00 	or r24,r4,r3
  862178:	37 39 00 01 	addi r25,r25,1
  86217c:	2d 65 00 00 	lhu r5,(r11+0)
  862180:	01 c2 00 0b 	srui r2,r14,11
  862184:	88 45 b8 00 	mul r23,r2,r5
  862188:	53 17 00 37 	bgeu r24,r23,862264 <unlzma+0xb3c>
  86218c:	34 03 08 00 	mvi r3,2048
  862190:	c8 65 20 00 	sub r4,r3,r5
  862194:	14 84 00 05 	sri r4,r4,5
  862198:	3d ad 00 01 	sli r13,r13,1
  86219c:	b4 a4 18 00 	add r3,r5,r4
  8621a0:	0d 63 00 00 	sh (r11+0),r3
  8621a4:	5d 80 03 a1 	bne r12,r0,863028 <unlzma+0x1900>
  8621a8:	ba e0 70 00 	mv r14,r23
  8621ac:	4c ed ff d6 	bge r7,r13,862104 <unlzma+0x9dc>
  8621b0:	5b 75 ff 9c 	sw (fp+-100),r21
  8621b4:	b9 c0 b8 00 	mv r23,r14
  8621b8:	2b 63 ff 9c 	lw r3,(fp+-100)
  8621bc:	34 08 00 09 	mvi r8,9
  8621c0:	48 68 01 bf 	bg r3,r8,8628bc <unlzma+0x1194>
  8621c4:	34 63 ff fd 	addi r3,r3,-3
  8621c8:	5b 63 ff 9c 	sw (fp+-100),r3
  8621cc:	2b 62 ff bc 	lw r2,(fp+-68)
  8621d0:	21 ab 00 ff 	andi r11,r13,0xff
  8621d4:	b4 53 40 00 	add r8,r2,r19
  8621d8:	31 0b 00 00 	sb (r8+0),r11
  8621dc:	2b 63 ff b4 	lw r3,(fp+-76)
  8621e0:	36 73 00 01 	addi r19,r19,1
  8621e4:	44 60 00 06 	be r3,r0,8621fc <unlzma+0xad4>
  8621e8:	2b 68 ff f4 	lw r8,(fp+-12)
  8621ec:	43 6a ff f8 	lbu r10,(fp+-8)
  8621f0:	3d 08 00 08 	sli r8,r8,8
  8621f4:	b9 48 40 00 	or r8,r10,r8
  8621f8:	46 68 00 0b 	be r19,r8,862224 <unlzma+0xafc>
  8621fc:	4c 12 01 bd 	bge r0,r18,8628f0 <unlzma+0x11c8>
  862200:	2b 68 ff fc 	lw r8,(fp+-4)
  862204:	2b 6a ff f8 	lw r10,(fp+-8)
  862208:	43 66 00 00 	lbu r6,(fp+0)
  86220c:	3d 0c 00 08 	sli r12,r8,8
  862210:	3d 4a 00 08 	sli r10,r10,8
  862214:	01 08 00 18 	srui r8,r8,24
  862218:	b8 cc b0 00 	or r22,r6,r12
  86221c:	b9 0a 80 00 	or r16,r8,r10
  862220:	e3 ff ff 48 	bi 861f40 <unlzma+0x818>
  862224:	2b 61 ff bc 	lw r1,(fp+-68)
  862228:	5b 67 ff 94 	sw (fp+-108),r7
  86222c:	5b 69 ff 98 	sw (fp+-104),r9
  862230:	ba 60 10 00 	mv r2,r19
  862234:	d8 60 00 00 	call r3
  862238:	2b 67 ff 94 	lw r7,(fp+-108)
  86223c:	2b 69 ff 98 	lw r9,(fp+-104)
  862240:	46 61 02 70 	be r19,r1,862c00 <unlzma+0x14d8>
  862244:	2b 62 ff ac 	lw r2,(fp+-84)
  862248:	78 01 00 86 	mvhi r1,0x86
  86224c:	38 21 e1 70 	ori r1,r1,0xe170
  862250:	d8 40 00 00 	call r2
  862254:	34 01 ff ff 	mvi r1,-1
  862258:	e3 ff fe 25 	bi 861aec <unlzma+0x3c4>
  86225c:	b8 20 50 00 	mv r10,r1
  862260:	e3 ff ff a0 	bi 8620e0 <unlzma+0x9b8>
  862264:	00 a4 00 05 	srui r4,r5,5
  862268:	3d a6 00 01 	sli r6,r13,1
  86226c:	c8 a4 18 00 	sub r3,r5,r4
  862270:	0d 63 00 00 	sh (r11+0),r3
  862274:	c9 d7 70 00 	sub r14,r14,r23
  862278:	cb 17 c0 00 	sub r24,r24,r23
  86227c:	34 cd 00 01 	addi r13,r6,1
  862280:	5d 80 ff cb 	bne r12,r0,8621ac <unlzma+0xa84>
  862284:	5b 75 ff 9c 	sw (fp+-100),r21
  862288:	b9 c0 b8 00 	mv r23,r14
  86228c:	4c ed 02 ca 	bge r7,r13,862db4 <unlzma+0x168c>
  862290:	ba e0 70 00 	mv r14,r23
  862294:	e3 ff ff c8 	bi 8621b4 <unlzma+0xa8c>
  862298:	2b 6e ff a4 	lw r14,(fp+-92)
  86229c:	b8 20 78 00 	mv r15,r1
  8622a0:	3d ab 00 01 	sli r11,r13,1
  8622a4:	b6 0b 60 00 	add r12,r16,r11
  8622a8:	56 e9 00 17 	bgu r23,r9,862304 <unlzma+0xbdc>
  8622ac:	3e f7 00 08 	sli r23,r23,8
  8622b0:	56 39 00 11 	bgu r17,r25,8622f4 <unlzma+0xbcc>
  8622b4:	5b 67 ff 94 	sw (fp+-108),r7
  8622b8:	5b 69 ff 98 	sw (fp+-104),r9
  8622bc:	78 02 00 01 	mvhi r2,0x1
  8622c0:	ba 80 08 00 	mv r1,r20
  8622c4:	d9 c0 00 00 	call r14
  8622c8:	b8 20 90 00 	mv r18,r1
  8622cc:	2b 67 ff 94 	lw r7,(fp+-108)
  8622d0:	2b 69 ff 98 	lw r9,(fp+-104)
  8622d4:	48 20 00 06 	bg r1,r0,8622ec <unlzma+0xbc4>
  8622d8:	2b 61 ff d0 	lw r1,(fp+-48)
  8622dc:	2b 62 ff ac 	lw r2,(fp+-84)
  8622e0:	d8 40 00 00 	call r2
  8622e4:	2b 69 ff 98 	lw r9,(fp+-104)
  8622e8:	2b 67 ff 94 	lw r7,(fp+-108)
  8622ec:	ba 80 c8 00 	mv r25,r20
  8622f0:	b6 92 88 00 	add r17,r20,r18
  8622f4:	43 23 00 00 	lbu r3,(r25+0)
  8622f8:	3f 02 00 08 	sli r2,r24,8
  8622fc:	37 39 00 01 	addi r25,r25,1
  862300:	b8 62 c0 00 	or r24,r3,r2
  862304:	2d 83 00 00 	lhu r3,(r12+0)
  862308:	02 e2 00 0b 	srui r2,r23,11
  86230c:	35 6d 00 01 	addi r13,r11,1
  862310:	88 43 28 00 	mul r5,r2,r3
  862314:	00 62 00 05 	srui r2,r3,5
  862318:	c8 62 10 00 	sub r2,r3,r2
  86231c:	53 05 00 0f 	bgeu r24,r5,862358 <unlzma+0xc30>
  862320:	34 01 08 00 	mvi r1,2048
  862324:	c8 23 20 00 	sub r4,r1,r3
  862328:	14 84 00 05 	sri r4,r4,5
  86232c:	b9 60 68 00 	mv r13,r11
  862330:	b4 64 18 00 	add r3,r3,r4
  862334:	0d 83 00 00 	sh (r12+0),r3
  862338:	b8 a0 b8 00 	mv r23,r5
  86233c:	4c ed ff d9 	bge r7,r13,8622a0 <unlzma+0xb78>
  862340:	5b 6f ff 9c 	sw (fp+-100),r15
  862344:	34 02 00 03 	mvi r2,3
  862348:	4c 4f 00 02 	bge r2,r15,862350 <unlzma+0xc28>
  86234c:	e3 ff ff 9b 	bi 8621b8 <unlzma+0xa90>
  862350:	5b 60 ff 9c 	sw (fp+-100),r0
  862354:	e3 ff ff 9e 	bi 8621cc <unlzma+0xaa4>
  862358:	0d 82 00 00 	sh (r12+0),r2
  86235c:	ca e5 b8 00 	sub r23,r23,r5
  862360:	cb 05 c0 00 	sub r24,r24,r5
  862364:	e3 ff ff f6 	bi 86233c <unlzma+0xc14>
  862368:	2b 63 ff 9c 	lw r3,(fp+-100)
  86236c:	01 8b 00 05 	srui r11,r12,5
  862370:	2b 61 ff c8 	lw r1,(fp+-56)
  862374:	34 6a 00 c0 	addi r10,r3,192
  862378:	c9 8b 60 00 	sub r12,r12,r11
  86237c:	3d 4a 00 01 	sli r10,r10,1
  862380:	ca ee b8 00 	sub r23,r23,r14
  862384:	0d ec 00 00 	sh (r15+0),r12
  862388:	cb 0e c0 00 	sub r24,r24,r14
  86238c:	b4 2a 70 00 	add r14,r1,r10
  862390:	56 e9 00 18 	bgu r23,r9,8623f0 <unlzma+0xcc8>
  862394:	56 39 00 12 	bgu r17,r25,8623dc <unlzma+0xcb4>
  862398:	2b 63 ff a4 	lw r3,(fp+-92)
  86239c:	5b 67 ff 94 	sw (fp+-108),r7
  8623a0:	5b 69 ff 98 	sw (fp+-104),r9
  8623a4:	ba 80 08 00 	mv r1,r20
  8623a8:	78 02 00 01 	mvhi r2,0x1
  8623ac:	d8 60 00 00 	call r3
  8623b0:	b8 20 90 00 	mv r18,r1
  8623b4:	2b 67 ff 94 	lw r7,(fp+-108)
  8623b8:	2b 69 ff 98 	lw r9,(fp+-104)
  8623bc:	48 20 00 06 	bg r1,r0,8623d4 <unlzma+0xcac>
  8623c0:	2b 61 ff d0 	lw r1,(fp+-48)
  8623c4:	2b 62 ff ac 	lw r2,(fp+-84)
  8623c8:	d8 40 00 00 	call r2
  8623cc:	2b 69 ff 98 	lw r9,(fp+-104)
  8623d0:	2b 67 ff 94 	lw r7,(fp+-108)
  8623d4:	b6 92 88 00 	add r17,r20,r18
  8623d8:	ba 80 c8 00 	mv r25,r20
  8623dc:	43 2c 00 00 	lbu r12,(r25+0)
  8623e0:	3f 05 00 08 	sli r5,r24,8
  8623e4:	3e f7 00 08 	sli r23,r23,8
  8623e8:	b9 85 c0 00 	or r24,r12,r5
  8623ec:	37 39 00 01 	addi r25,r25,1
  8623f0:	2d c5 00 00 	lhu r5,(r14+0)
  8623f4:	02 ea 00 0b 	srui r10,r23,11
  8623f8:	89 45 78 00 	mul r15,r10,r5
  8623fc:	53 0f 01 8d 	bgeu r24,r15,862a30 <unlzma+0x1308>
  862400:	34 03 08 00 	mvi r3,2048
  862404:	c8 65 40 00 	sub r8,r3,r5
  862408:	15 08 00 05 	sri r8,r8,5
  86240c:	2b 61 ff 9c 	lw r1,(fp+-100)
  862410:	b4 a8 40 00 	add r8,r5,r8
  862414:	0d c8 00 00 	sh (r14+0),r8
  862418:	34 02 00 06 	mvi r2,6
  86241c:	48 22 01 80 	bg r1,r2,862a1c <unlzma+0x12f4>
  862420:	34 03 00 07 	mvi r3,7
  862424:	5b 63 ff f0 	sw (fp+-16),r3
  862428:	5b 60 ff 9c 	sw (fp+-100),r0
  86242c:	2b 63 ff e0 	lw r3,(fp+-32)
  862430:	2b 62 ff e4 	lw r2,(fp+-28)
  862434:	2b 61 ff c8 	lw r1,(fp+-56)
  862438:	5b 63 ff ec 	sw (fp+-20),r3
  86243c:	2b 63 ff cc 	lw r3,(fp+-52)
  862440:	34 2e 06 64 	addi r14,r1,1636
  862444:	5b 62 ff e0 	sw (fp+-32),r2
  862448:	5b 63 ff e4 	sw (fp+-28),r3
  86244c:	55 e9 00 18 	bgu r15,r9,8624ac <unlzma+0xd84>
  862450:	56 39 00 12 	bgu r17,r25,862498 <unlzma+0xd70>
  862454:	2b 63 ff a4 	lw r3,(fp+-92)
  862458:	5b 67 ff 94 	sw (fp+-108),r7
  86245c:	5b 69 ff 98 	sw (fp+-104),r9
  862460:	ba 80 08 00 	mv r1,r20
  862464:	78 02 00 01 	mvhi r2,0x1
  862468:	d8 60 00 00 	call r3
  86246c:	b8 20 90 00 	mv r18,r1
  862470:	2b 67 ff 94 	lw r7,(fp+-108)
  862474:	2b 69 ff 98 	lw r9,(fp+-104)
  862478:	48 20 00 06 	bg r1,r0,862490 <unlzma+0xd68>
  86247c:	2b 61 ff d0 	lw r1,(fp+-48)
  862480:	2b 62 ff ac 	lw r2,(fp+-84)
  862484:	d8 40 00 00 	call r2
  862488:	2b 69 ff 98 	lw r9,(fp+-104)
  86248c:	2b 67 ff 94 	lw r7,(fp+-108)
  862490:	b6 92 88 00 	add r17,r20,r18
  862494:	ba 80 c8 00 	mv r25,r20
  862498:	43 2c 00 00 	lbu r12,(r25+0)
  86249c:	3f 05 00 08 	sli r5,r24,8
  8624a0:	3d ef 00 08 	sli r15,r15,8
  8624a4:	b9 85 c0 00 	or r24,r12,r5
  8624a8:	37 39 00 01 	addi r25,r25,1
  8624ac:	2d c5 00 00 	lhu r5,(r14+0)
  8624b0:	01 e8 00 0b 	srui r8,r15,11
  8624b4:	89 05 b8 00 	mul r23,r8,r5
  8624b8:	53 17 02 12 	bgeu r24,r23,862d00 <unlzma+0x15d8>
  8624bc:	34 03 08 00 	mvi r3,2048
  8624c0:	c8 65 40 00 	sub r8,r3,r5
  8624c4:	15 08 00 05 	sri r8,r8,5
  8624c8:	3e cb 00 04 	sli r11,r22,4
  8624cc:	b4 a8 50 00 	add r10,r5,r8
  8624d0:	35 68 00 04 	addi r8,r11,4
  8624d4:	0d ca 00 00 	sh (r14+0),r10
  8624d8:	34 0f ff f8 	mvi r15,-8
  8624dc:	b5 c8 70 00 	add r14,r14,r8
  8624e0:	34 0d 00 03 	mvi r13,3
  8624e4:	2b 75 ff 9c 	lw r21,(fp+-100)
  8624e8:	2b 70 ff a4 	lw r16,(fp+-92)
  8624ec:	34 0b 00 01 	mvi r11,1
  8624f0:	45 a0 00 2e 	be r13,r0,8625a8 <unlzma+0xe80>
  8624f4:	3d 6b 00 01 	sli r11,r11,1
  8624f8:	b5 cb 60 00 	add r12,r14,r11
  8624fc:	56 e9 00 17 	bgu r23,r9,862558 <unlzma+0xe30>
  862500:	56 39 00 11 	bgu r17,r25,862544 <unlzma+0xe1c>
  862504:	5b 67 ff 94 	sw (fp+-108),r7
  862508:	5b 69 ff 98 	sw (fp+-104),r9
  86250c:	ba 80 08 00 	mv r1,r20
  862510:	78 02 00 01 	mvhi r2,0x1
  862514:	da 00 00 00 	call r16
  862518:	b8 20 90 00 	mv r18,r1
  86251c:	2b 67 ff 94 	lw r7,(fp+-108)
  862520:	2b 69 ff 98 	lw r9,(fp+-104)
  862524:	48 20 00 06 	bg r1,r0,86253c <unlzma+0xe14>
  862528:	2b 61 ff d0 	lw r1,(fp+-48)
  86252c:	2b 62 ff ac 	lw r2,(fp+-84)
  862530:	d8 40 00 00 	call r2
  862534:	2b 69 ff 98 	lw r9,(fp+-104)
  862538:	2b 67 ff 94 	lw r7,(fp+-108)
  86253c:	b6 92 88 00 	add r17,r20,r18
  862540:	ba 80 c8 00 	mv r25,r20
  862544:	43 23 00 00 	lbu r3,(r25+0)
  862548:	3f 02 00 08 	sli r2,r24,8
  86254c:	3e f7 00 08 	sli r23,r23,8
  862550:	b8 62 c0 00 	or r24,r3,r2
  862554:	37 39 00 01 	addi r25,r25,1
  862558:	2d 83 00 00 	lhu r3,(r12+0)
  86255c:	02 e2 00 0b 	srui r2,r23,11
  862560:	88 43 28 00 	mul r5,r2,r3
  862564:	53 05 00 09 	bgeu r24,r5,862588 <unlzma+0xe60>
  862568:	34 01 08 00 	mvi r1,2048
  86256c:	c8 23 20 00 	sub r4,r1,r3
  862570:	14 84 00 05 	sri r4,r4,5
  862574:	b8 a0 b8 00 	mv r23,r5
  862578:	b4 64 18 00 	add r3,r3,r4
  86257c:	0d 83 00 00 	sh (r12+0),r3
  862580:	35 ad ff ff 	addi r13,r13,-1
  862584:	e3 ff ff db 	bi 8624f0 <unlzma+0xdc8>
  862588:	00 64 00 05 	srui r4,r3,5
  86258c:	ca e5 b8 00 	sub r23,r23,r5
  862590:	c8 64 18 00 	sub r3,r3,r4
  862594:	cb 05 c0 00 	sub r24,r24,r5
  862598:	0d 83 00 00 	sh (r12+0),r3
  86259c:	35 6b 00 01 	addi r11,r11,1
  8625a0:	35 ad ff ff 	addi r13,r13,-1
  8625a4:	e3 ff ff d3 	bi 8624f0 <unlzma+0xdc8>
  8625a8:	b5 6f 78 00 	add r15,r11,r15
  8625ac:	5b 75 ff 9c 	sw (fp+-100),r21
  8625b0:	5b 6f ff e8 	sw (fp+-24),r15
  8625b4:	34 02 00 03 	mvi r2,3
  8625b8:	4a a2 01 06 	bg r21,r2,8629d0 <unlzma+0x12a8>
  8625bc:	2b 68 ff e8 	lw r8,(fp+-24)
  8625c0:	34 03 00 03 	mvi r3,3
  8625c4:	4c 68 00 02 	bge r3,r8,8625cc <unlzma+0xea4>
  8625c8:	34 08 00 03 	mvi r8,3
  8625cc:	3d 08 00 07 	sli r8,r8,7
  8625d0:	2b 61 ff c8 	lw r1,(fp+-56)
  8625d4:	35 08 03 60 	addi r8,r8,864
  8625d8:	b4 28 b0 00 	add r22,r1,r8
  8625dc:	56 e9 00 07 	bgu r23,r9,8625f8 <unlzma+0xed0>
  8625e0:	53 31 02 c1 	bgeu r25,r17,8630e4 <unlzma+0x19bc>
  8625e4:	43 23 00 00 	lbu r3,(r25+0)
  8625e8:	3f 05 00 08 	sli r5,r24,8
  8625ec:	3e f7 00 08 	sli r23,r23,8
  8625f0:	b8 65 c0 00 	or r24,r3,r5
  8625f4:	37 39 00 01 	addi r25,r25,1
  8625f8:	2e c5 00 02 	lhu r5,(r22+2)
  8625fc:	02 e8 00 0b 	srui r8,r23,11
  862600:	89 05 40 00 	mul r8,r8,r5
  862604:	53 08 01 86 	bgeu r24,r8,862c1c <unlzma+0x14f4>
  862608:	34 03 08 00 	mvi r3,2048
  86260c:	c8 65 50 00 	sub r10,r3,r5
  862610:	15 4a 00 05 	sri r10,r10,5
  862614:	b9 00 b8 00 	mv r23,r8
  862618:	b4 aa 28 00 	add r5,r5,r10
  86261c:	0e c5 00 02 	sh (r22+2),r5
  862620:	34 0d 00 04 	mvi r13,4
  862624:	34 05 00 04 	mvi r5,4
  862628:	b6 c5 70 00 	add r14,r22,r5
  86262c:	56 e9 00 07 	bgu r23,r9,862648 <unlzma+0xf20>
  862630:	53 31 02 ba 	bgeu r25,r17,863118 <unlzma+0x19f0>
  862634:	43 23 00 00 	lbu r3,(r25+0)
  862638:	3f 05 00 08 	sli r5,r24,8
  86263c:	3e f7 00 08 	sli r23,r23,8
  862640:	b8 65 c0 00 	or r24,r3,r5
  862644:	37 39 00 01 	addi r25,r25,1
  862648:	2d cc 00 00 	lhu r12,(r14+0)
  86264c:	02 e8 00 0b 	srui r8,r23,11
  862650:	89 0c 40 00 	mul r8,r8,r12
  862654:	53 08 01 9d 	bgeu r24,r8,862cc8 <unlzma+0x15a0>
  862658:	34 03 08 00 	mvi r3,2048
  86265c:	c8 6c 50 00 	sub r10,r3,r12
  862660:	15 4a 00 05 	sri r10,r10,5
  862664:	b9 00 b8 00 	mv r23,r8
  862668:	b5 8a 28 00 	add r5,r12,r10
  86266c:	0d c5 00 00 	sh (r14+0),r5
  862670:	3d ad 00 01 	sli r13,r13,1
  862674:	b6 cd 70 00 	add r14,r22,r13
  862678:	56 e9 00 07 	bgu r23,r9,862694 <unlzma+0xf6c>
  86267c:	53 31 02 7a 	bgeu r25,r17,863064 <unlzma+0x193c>
  862680:	43 24 00 00 	lbu r4,(r25+0)
  862684:	3f 05 00 08 	sli r5,r24,8
  862688:	3e f7 00 08 	sli r23,r23,8
  86268c:	b8 85 c0 00 	or r24,r4,r5
  862690:	37 39 00 01 	addi r25,r25,1
  862694:	2d c5 00 00 	lhu r5,(r14+0)
  862698:	02 e8 00 0b 	srui r8,r23,11
  86269c:	89 05 40 00 	mul r8,r8,r5
  8626a0:	53 08 01 91 	bgeu r24,r8,862ce4 <unlzma+0x15bc>
  8626a4:	34 03 08 00 	mvi r3,2048
  8626a8:	c8 65 50 00 	sub r10,r3,r5
  8626ac:	15 4a 00 05 	sri r10,r10,5
  8626b0:	b9 a0 18 00 	mv r3,r13
  8626b4:	b4 aa 28 00 	add r5,r5,r10
  8626b8:	0d c5 00 00 	sh (r14+0),r5
  8626bc:	b9 00 b8 00 	mv r23,r8
  8626c0:	3c 6d 00 01 	sli r13,r3,1
  8626c4:	b6 cd 70 00 	add r14,r22,r13
  8626c8:	56 e9 00 07 	bgu r23,r9,8626e4 <unlzma+0xfbc>
  8626cc:	53 31 02 73 	bgeu r25,r17,863098 <unlzma+0x1970>
  8626d0:	43 24 00 00 	lbu r4,(r25+0)
  8626d4:	3f 05 00 08 	sli r5,r24,8
  8626d8:	3e f7 00 08 	sli r23,r23,8
  8626dc:	b8 85 c0 00 	or r24,r4,r5
  8626e0:	37 39 00 01 	addi r25,r25,1
  8626e4:	2d c5 00 00 	lhu r5,(r14+0)
  8626e8:	02 e8 00 0b 	srui r8,r23,11
  8626ec:	89 05 40 00 	mul r8,r8,r5
  8626f0:	53 08 01 6f 	bgeu r24,r8,862cac <unlzma+0x1584>
  8626f4:	34 03 08 00 	mvi r3,2048
  8626f8:	c8 65 50 00 	sub r10,r3,r5
  8626fc:	15 4a 00 05 	sri r10,r10,5
  862700:	b9 a0 18 00 	mv r3,r13
  862704:	b4 aa 28 00 	add r5,r5,r10
  862708:	0d c5 00 00 	sh (r14+0),r5
  86270c:	b9 00 b8 00 	mv r23,r8
  862710:	3c 6d 00 01 	sli r13,r3,1
  862714:	b6 cd 70 00 	add r14,r22,r13
  862718:	56 e9 00 07 	bgu r23,r9,862734 <unlzma+0x100c>
  86271c:	53 31 02 8c 	bgeu r25,r17,86314c <unlzma+0x1a24>
  862720:	43 24 00 00 	lbu r4,(r25+0)
  862724:	3f 05 00 08 	sli r5,r24,8
  862728:	3e f7 00 08 	sli r23,r23,8
  86272c:	b8 85 c0 00 	or r24,r4,r5
  862730:	37 39 00 01 	addi r25,r25,1
  862734:	2d c5 00 00 	lhu r5,(r14+0)
  862738:	02 e8 00 0b 	srui r8,r23,11
  86273c:	89 05 40 00 	mul r8,r8,r5
  862740:	53 08 01 54 	bgeu r24,r8,862c90 <unlzma+0x1568>
  862744:	34 03 08 00 	mvi r3,2048
  862748:	c8 65 50 00 	sub r10,r3,r5
  86274c:	15 4a 00 05 	sri r10,r10,5
  862750:	b9 a0 18 00 	mv r3,r13
  862754:	b4 aa 28 00 	add r5,r5,r10
  862758:	0d c5 00 00 	sh (r14+0),r5
  86275c:	b9 00 b8 00 	mv r23,r8
  862760:	3c 70 00 01 	sli r16,r3,1
  862764:	b6 d0 60 00 	add r12,r22,r16
  862768:	56 e9 00 07 	bgu r23,r9,862784 <unlzma+0x105c>
  86276c:	53 31 02 31 	bgeu r25,r17,863030 <unlzma+0x1908>
  862770:	43 24 00 00 	lbu r4,(r25+0)
  862774:	3f 05 00 08 	sli r5,r24,8
  862778:	3e f7 00 08 	sli r23,r23,8
  86277c:	b8 85 c0 00 	or r24,r4,r5
  862780:	37 39 00 01 	addi r25,r25,1
  862784:	2d 85 00 00 	lhu r5,(r12+0)
  862788:	02 e8 00 0b 	srui r8,r23,11
  86278c:	89 05 40 00 	mul r8,r8,r5
  862790:	53 08 01 39 	bgeu r24,r8,862c74 <unlzma+0x154c>
  862794:	34 03 08 00 	mvi r3,2048
  862798:	c8 65 50 00 	sub r10,r3,r5
  86279c:	15 4a 00 05 	sri r10,r10,5
  8627a0:	b9 00 b8 00 	mv r23,r8
  8627a4:	b4 aa 28 00 	add r5,r5,r10
  8627a8:	0d 85 00 00 	sh (r12+0),r5
  8627ac:	36 10 ff c0 	addi r16,r16,-64
  8627b0:	34 01 00 03 	mvi r1,3
  8627b4:	ba 00 28 00 	mv r5,r16
  8627b8:	4c 30 00 50 	bge r1,r16,8628f8 <unlzma+0x11d0>
  8627bc:	16 0c 00 01 	sri r12,r16,1
  8627c0:	22 08 00 01 	andi r8,r16,0x1
  8627c4:	34 02 00 0d 	mvi r2,13
  8627c8:	35 83 ff ff 	addi r3,r12,-1
  8627cc:	39 08 00 02 	ori r8,r8,0x2
  8627d0:	4a 02 01 e7 	bg r16,r2,862f6c <unlzma+0x1844>
  8627d4:	bd 03 80 00 	sl r16,r8,r3
  8627d8:	34 03 02 af 	mvi r3,687
  8627dc:	c8 65 28 00 	sub r5,r3,r5
  8627e0:	b4 b0 28 00 	add r5,r5,r16
  8627e4:	2b 61 ff c8 	lw r1,(fp+-56)
  8627e8:	3c a5 00 01 	sli r5,r5,1
  8627ec:	35 8e ff fe 	addi r14,r12,-2
  8627f0:	b4 25 a8 00 	add r21,r1,r5
  8627f4:	2b 6d ff a4 	lw r13,(fp+-92)
  8627f8:	34 0b 00 01 	mvi r11,1
  8627fc:	34 0f 00 01 	mvi r15,1
  862800:	3d 6b 00 01 	sli r11,r11,1
  862804:	b6 ab 60 00 	add r12,r21,r11
  862808:	56 e9 00 17 	bgu r23,r9,862864 <unlzma+0x113c>
  86280c:	56 39 00 11 	bgu r17,r25,862850 <unlzma+0x1128>
  862810:	5b 67 ff 94 	sw (fp+-108),r7
  862814:	5b 69 ff 98 	sw (fp+-104),r9
  862818:	ba 80 08 00 	mv r1,r20
  86281c:	78 02 00 01 	mvhi r2,0x1
  862820:	d9 a0 00 00 	call r13
  862824:	b8 20 90 00 	mv r18,r1
  862828:	2b 67 ff 94 	lw r7,(fp+-108)
  86282c:	2b 69 ff 98 	lw r9,(fp+-104)
  862830:	48 20 00 06 	bg r1,r0,862848 <unlzma+0x1120>
  862834:	2b 61 ff d0 	lw r1,(fp+-48)
  862838:	2b 62 ff ac 	lw r2,(fp+-84)
  86283c:	d8 40 00 00 	call r2
  862840:	2b 69 ff 98 	lw r9,(fp+-104)
  862844:	2b 67 ff 94 	lw r7,(fp+-108)
  862848:	b6 92 88 00 	add r17,r20,r18
  86284c:	ba 80 c8 00 	mv r25,r20
  862850:	43 23 00 00 	lbu r3,(r25+0)
  862854:	3f 02 00 08 	sli r2,r24,8
  862858:	3e f7 00 08 	sli r23,r23,8
  86285c:	b8 62 c0 00 	or r24,r3,r2
  862860:	37 39 00 01 	addi r25,r25,1
  862864:	2d 83 00 00 	lhu r3,(r12+0)
  862868:	02 e2 00 0b 	srui r2,r23,11
  86286c:	88 43 28 00 	mul r5,r2,r3
  862870:	53 05 00 0b 	bgeu r24,r5,86289c <unlzma+0x1174>
  862874:	34 01 08 00 	mvi r1,2048
  862878:	c8 23 20 00 	sub r4,r1,r3
  86287c:	14 84 00 05 	sri r4,r4,5
  862880:	b8 a0 b8 00 	mv r23,r5
  862884:	b4 64 18 00 	add r3,r3,r4
  862888:	0d 83 00 00 	sh (r12+0),r3
  86288c:	45 c0 00 1b 	be r14,r0,8628f8 <unlzma+0x11d0>
  862890:	3d ef 00 01 	sli r15,r15,1
  862894:	35 ce ff ff 	addi r14,r14,-1
  862898:	e3 ff ff da 	bi 862800 <unlzma+0x10d8>
  86289c:	00 64 00 05 	srui r4,r3,5
  8628a0:	ca e5 b8 00 	sub r23,r23,r5
  8628a4:	c8 64 18 00 	sub r3,r3,r4
  8628a8:	cb 05 c0 00 	sub r24,r24,r5
  8628ac:	0d 83 00 00 	sh (r12+0),r3
  8628b0:	35 6b 00 01 	addi r11,r11,1
  8628b4:	ba 0f 80 00 	or r16,r16,r15
  8628b8:	e3 ff ff f5 	bi 86288c <unlzma+0x1164>
  8628bc:	34 61 ff fa 	addi r1,r3,-6
  8628c0:	5b 61 ff 9c 	sw (fp+-100),r1
  8628c4:	e3 ff fe 42 	bi 8621cc <unlzma+0xaa4>
  8628c8:	44 aa 02 2e 	be r5,r10,863180 <unlzma+0x1a58>
  8628cc:	35 85 00 0a 	addi r5,r12,10
  8628d0:	00 a5 00 02 	srui r5,r5,2
  8628d4:	3c a5 00 02 	sli r5,r5,2
  8628d8:	cb 85 e0 00 	sub sp,sp,r5
  8628dc:	37 85 00 0b 	addi r5,sp,11
  8628e0:	00 a5 00 03 	srui r5,r5,3
  8628e4:	3c a5 00 03 	sli r5,r5,3
  8628e8:	5b 65 ff bc 	sw (fp+-68),r5
  8628ec:	e3 ff fd 13 	bi 861d38 <unlzma+0x610>
  8628f0:	34 01 ff ff 	mvi r1,-1
  8628f4:	e3 ff fc 7e 	bi 861aec <unlzma+0x3c4>
  8628f8:	36 10 00 01 	addi r16,r16,1
  8628fc:	5b 70 ff cc 	sw (fp+-52),r16
  862900:	46 00 fd 97 	be r16,r0,861f5c <unlzma+0x834>
  862904:	2b 6e ff f4 	lw r14,(fp+-12)
  862908:	2b 65 ff f8 	lw r5,(fp+-8)
  86290c:	3d ca 00 08 	sli r10,r14,8
  862910:	00 a8 00 18 	srui r8,r5,24
  862914:	b9 0a 40 00 	or r8,r8,r10
  862918:	56 08 fe 4b 	bgu r16,r8,862244 <unlzma+0xb1c>
  86291c:	2b 62 ff c0 	lw r2,(fp+-64)
  862920:	56 02 fe 49 	bgu r16,r2,862244 <unlzma+0xb1c>
  862924:	2b 63 ff f0 	lw r3,(fp+-16)
  862928:	5b 63 ff 9c 	sw (fp+-100),r3
  86292c:	b8 60 68 00 	mv r13,r3
  862930:	3d ce 00 08 	sli r14,r14,8
  862934:	00 a5 00 18 	srui r5,r5,24
  862938:	2b 61 ff e8 	lw r1,(fp+-24)
  86293c:	2b 62 ff cc 	lw r2,(fp+-52)
  862940:	2b 6c ff bc 	lw r12,(fp+-68)
  862944:	b8 ae 70 00 	or r14,r5,r14
  862948:	34 35 00 02 	addi r21,r1,2
  86294c:	c8 0e 78 00 	sub r15,r0,r14
  862950:	c8 4e 80 00 	sub r16,r2,r14
  862954:	2b 63 ff b4 	lw r3,(fp+-76)
  862958:	44 60 00 22 	be r3,r0,8629e0 <unlzma+0x12b8>
  86295c:	2b 61 ff cc 	lw r1,(fp+-52)
  862960:	ca 61 20 00 	sub r4,r19,r1
  862964:	55 c4 00 04 	bgu r14,r4,862974 <unlzma+0x124c>
  862968:	b4 8e 20 00 	add r4,r4,r14
  86296c:	b4 8e 08 00 	add r1,r4,r14
  862970:	50 8e 00 16 	bgeu r4,r14,8629c8 <unlzma+0x12a0>
  862974:	b5 84 20 00 	add r4,r12,r4
  862978:	40 8b 00 00 	lbu r11,(r4+0)
  86297c:	b5 93 18 00 	add r3,r12,r19
  862980:	36 73 00 01 	addi r19,r19,1
  862984:	30 6b 00 00 	sb (r3+0),r11
  862988:	46 6e 00 ad 	be r19,r14,862c3c <unlzma+0x1514>
  86298c:	36 b5 ff ff 	addi r21,r21,-1
  862990:	46 a0 02 9c 	be r21,r0,863400 <unlzma+0x1cd8>
  862994:	2b 64 ff fc 	lw r4,(fp+-4)
  862998:	2b 63 ff f8 	lw r3,(fp+-8)
  86299c:	43 68 00 00 	lbu r8,(fp+0)
  8629a0:	00 86 00 18 	srui r6,r4,24
  8629a4:	3c 63 00 08 	sli r3,r3,8
  8629a8:	3c 84 00 08 	sli r4,r4,8
  8629ac:	16 65 00 1f 	sri r5,r19,31
  8629b0:	b8 c3 18 00 	or r3,r6,r3
  8629b4:	b9 04 20 00 	or r4,r8,r4
  8629b8:	54 65 ff e7 	bgu r3,r5,862954 <unlzma+0x122c>
  8629bc:	5c 65 fe 22 	bne r3,r5,862244 <unlzma+0xb1c>
  8629c0:	54 93 ff e5 	bgu r4,r19,862954 <unlzma+0x122c>
  8629c4:	e3 ff fe 20 	bi 862244 <unlzma+0xb1c>
  8629c8:	b8 20 20 00 	mv r4,r1
  8629cc:	e3 ff ff e8 	bi 86296c <unlzma+0x1244>
  8629d0:	2b 6e ff f4 	lw r14,(fp+-12)
  8629d4:	2b 65 ff f8 	lw r5,(fp+-8)
  8629d8:	2b 6d ff 9c 	lw r13,(fp+-100)
  8629dc:	e3 ff ff d5 	bi 862930 <unlzma+0x1208>
  8629e0:	2b 65 ff cc 	lw r5,(fp+-52)
  8629e4:	51 c5 00 05 	bgeu r14,r5,8629f8 <unlzma+0x12d0>
  8629e8:	ba 00 28 00 	mv r5,r16
  8629ec:	b4 af 10 00 	add r2,r5,r15
  8629f0:	b4 4e 08 00 	add r1,r2,r14
  8629f4:	54 2e 00 08 	bgu r1,r14,862a14 <unlzma+0x12ec>
  8629f8:	ca 65 18 00 	sub r3,r19,r5
  8629fc:	b5 83 18 00 	add r3,r12,r3
  862a00:	40 6b 00 00 	lbu r11,(r3+0)
  862a04:	b5 93 10 00 	add r2,r12,r19
  862a08:	36 73 00 01 	addi r19,r19,1
  862a0c:	30 4b 00 00 	sb (r2+0),r11
  862a10:	e3 ff ff df 	bi 86298c <unlzma+0x1264>
  862a14:	b8 40 28 00 	mv r5,r2
  862a18:	e3 ff ff f5 	bi 8629ec <unlzma+0x12c4>
  862a1c:	34 01 00 0a 	mvi r1,10
  862a20:	34 02 00 03 	mvi r2,3
  862a24:	5b 61 ff f0 	sw (fp+-16),r1
  862a28:	5b 62 ff 9c 	sw (fp+-100),r2
  862a2c:	e3 ff fe 80 	bi 86242c <unlzma+0xd04>
  862a30:	2b 61 ff 9c 	lw r1,(fp+-100)
  862a34:	00 ad 00 05 	srui r13,r5,5
  862a38:	2b 62 ff c8 	lw r2,(fp+-56)
  862a3c:	34 2c 00 cc 	addi r12,r1,204
  862a40:	c8 ad 68 00 	sub r13,r5,r13
  862a44:	3d 8c 00 01 	sli r12,r12,1
  862a48:	ca ef b8 00 	sub r23,r23,r15
  862a4c:	0d cd 00 00 	sh (r14+0),r13
  862a50:	cb 0f c0 00 	sub r24,r24,r15
  862a54:	b4 4c 60 00 	add r12,r2,r12
  862a58:	56 e9 00 18 	bgu r23,r9,862ab8 <unlzma+0x1390>
  862a5c:	56 39 00 12 	bgu r17,r25,862aa4 <unlzma+0x137c>
  862a60:	2b 63 ff a4 	lw r3,(fp+-92)
  862a64:	5b 67 ff 94 	sw (fp+-108),r7
  862a68:	5b 69 ff 98 	sw (fp+-104),r9
  862a6c:	ba 80 08 00 	mv r1,r20
  862a70:	78 02 00 01 	mvhi r2,0x1
  862a74:	d8 60 00 00 	call r3
  862a78:	b8 20 90 00 	mv r18,r1
  862a7c:	2b 67 ff 94 	lw r7,(fp+-108)
  862a80:	2b 69 ff 98 	lw r9,(fp+-104)
  862a84:	48 20 00 06 	bg r1,r0,862a9c <unlzma+0x1374>
  862a88:	2b 61 ff d0 	lw r1,(fp+-48)
  862a8c:	2b 62 ff ac 	lw r2,(fp+-84)
  862a90:	d8 40 00 00 	call r2
  862a94:	2b 69 ff 98 	lw r9,(fp+-104)
  862a98:	2b 67 ff 94 	lw r7,(fp+-108)
  862a9c:	b6 92 88 00 	add r17,r20,r18
  862aa0:	ba 80 c8 00 	mv r25,r20
  862aa4:	43 23 00 00 	lbu r3,(r25+0)
  862aa8:	3f 05 00 08 	sli r5,r24,8
  862aac:	3e f7 00 08 	sli r23,r23,8
  862ab0:	b8 65 c0 00 	or r24,r3,r5
  862ab4:	37 39 00 01 	addi r25,r25,1
  862ab8:	2d 83 00 00 	lhu r3,(r12+0)
  862abc:	02 e5 00 0b 	srui r5,r23,11
  862ac0:	88 a3 78 00 	mul r15,r5,r3
  862ac4:	53 0f 00 f1 	bgeu r24,r15,862e88 <unlzma+0x1760>
  862ac8:	34 01 08 00 	mvi r1,2048
  862acc:	c8 23 28 00 	sub r5,r1,r3
  862ad0:	14 aa 00 05 	sri r10,r5,5
  862ad4:	36 a8 00 f0 	addi r8,r21,240
  862ad8:	2b 62 ff c8 	lw r2,(fp+-56)
  862adc:	b4 6a 50 00 	add r10,r3,r10
  862ae0:	3d 08 00 01 	sli r8,r8,1
  862ae4:	0d 8a 00 00 	sh (r12+0),r10
  862ae8:	b4 48 58 00 	add r11,r2,r8
  862aec:	55 e9 00 18 	bgu r15,r9,862b4c <unlzma+0x1424>
  862af0:	56 39 00 12 	bgu r17,r25,862b38 <unlzma+0x1410>
  862af4:	2b 63 ff a4 	lw r3,(fp+-92)
  862af8:	5b 67 ff 94 	sw (fp+-108),r7
  862afc:	5b 69 ff 98 	sw (fp+-104),r9
  862b00:	ba 80 08 00 	mv r1,r20
  862b04:	78 02 00 01 	mvhi r2,0x1
  862b08:	d8 60 00 00 	call r3
  862b0c:	b8 20 90 00 	mv r18,r1
  862b10:	2b 67 ff 94 	lw r7,(fp+-108)
  862b14:	2b 69 ff 98 	lw r9,(fp+-104)
  862b18:	48 20 00 06 	bg r1,r0,862b30 <unlzma+0x1408>
  862b1c:	2b 61 ff d0 	lw r1,(fp+-48)
  862b20:	2b 62 ff ac 	lw r2,(fp+-84)
  862b24:	d8 40 00 00 	call r2
  862b28:	2b 69 ff 98 	lw r9,(fp+-104)
  862b2c:	2b 67 ff 94 	lw r7,(fp+-108)
  862b30:	b6 92 88 00 	add r17,r20,r18
  862b34:	ba 80 c8 00 	mv r25,r20
  862b38:	43 23 00 00 	lbu r3,(r25+0)
  862b3c:	3f 18 00 08 	sli r24,r24,8
  862b40:	3d ef 00 08 	sli r15,r15,8
  862b44:	b8 78 c0 00 	or r24,r3,r24
  862b48:	37 39 00 01 	addi r25,r25,1
  862b4c:	2d 63 00 00 	lhu r3,(r11+0)
  862b50:	01 f7 00 0b 	srui r23,r15,11
  862b54:	8a e3 b8 00 	mul r23,r23,r3
  862b58:	53 17 01 5d 	bgeu r24,r23,8630cc <unlzma+0x19a4>
  862b5c:	2b 62 ff 9c 	lw r2,(fp+-100)
  862b60:	34 01 08 00 	mvi r1,2048
  862b64:	c8 23 28 00 	sub r5,r1,r3
  862b68:	68 46 00 06 	cmpgi r6,r2,6
  862b6c:	14 a5 00 05 	sri r5,r5,5
  862b70:	c8 06 30 00 	sub r6,r0,r6
  862b74:	b4 65 28 00 	add r5,r3,r5
  862b78:	20 c6 00 02 	andi r6,r6,0x2
  862b7c:	2b 61 ff b4 	lw r1,(fp+-76)
  862b80:	0d 65 00 00 	sh (r11+0),r5
  862b84:	34 c3 00 09 	addi r3,r6,9
  862b88:	5b 63 ff 9c 	sw (fp+-100),r3
  862b8c:	44 20 01 f0 	be r1,r0,86334c <unlzma+0x1c24>
  862b90:	2b 66 ff f4 	lw r6,(fp+-12)
  862b94:	43 62 ff f8 	lbu r2,(fp+-8)
  862b98:	2b 63 ff cc 	lw r3,(fp+-52)
  862b9c:	3c c6 00 08 	sli r6,r6,8
  862ba0:	ca 63 28 00 	sub r5,r19,r3
  862ba4:	b8 46 30 00 	or r6,r2,r6
  862ba8:	54 c5 00 06 	bgu r6,r5,862bc0 <unlzma+0x1498>
  862bac:	2b 62 ff 9c 	lw r2,(fp+-100)
  862bb0:	b4 a6 28 00 	add r5,r5,r6
  862bb4:	b4 a6 08 00 	add r1,r5,r6
  862bb8:	50 a6 00 17 	bgeu r5,r6,862c14 <unlzma+0x14ec>
  862bbc:	5b 62 ff 9c 	sw (fp+-100),r2
  862bc0:	2b 61 ff bc 	lw r1,(fp+-68)
  862bc4:	b4 25 28 00 	add r5,r1,r5
  862bc8:	40 ab 00 00 	lbu r11,(r5+0)
  862bcc:	b4 33 28 00 	add r5,r1,r19
  862bd0:	36 73 00 01 	addi r19,r19,1
  862bd4:	30 ab 00 00 	sb (r5+0),r11
  862bd8:	5c d3 fd 89 	bne r6,r19,8621fc <unlzma+0xad4>
  862bdc:	2b 61 ff bc 	lw r1,(fp+-68)
  862be0:	2b 63 ff b4 	lw r3,(fp+-76)
  862be4:	5b 67 ff 94 	sw (fp+-108),r7
  862be8:	5b 69 ff 98 	sw (fp+-104),r9
  862bec:	ba 60 10 00 	mv r2,r19
  862bf0:	d8 60 00 00 	call r3
  862bf4:	2b 67 ff 94 	lw r7,(fp+-108)
  862bf8:	2b 69 ff 98 	lw r9,(fp+-104)
  862bfc:	5e 61 fd 92 	bne r19,r1,862244 <unlzma+0xb1c>
  862c00:	2b 61 ff d4 	lw r1,(fp+-44)
  862c04:	b6 61 08 00 	add r1,r19,r1
  862c08:	5b 61 ff d4 	sw (fp+-44),r1
  862c0c:	34 13 00 00 	mvi r19,0
  862c10:	e3 ff fd 7b 	bi 8621fc <unlzma+0xad4>
  862c14:	b8 20 28 00 	mv r5,r1
  862c18:	e3 ff ff e7 	bi 862bb4 <unlzma+0x148c>
  862c1c:	00 aa 00 05 	srui r10,r5,5
  862c20:	ca e8 b8 00 	sub r23,r23,r8
  862c24:	c8 aa 28 00 	sub r5,r5,r10
  862c28:	0e c5 00 02 	sh (r22+2),r5
  862c2c:	cb 08 c0 00 	sub r24,r24,r8
  862c30:	34 0d 00 06 	mvi r13,6
  862c34:	34 05 00 06 	mvi r5,6
  862c38:	e3 ff fe 7c 	bi 862628 <unlzma+0xf00>
  862c3c:	2b 63 ff b4 	lw r3,(fp+-76)
  862c40:	5b 67 ff 94 	sw (fp+-108),r7
  862c44:	5b 69 ff 98 	sw (fp+-104),r9
  862c48:	b9 80 08 00 	mv r1,r12
  862c4c:	ba 60 10 00 	mv r2,r19
  862c50:	d8 60 00 00 	call r3
  862c54:	2b 67 ff 94 	lw r7,(fp+-108)
  862c58:	2b 69 ff 98 	lw r9,(fp+-104)
  862c5c:	5c 33 fd 7a 	bne r1,r19,862244 <unlzma+0xb1c>
  862c60:	2b 61 ff d4 	lw r1,(fp+-44)
  862c64:	b4 33 08 00 	add r1,r1,r19
  862c68:	5b 61 ff d4 	sw (fp+-44),r1
  862c6c:	34 13 00 00 	mvi r19,0
  862c70:	e3 ff ff 47 	bi 86298c <unlzma+0x1264>
  862c74:	00 aa 00 05 	srui r10,r5,5
  862c78:	ca e8 b8 00 	sub r23,r23,r8
  862c7c:	c8 aa 28 00 	sub r5,r5,r10
  862c80:	cb 08 c0 00 	sub r24,r24,r8
  862c84:	0d 85 00 00 	sh (r12+0),r5
  862c88:	36 10 00 01 	addi r16,r16,1
  862c8c:	e3 ff fe c8 	bi 8627ac <unlzma+0x1084>
  862c90:	00 aa 00 05 	srui r10,r5,5
  862c94:	ca e8 b8 00 	sub r23,r23,r8
  862c98:	c8 aa 28 00 	sub r5,r5,r10
  862c9c:	cb 08 c0 00 	sub r24,r24,r8
  862ca0:	0d c5 00 00 	sh (r14+0),r5
  862ca4:	35 a3 00 01 	addi r3,r13,1
  862ca8:	e3 ff fe ae 	bi 862760 <unlzma+0x1038>
  862cac:	00 aa 00 05 	srui r10,r5,5
  862cb0:	ca e8 b8 00 	sub r23,r23,r8
  862cb4:	c8 aa 28 00 	sub r5,r5,r10
  862cb8:	cb 08 c0 00 	sub r24,r24,r8
  862cbc:	0d c5 00 00 	sh (r14+0),r5
  862cc0:	35 a3 00 01 	addi r3,r13,1
  862cc4:	e3 ff fe 93 	bi 862710 <unlzma+0xfe8>
  862cc8:	01 8a 00 05 	srui r10,r12,5
  862ccc:	ca e8 b8 00 	sub r23,r23,r8
  862cd0:	c9 8a 60 00 	sub r12,r12,r10
  862cd4:	cb 08 c0 00 	sub r24,r24,r8
  862cd8:	0d cc 00 00 	sh (r14+0),r12
  862cdc:	35 ad 00 01 	addi r13,r13,1
  862ce0:	e3 ff fe 64 	bi 862670 <unlzma+0xf48>
  862ce4:	00 aa 00 05 	srui r10,r5,5
  862ce8:	ca e8 b8 00 	sub r23,r23,r8
  862cec:	c8 aa 28 00 	sub r5,r5,r10
  862cf0:	cb 08 c0 00 	sub r24,r24,r8
  862cf4:	0d c5 00 00 	sh (r14+0),r5
  862cf8:	35 a3 00 01 	addi r3,r13,1
  862cfc:	e3 ff fe 71 	bi 8626c0 <unlzma+0xf98>
  862d00:	00 ac 00 05 	srui r12,r5,5
  862d04:	c9 f7 78 00 	sub r15,r15,r23
  862d08:	c8 ac 28 00 	sub r5,r5,r12
  862d0c:	0d c5 00 00 	sh (r14+0),r5
  862d10:	cb 17 c0 00 	sub r24,r24,r23
  862d14:	35 cb 00 02 	addi r11,r14,2
  862d18:	55 e9 00 18 	bgu r15,r9,862d78 <unlzma+0x1650>
  862d1c:	56 39 00 12 	bgu r17,r25,862d64 <unlzma+0x163c>
  862d20:	2b 63 ff a4 	lw r3,(fp+-92)
  862d24:	5b 67 ff 94 	sw (fp+-108),r7
  862d28:	5b 69 ff 98 	sw (fp+-104),r9
  862d2c:	ba 80 08 00 	mv r1,r20
  862d30:	78 02 00 01 	mvhi r2,0x1
  862d34:	d8 60 00 00 	call r3
  862d38:	b8 20 90 00 	mv r18,r1
  862d3c:	2b 67 ff 94 	lw r7,(fp+-108)
  862d40:	2b 69 ff 98 	lw r9,(fp+-104)
  862d44:	48 20 00 06 	bg r1,r0,862d5c <unlzma+0x1634>
  862d48:	2b 61 ff d0 	lw r1,(fp+-48)
  862d4c:	2b 62 ff ac 	lw r2,(fp+-84)
  862d50:	d8 40 00 00 	call r2
  862d54:	2b 69 ff 98 	lw r9,(fp+-104)
  862d58:	2b 67 ff 94 	lw r7,(fp+-108)
  862d5c:	b6 92 88 00 	add r17,r20,r18
  862d60:	ba 80 c8 00 	mv r25,r20
  862d64:	43 23 00 00 	lbu r3,(r25+0)
  862d68:	3f 05 00 08 	sli r5,r24,8
  862d6c:	3d ef 00 08 	sli r15,r15,8
  862d70:	b8 65 c0 00 	or r24,r3,r5
  862d74:	37 39 00 01 	addi r25,r25,1
  862d78:	2d 63 00 00 	lhu r3,(r11+0)
  862d7c:	01 f7 00 0b 	srui r23,r15,11
  862d80:	8a e3 b8 00 	mul r23,r23,r3
  862d84:	53 17 00 38 	bgeu r24,r23,862e64 <unlzma+0x173c>
  862d88:	34 01 08 00 	mvi r1,2048
  862d8c:	c8 23 50 00 	sub r10,r1,r3
  862d90:	15 4a 00 05 	sri r10,r10,5
  862d94:	3e c5 00 04 	sli r5,r22,4
  862d98:	b4 6a 50 00 	add r10,r3,r10
  862d9c:	34 a5 01 04 	addi r5,r5,260
  862da0:	0d 6a 00 00 	sh (r11+0),r10
  862da4:	b5 c5 70 00 	add r14,r14,r5
  862da8:	34 0f 00 00 	mvi r15,0
  862dac:	34 0d 00 03 	mvi r13,3
  862db0:	e3 ff fd cd 	bi 8624e4 <unlzma+0xdbc>
  862db4:	2b 6f ff 9c 	lw r15,(fp+-100)
  862db8:	2b 6e ff a4 	lw r14,(fp+-92)
  862dbc:	e3 ff fd 39 	bi 8622a0 <unlzma+0xb78>
  862dc0:	2b 61 ff a0 	lw r1,(fp+-96)
  862dc4:	2b 63 ff a4 	lw r3,(fp+-92)
  862dc8:	5b 66 ff 98 	sw (fp+-104),r6
  862dcc:	78 02 00 01 	mvhi r2,0x1
  862dd0:	d8 60 00 00 	call r3
  862dd4:	b8 20 20 00 	mv r4,r1
  862dd8:	2b 66 ff 98 	lw r6,(fp+-104)
  862ddc:	48 20 00 09 	bg r1,r0,862e00 <unlzma+0x16d8>
  862de0:	78 0b 00 86 	mvhi r11,0x86
  862de4:	2b 62 ff ac 	lw r2,(fp+-84)
  862de8:	b9 60 08 00 	mv r1,r11
  862dec:	5b 64 ff 94 	sw (fp+-108),r4
  862df0:	38 21 e1 54 	ori r1,r1,0xe154
  862df4:	d8 40 00 00 	call r2
  862df8:	2b 66 ff 98 	lw r6,(fp+-104)
  862dfc:	2b 64 ff 94 	lw r4,(fp+-108)
  862e00:	2b 61 ff a0 	lw r1,(fp+-96)
  862e04:	b4 24 18 00 	add r3,r1,r4
  862e08:	b8 20 58 00 	mv r11,r1
  862e0c:	b8 20 a0 00 	mv r20,r1
  862e10:	e3 ff fc 2e 	bi 861ec8 <unlzma+0x7a0>
  862e14:	2b 68 ff f4 	lw r8,(fp+-12)
  862e18:	43 62 ff f8 	lbu r2,(fp+-8)
  862e1c:	2b 65 ff cc 	lw r5,(fp+-52)
  862e20:	3d 08 00 08 	sli r8,r8,8
  862e24:	b8 48 40 00 	or r8,r2,r8
  862e28:	51 05 00 08 	bgeu r8,r5,862e48 <unlzma+0x1720>
  862e2c:	c8 08 58 00 	sub r11,r0,r8
  862e30:	c8 a8 28 00 	sub r5,r5,r8
  862e34:	b8 20 18 00 	mv r3,r1
  862e38:	b4 ab 10 00 	add r2,r5,r11
  862e3c:	b4 48 08 00 	add r1,r2,r8
  862e40:	54 28 00 07 	bgu r1,r8,862e5c <unlzma+0x1734>
  862e44:	5b 63 ff 9c 	sw (fp+-100),r3
  862e48:	2b 63 ff bc 	lw r3,(fp+-68)
  862e4c:	ca 65 28 00 	sub r5,r19,r5
  862e50:	b4 65 28 00 	add r5,r3,r5
  862e54:	40 a8 00 00 	lbu r8,(r5+0)
  862e58:	e3 ff fc a8 	bi 8620f8 <unlzma+0x9d0>
  862e5c:	b8 40 28 00 	mv r5,r2
  862e60:	e3 ff ff f6 	bi 862e38 <unlzma+0x1710>
  862e64:	00 65 00 05 	srui r5,r3,5
  862e68:	cb 17 c0 00 	sub r24,r24,r23
  862e6c:	c8 65 28 00 	sub r5,r3,r5
  862e70:	c9 f7 b8 00 	sub r23,r15,r23
  862e74:	0d 65 00 00 	sh (r11+0),r5
  862e78:	35 ce 02 04 	addi r14,r14,516
  862e7c:	34 0f ff 10 	mvi r15,-240
  862e80:	34 0d 00 08 	mvi r13,8
  862e84:	e3 ff fd 98 	bi 8624e4 <unlzma+0xdbc>
  862e88:	2b 62 ff 9c 	lw r2,(fp+-100)
  862e8c:	00 6a 00 05 	srui r10,r3,5
  862e90:	ca ef 70 00 	sub r14,r23,r15
  862e94:	c8 6a 18 00 	sub r3,r3,r10
  862e98:	34 48 00 d8 	addi r8,r2,216
  862e9c:	0d 83 00 00 	sh (r12+0),r3
  862ea0:	2b 63 ff c8 	lw r3,(fp+-56)
  862ea4:	3d 08 00 01 	sli r8,r8,1
  862ea8:	cb 0f c0 00 	sub r24,r24,r15
  862eac:	b4 68 58 00 	add r11,r3,r8
  862eb0:	55 c9 00 18 	bgu r14,r9,862f10 <unlzma+0x17e8>
  862eb4:	56 39 00 12 	bgu r17,r25,862efc <unlzma+0x17d4>
  862eb8:	2b 63 ff a4 	lw r3,(fp+-92)
  862ebc:	5b 67 ff 94 	sw (fp+-108),r7
  862ec0:	5b 69 ff 98 	sw (fp+-104),r9
  862ec4:	ba 80 08 00 	mv r1,r20
  862ec8:	78 02 00 01 	mvhi r2,0x1
  862ecc:	d8 60 00 00 	call r3
  862ed0:	b8 20 90 00 	mv r18,r1
  862ed4:	2b 67 ff 94 	lw r7,(fp+-108)
  862ed8:	2b 69 ff 98 	lw r9,(fp+-104)
  862edc:	48 20 00 06 	bg r1,r0,862ef4 <unlzma+0x17cc>
  862ee0:	2b 61 ff d0 	lw r1,(fp+-48)
  862ee4:	2b 62 ff ac 	lw r2,(fp+-84)
  862ee8:	d8 40 00 00 	call r2
  862eec:	2b 69 ff 98 	lw r9,(fp+-104)
  862ef0:	2b 67 ff 94 	lw r7,(fp+-108)
  862ef4:	b6 92 88 00 	add r17,r20,r18
  862ef8:	ba 80 c8 00 	mv r25,r20
  862efc:	43 23 00 00 	lbu r3,(r25+0)
  862f00:	3f 05 00 08 	sli r5,r24,8
  862f04:	3d ce 00 08 	sli r14,r14,8
  862f08:	b8 65 c0 00 	or r24,r3,r5
  862f0c:	37 39 00 01 	addi r25,r25,1
  862f10:	2d 63 00 00 	lhu r3,(r11+0)
  862f14:	01 c8 00 0b 	srui r8,r14,11
  862f18:	89 03 78 00 	mul r15,r8,r3
  862f1c:	53 0f 00 9d 	bgeu r24,r15,863190 <unlzma+0x1a68>
  862f20:	34 01 08 00 	mvi r1,2048
  862f24:	c8 23 60 00 	sub r12,r1,r3
  862f28:	15 8c 00 05 	sri r12,r12,5
  862f2c:	2b 62 ff e4 	lw r2,(fp+-28)
  862f30:	b4 6c 28 00 	add r5,r3,r12
  862f34:	0d 65 00 00 	sh (r11+0),r5
  862f38:	2b 61 ff cc 	lw r1,(fp+-52)
  862f3c:	5b 62 ff cc 	sw (fp+-52),r2
  862f40:	5b 61 ff e4 	sw (fp+-28),r1
  862f44:	2b 62 ff 9c 	lw r2,(fp+-100)
  862f48:	34 03 00 06 	mvi r3,6
  862f4c:	48 43 00 32 	bg r2,r3,863014 <unlzma+0x18ec>
  862f50:	34 01 00 0f 	mvi r1,15
  862f54:	34 02 00 08 	mvi r2,8
  862f58:	5b 61 ff f0 	sw (fp+-16),r1
  862f5c:	5b 62 ff 9c 	sw (fp+-100),r2
  862f60:	2b 62 ff c8 	lw r2,(fp+-56)
  862f64:	34 4e 0a 68 	addi r14,r2,2664
  862f68:	e3 ff fd 39 	bi 86244c <unlzma+0xd24>
  862f6c:	35 85 ff fb 	addi r5,r12,-5
  862f70:	44 a0 00 24 	be r5,r0,863000 <unlzma+0x18d8>
  862f74:	35 8c ff fa 	addi r12,r12,-6
  862f78:	e0 00 00 02 	bi 862f80 <unlzma+0x1858>
  862f7c:	35 8c ff ff 	addi r12,r12,-1
  862f80:	3d 0b 00 01 	sli r11,r8,1
  862f84:	56 e9 00 18 	bgu r23,r9,862fe4 <unlzma+0x18bc>
  862f88:	3e f7 00 08 	sli r23,r23,8
  862f8c:	56 39 00 12 	bgu r17,r25,862fd4 <unlzma+0x18ac>
  862f90:	2b 63 ff a4 	lw r3,(fp+-92)
  862f94:	5b 67 ff 94 	sw (fp+-108),r7
  862f98:	5b 69 ff 98 	sw (fp+-104),r9
  862f9c:	78 02 00 01 	mvhi r2,0x1
  862fa0:	ba 80 08 00 	mv r1,r20
  862fa4:	d8 60 00 00 	call r3
  862fa8:	b8 20 90 00 	mv r18,r1
  862fac:	2b 67 ff 94 	lw r7,(fp+-108)
  862fb0:	2b 69 ff 98 	lw r9,(fp+-104)
  862fb4:	48 20 00 06 	bg r1,r0,862fcc <unlzma+0x18a4>
  862fb8:	2b 61 ff d0 	lw r1,(fp+-48)
  862fbc:	2b 62 ff ac 	lw r2,(fp+-84)
  862fc0:	d8 40 00 00 	call r2
  862fc4:	2b 69 ff 98 	lw r9,(fp+-104)
  862fc8:	2b 67 ff 94 	lw r7,(fp+-108)
  862fcc:	ba 80 c8 00 	mv r25,r20
  862fd0:	b6 92 88 00 	add r17,r20,r18
  862fd4:	43 24 00 00 	lbu r4,(r25+0)
  862fd8:	3f 03 00 08 	sli r3,r24,8
  862fdc:	37 39 00 01 	addi r25,r25,1
  862fe0:	b8 83 c0 00 	or r24,r4,r3
  862fe4:	02 f7 00 01 	srui r23,r23,1
  862fe8:	34 02 00 00 	mvi r2,0
  862fec:	56 f8 00 03 	bgu r23,r24,862ff8 <unlzma+0x18d0>
  862ff0:	34 02 00 01 	mvi r2,1
  862ff4:	cb 17 c0 00 	sub r24,r24,r23
  862ff8:	b8 4b 40 00 	or r8,r2,r11
  862ffc:	5d 80 ff e0 	bne r12,r0,862f7c <unlzma+0x1854>
  863000:	2b 63 ff c8 	lw r3,(fp+-56)
  863004:	3d 10 00 04 	sli r16,r8,4
  863008:	34 0e 00 03 	mvi r14,3
  86300c:	34 75 06 44 	addi r21,r3,1604
  863010:	e3 ff fd f9 	bi 8627f4 <unlzma+0x10cc>
  863014:	34 03 00 12 	mvi r3,18
  863018:	34 01 00 0b 	mvi r1,11
  86301c:	5b 63 ff f0 	sw (fp+-16),r3
  863020:	5b 61 ff 9c 	sw (fp+-100),r1
  863024:	e3 ff ff cf 	bi 862f60 <unlzma+0x1838>
  863028:	5b 75 ff 9c 	sw (fp+-100),r21
  86302c:	e3 ff fc 98 	bi 86228c <unlzma+0xb64>
  863030:	2b 63 ff a4 	lw r3,(fp+-92)
  863034:	5b 67 ff 94 	sw (fp+-108),r7
  863038:	5b 69 ff 98 	sw (fp+-104),r9
  86303c:	ba 80 08 00 	mv r1,r20
  863040:	78 02 00 01 	mvhi r2,0x1
  863044:	d8 60 00 00 	call r3
  863048:	b8 20 90 00 	mv r18,r1
  86304c:	2b 67 ff 94 	lw r7,(fp+-108)
  863050:	2b 69 ff 98 	lw r9,(fp+-104)
  863054:	4c 01 00 b6 	bge r0,r1,86332c <unlzma+0x1c04>
  863058:	b6 92 88 00 	add r17,r20,r18
  86305c:	ba 80 c8 00 	mv r25,r20
  863060:	e3 ff fd c4 	bi 862770 <unlzma+0x1048>
  863064:	2b 63 ff a4 	lw r3,(fp+-92)
  863068:	5b 67 ff 94 	sw (fp+-108),r7
  86306c:	5b 69 ff 98 	sw (fp+-104),r9
  863070:	ba 80 08 00 	mv r1,r20
  863074:	78 02 00 01 	mvhi r2,0x1
  863078:	d8 60 00 00 	call r3
  86307c:	b8 20 90 00 	mv r18,r1
  863080:	2b 67 ff 94 	lw r7,(fp+-108)
  863084:	2b 69 ff 98 	lw r9,(fp+-104)
  863088:	4c 01 00 ce 	bge r0,r1,8633c0 <unlzma+0x1c98>
  86308c:	b6 92 88 00 	add r17,r20,r18
  863090:	ba 80 c8 00 	mv r25,r20
  863094:	e3 ff fd 7b 	bi 862680 <unlzma+0xf58>
  863098:	2b 63 ff a4 	lw r3,(fp+-92)
  86309c:	5b 67 ff 94 	sw (fp+-108),r7
  8630a0:	5b 69 ff 98 	sw (fp+-104),r9
  8630a4:	ba 80 08 00 	mv r1,r20
  8630a8:	78 02 00 01 	mvhi r2,0x1
  8630ac:	d8 60 00 00 	call r3
  8630b0:	b8 20 90 00 	mv r18,r1
  8630b4:	2b 67 ff 94 	lw r7,(fp+-108)
  8630b8:	2b 69 ff 98 	lw r9,(fp+-104)
  8630bc:	4c 01 00 b9 	bge r0,r1,8633a0 <unlzma+0x1c78>
  8630c0:	b6 92 88 00 	add r17,r20,r18
  8630c4:	ba 80 c8 00 	mv r25,r20
  8630c8:	e3 ff fd 82 	bi 8626d0 <unlzma+0xfa8>
  8630cc:	00 6c 00 05 	srui r12,r3,5
  8630d0:	c9 f7 78 00 	sub r15,r15,r23
  8630d4:	c8 6c 60 00 	sub r12,r3,r12
  8630d8:	cb 17 c0 00 	sub r24,r24,r23
  8630dc:	0d 6c 00 00 	sh (r11+0),r12
  8630e0:	e3 ff ff 99 	bi 862f44 <unlzma+0x181c>
  8630e4:	2b 63 ff a4 	lw r3,(fp+-92)
  8630e8:	5b 67 ff 94 	sw (fp+-108),r7
  8630ec:	5b 69 ff 98 	sw (fp+-104),r9
  8630f0:	ba 80 08 00 	mv r1,r20
  8630f4:	78 02 00 01 	mvhi r2,0x1
  8630f8:	d8 60 00 00 	call r3
  8630fc:	b8 20 90 00 	mv r18,r1
  863100:	2b 67 ff 94 	lw r7,(fp+-108)
  863104:	2b 69 ff 98 	lw r9,(fp+-104)
  863108:	4c 01 00 81 	bge r0,r1,86330c <unlzma+0x1be4>
  86310c:	b6 92 88 00 	add r17,r20,r18
  863110:	ba 80 c8 00 	mv r25,r20
  863114:	e3 ff fd 34 	bi 8625e4 <unlzma+0xebc>
  863118:	2b 63 ff a4 	lw r3,(fp+-92)
  86311c:	5b 67 ff 94 	sw (fp+-108),r7
  863120:	5b 69 ff 98 	sw (fp+-104),r9
  863124:	ba 80 08 00 	mv r1,r20
  863128:	78 02 00 01 	mvhi r2,0x1
  86312c:	d8 60 00 00 	call r3
  863130:	b8 20 90 00 	mv r18,r1
  863134:	2b 67 ff 94 	lw r7,(fp+-108)
  863138:	2b 69 ff 98 	lw r9,(fp+-104)
  86313c:	4c 01 00 a9 	bge r0,r1,8633e0 <unlzma+0x1cb8>
  863140:	b6 92 88 00 	add r17,r20,r18
  863144:	ba 80 c8 00 	mv r25,r20
  863148:	e3 ff fd 3b 	bi 862634 <unlzma+0xf0c>
  86314c:	2b 63 ff a4 	lw r3,(fp+-92)
  863150:	5b 67 ff 94 	sw (fp+-108),r7
  863154:	5b 69 ff 98 	sw (fp+-104),r9
  863158:	ba 80 08 00 	mv r1,r20
  86315c:	78 02 00 01 	mvhi r2,0x1
  863160:	d8 60 00 00 	call r3
  863164:	b8 20 90 00 	mv r18,r1
  863168:	2b 67 ff 94 	lw r7,(fp+-108)
  86316c:	2b 69 ff 98 	lw r9,(fp+-104)
  863170:	4c 01 00 5f 	bge r0,r1,8632ec <unlzma+0x1bc4>
  863174:	b6 92 88 00 	add r17,r20,r18
  863178:	ba 80 c8 00 	mv r25,r20
  86317c:	e3 ff fd 69 	bi 862720 <unlzma+0xff8>
  863180:	55 96 00 02 	bgu r12,r22,863188 <unlzma+0x1a60>
  863184:	e3 ff fd d2 	bi 8628cc <unlzma+0x11a4>
  863188:	ba c0 60 00 	mv r12,r22
  86318c:	e3 ff fd d0 	bi 8628cc <unlzma+0x11a4>
  863190:	2b 62 ff 9c 	lw r2,(fp+-100)
  863194:	00 6d 00 05 	srui r13,r3,5
  863198:	c9 cf 70 00 	sub r14,r14,r15
  86319c:	c8 6d 18 00 	sub r3,r3,r13
  8631a0:	0d 63 00 00 	sh (r11+0),r3
  8631a4:	34 4c 00 e4 	addi r12,r2,228
  8631a8:	2b 63 ff c8 	lw r3,(fp+-56)
  8631ac:	3d 8c 00 01 	sli r12,r12,1
  8631b0:	cb 0f c0 00 	sub r24,r24,r15
  8631b4:	b4 6c 58 00 	add r11,r3,r12
  8631b8:	55 c9 00 18 	bgu r14,r9,863218 <unlzma+0x1af0>
  8631bc:	56 39 00 12 	bgu r17,r25,863204 <unlzma+0x1adc>
  8631c0:	2b 63 ff a4 	lw r3,(fp+-92)
  8631c4:	5b 67 ff 94 	sw (fp+-108),r7
  8631c8:	5b 69 ff 98 	sw (fp+-104),r9
  8631cc:	ba 80 08 00 	mv r1,r20
  8631d0:	78 02 00 01 	mvhi r2,0x1
  8631d4:	d8 60 00 00 	call r3
  8631d8:	b8 20 90 00 	mv r18,r1
  8631dc:	2b 67 ff 94 	lw r7,(fp+-108)
  8631e0:	2b 69 ff 98 	lw r9,(fp+-104)
  8631e4:	48 20 00 06 	bg r1,r0,8631fc <unlzma+0x1ad4>
  8631e8:	2b 61 ff d0 	lw r1,(fp+-48)
  8631ec:	2b 62 ff ac 	lw r2,(fp+-84)
  8631f0:	d8 40 00 00 	call r2
  8631f4:	2b 69 ff 98 	lw r9,(fp+-104)
  8631f8:	2b 67 ff 94 	lw r7,(fp+-108)
  8631fc:	b6 92 88 00 	add r17,r20,r18
  863200:	ba 80 c8 00 	mv r25,r20
  863204:	43 23 00 00 	lbu r3,(r25+0)
  863208:	3f 05 00 08 	sli r5,r24,8
  86320c:	3d ce 00 08 	sli r14,r14,8
  863210:	b8 65 c0 00 	or r24,r3,r5
  863214:	37 39 00 01 	addi r25,r25,1
  863218:	2d 6a 00 00 	lhu r10,(r11+0)
  86321c:	01 c8 00 0b 	srui r8,r14,11
  863220:	89 0a 78 00 	mul r15,r8,r10
  863224:	53 0f 00 7b 	bgeu r24,r15,863410 <unlzma+0x1ce8>
  863228:	34 03 08 00 	mvi r3,2048
  86322c:	c8 6a 28 00 	sub r5,r3,r10
  863230:	14 a5 00 05 	sri r5,r5,5
  863234:	b5 45 28 00 	add r5,r10,r5
  863238:	0d 65 00 00 	sh (r11+0),r5
  86323c:	2b 63 ff e4 	lw r3,(fp+-28)
  863240:	2b 62 ff e0 	lw r2,(fp+-32)
  863244:	5b 63 ff e0 	sw (fp+-32),r3
  863248:	e3 ff ff 3c 	bi 862f38 <unlzma+0x1810>
  86324c:	78 0b 00 86 	mvhi r11,0x86
  863250:	2b 62 ff ac 	lw r2,(fp+-84)
  863254:	b9 60 08 00 	mv r1,r11
  863258:	5b 64 ff 94 	sw (fp+-108),r4
  86325c:	5b 66 ff 98 	sw (fp+-104),r6
  863260:	38 21 e1 54 	ori r1,r1,0xe154
  863264:	d8 40 00 00 	call r2
  863268:	2b 64 ff 94 	lw r4,(fp+-108)
  86326c:	2b 66 ff 98 	lw r6,(fp+-104)
  863270:	e3 ff fb 0d 	bi 861ea4 <unlzma+0x77c>
  863274:	78 0b 00 86 	mvhi r11,0x86
  863278:	2b 62 ff ac 	lw r2,(fp+-84)
  86327c:	b9 60 08 00 	mv r1,r11
  863280:	5b 64 ff 94 	sw (fp+-108),r4
  863284:	5b 66 ff 98 	sw (fp+-104),r6
  863288:	38 21 e1 54 	ori r1,r1,0xe154
  86328c:	d8 40 00 00 	call r2
  863290:	2b 64 ff 94 	lw r4,(fp+-108)
  863294:	2b 66 ff 98 	lw r6,(fp+-104)
  863298:	e3 ff fa e3 	bi 861e24 <unlzma+0x6fc>
  86329c:	78 0b 00 86 	mvhi r11,0x86
  8632a0:	2b 62 ff ac 	lw r2,(fp+-84)
  8632a4:	b9 60 08 00 	mv r1,r11
  8632a8:	5b 64 ff 94 	sw (fp+-108),r4
  8632ac:	5b 66 ff 98 	sw (fp+-104),r6
  8632b0:	38 21 e1 54 	ori r1,r1,0xe154
  8632b4:	d8 40 00 00 	call r2
  8632b8:	2b 64 ff 94 	lw r4,(fp+-108)
  8632bc:	2b 66 ff 98 	lw r6,(fp+-104)
  8632c0:	e3 ff fa e9 	bi 861e64 <unlzma+0x73c>
  8632c4:	78 0b 00 86 	mvhi r11,0x86
  8632c8:	2b 62 ff ac 	lw r2,(fp+-84)
  8632cc:	b9 60 08 00 	mv r1,r11
  8632d0:	5b 64 ff 94 	sw (fp+-108),r4
  8632d4:	5b 66 ff 98 	sw (fp+-104),r6
  8632d8:	38 21 e1 54 	ori r1,r1,0xe154
  8632dc:	d8 40 00 00 	call r2
  8632e0:	2b 64 ff 94 	lw r4,(fp+-108)
  8632e4:	2b 66 ff 98 	lw r6,(fp+-104)
  8632e8:	e3 ff fa c1 	bi 861dec <unlzma+0x6c4>
  8632ec:	2b 61 ff d0 	lw r1,(fp+-48)
  8632f0:	2b 62 ff ac 	lw r2,(fp+-84)
  8632f4:	5b 67 ff 94 	sw (fp+-108),r7
  8632f8:	5b 69 ff 98 	sw (fp+-104),r9
  8632fc:	d8 40 00 00 	call r2
  863300:	2b 67 ff 94 	lw r7,(fp+-108)
  863304:	2b 69 ff 98 	lw r9,(fp+-104)
  863308:	e3 ff ff 9b 	bi 863174 <unlzma+0x1a4c>
  86330c:	2b 61 ff d0 	lw r1,(fp+-48)
  863310:	2b 62 ff ac 	lw r2,(fp+-84)
  863314:	5b 67 ff 94 	sw (fp+-108),r7
  863318:	5b 69 ff 98 	sw (fp+-104),r9
  86331c:	d8 40 00 00 	call r2
  863320:	2b 67 ff 94 	lw r7,(fp+-108)
  863324:	2b 69 ff 98 	lw r9,(fp+-104)
  863328:	e3 ff ff 79 	bi 86310c <unlzma+0x19e4>
  86332c:	2b 61 ff d0 	lw r1,(fp+-48)
  863330:	2b 62 ff ac 	lw r2,(fp+-84)
  863334:	5b 67 ff 94 	sw (fp+-108),r7
  863338:	5b 69 ff 98 	sw (fp+-104),r9
  86333c:	d8 40 00 00 	call r2
  863340:	2b 67 ff 94 	lw r7,(fp+-108)
  863344:	2b 69 ff 98 	lw r9,(fp+-104)
  863348:	e3 ff ff 44 	bi 863058 <unlzma+0x1930>
  86334c:	2b 66 ff f4 	lw r6,(fp+-12)
  863350:	43 63 ff f8 	lbu r3,(fp+-8)
  863354:	2b 65 ff cc 	lw r5,(fp+-52)
  863358:	3c c6 00 08 	sli r6,r6,8
  86335c:	b8 66 18 00 	or r3,r3,r6
  863360:	2b 66 ff 9c 	lw r6,(fp+-100)
  863364:	c8 03 10 00 	sub r2,r0,r3
  863368:	b4 a2 20 00 	add r4,r5,r2
  86336c:	b4 83 08 00 	add r1,r4,r3
  863370:	54 23 00 0a 	bgu r1,r3,863398 <unlzma+0x1c70>
  863374:	2b 62 ff bc 	lw r2,(fp+-68)
  863378:	ca 65 28 00 	sub r5,r19,r5
  86337c:	5b 66 ff 9c 	sw (fp+-100),r6
  863380:	b4 45 28 00 	add r5,r2,r5
  863384:	40 ab 00 00 	lbu r11,(r5+0)
  863388:	b4 53 28 00 	add r5,r2,r19
  86338c:	36 73 00 01 	addi r19,r19,1
  863390:	30 ab 00 00 	sb (r5+0),r11
  863394:	e3 ff fb 9a 	bi 8621fc <unlzma+0xad4>
  863398:	b8 80 28 00 	mv r5,r4
  86339c:	e3 ff ff f3 	bi 863368 <unlzma+0x1c40>
  8633a0:	2b 61 ff d0 	lw r1,(fp+-48)
  8633a4:	2b 62 ff ac 	lw r2,(fp+-84)
  8633a8:	5b 67 ff 94 	sw (fp+-108),r7
  8633ac:	5b 69 ff 98 	sw (fp+-104),r9
  8633b0:	d8 40 00 00 	call r2
  8633b4:	2b 67 ff 94 	lw r7,(fp+-108)
  8633b8:	2b 69 ff 98 	lw r9,(fp+-104)
  8633bc:	e3 ff ff 41 	bi 8630c0 <unlzma+0x1998>
  8633c0:	2b 61 ff d0 	lw r1,(fp+-48)
  8633c4:	2b 62 ff ac 	lw r2,(fp+-84)
  8633c8:	5b 67 ff 94 	sw (fp+-108),r7
  8633cc:	5b 69 ff 98 	sw (fp+-104),r9
  8633d0:	d8 40 00 00 	call r2
  8633d4:	2b 67 ff 94 	lw r7,(fp+-108)
  8633d8:	2b 69 ff 98 	lw r9,(fp+-104)
  8633dc:	e3 ff ff 2c 	bi 86308c <unlzma+0x1964>
  8633e0:	2b 61 ff d0 	lw r1,(fp+-48)
  8633e4:	2b 62 ff ac 	lw r2,(fp+-84)
  8633e8:	5b 67 ff 94 	sw (fp+-108),r7
  8633ec:	5b 69 ff 98 	sw (fp+-104),r9
  8633f0:	d8 40 00 00 	call r2
  8633f4:	2b 67 ff 94 	lw r7,(fp+-108)
  8633f8:	2b 69 ff 98 	lw r9,(fp+-104)
  8633fc:	e3 ff ff 51 	bi 863140 <unlzma+0x1a18>
  863400:	2b 62 ff cc 	lw r2,(fp+-52)
  863404:	5b 6d ff 9c 	sw (fp+-100),r13
  863408:	5c 55 fb 7d 	bne r2,r21,8621fc <unlzma+0xad4>
  86340c:	e3 ff fa d4 	bi 861f5c <unlzma+0x834>
  863410:	2b 61 ff ec 	lw r1,(fp+-20)
  863414:	01 4c 00 05 	srui r12,r10,5
  863418:	2b 62 ff e0 	lw r2,(fp+-32)
  86341c:	c9 4c 50 00 	sub r10,r10,r12
  863420:	5b 61 ff e0 	sw (fp+-32),r1
  863424:	0d 6a 00 00 	sh (r11+0),r10
  863428:	cb 0f c0 00 	sub r24,r24,r15
  86342c:	5b 62 ff ec 	sw (fp+-20),r2
  863430:	c9 cf 78 00 	sub r15,r14,r15
  863434:	e3 ff ff 82 	bi 86323c <unlzma+0x1b14>
  863438:	78 09 00 86 	mvhi r9,0x86
  86343c:	2b 62 ff ac 	lw r2,(fp+-84)
  863440:	b9 20 08 00 	mv r1,r9
  863444:	5b 64 ff 94 	sw (fp+-108),r4
  863448:	5b 65 ff 98 	sw (fp+-104),r5
  86344c:	38 21 e1 54 	ori r1,r1,0xe154
  863450:	d8 40 00 00 	call r2
  863454:	2b 64 ff 94 	lw r4,(fp+-108)
  863458:	2b 65 ff 98 	lw r5,(fp+-104)
  86345c:	e3 ff f9 52 	bi 8619a4 <unlzma+0x27c>
  863460:	78 09 00 86 	mvhi r9,0x86
  863464:	2b 62 ff ac 	lw r2,(fp+-84)
  863468:	b9 20 08 00 	mv r1,r9
  86346c:	5b 64 ff 94 	sw (fp+-108),r4
  863470:	5b 65 ff 98 	sw (fp+-104),r5
  863474:	38 21 e1 54 	ori r1,r1,0xe154
  863478:	d8 40 00 00 	call r2
  86347c:	2b 64 ff 94 	lw r4,(fp+-108)
  863480:	2b 65 ff 98 	lw r5,(fp+-104)
  863484:	e3 ff f9 57 	bi 8619e0 <unlzma+0x2b8>
  863488:	78 09 00 86 	mvhi r9,0x86
  86348c:	2b 62 ff ac 	lw r2,(fp+-84)
  863490:	b9 20 08 00 	mv r1,r9
  863494:	5b 64 ff 94 	sw (fp+-108),r4
  863498:	5b 65 ff 98 	sw (fp+-104),r5
  86349c:	38 21 e1 54 	ori r1,r1,0xe154
  8634a0:	d8 40 00 00 	call r2
  8634a4:	2b 64 ff 94 	lw r4,(fp+-108)
  8634a8:	2b 65 ff 98 	lw r5,(fp+-104)
  8634ac:	e3 ff f9 5c 	bi 861a1c <unlzma+0x2f4>
  8634b0:	78 09 00 86 	mvhi r9,0x86
  8634b4:	2b 62 ff ac 	lw r2,(fp+-84)
  8634b8:	b9 20 08 00 	mv r1,r9
  8634bc:	5b 64 ff 94 	sw (fp+-108),r4
  8634c0:	5b 65 ff 98 	sw (fp+-104),r5
  8634c4:	38 21 e1 54 	ori r1,r1,0xe154
  8634c8:	d8 40 00 00 	call r2
  8634cc:	2b 64 ff 94 	lw r4,(fp+-108)
  8634d0:	2b 65 ff 98 	lw r5,(fp+-104)
  8634d4:	e3 ff f9 61 	bi 861a58 <unlzma+0x330>
  8634d8:	78 09 00 86 	mvhi r9,0x86
  8634dc:	2b 62 ff ac 	lw r2,(fp+-84)
  8634e0:	b9 20 08 00 	mv r1,r9
  8634e4:	5b 64 ff 94 	sw (fp+-108),r4
  8634e8:	5b 65 ff 98 	sw (fp+-104),r5
  8634ec:	38 21 e1 54 	ori r1,r1,0xe154
  8634f0:	d8 40 00 00 	call r2
  8634f4:	2b 64 ff 94 	lw r4,(fp+-108)
  8634f8:	2b 65 ff 98 	lw r5,(fp+-104)
  8634fc:	e3 ff f8 ee 	bi 8618b4 <unlzma+0x18c>
  863500:	78 09 00 86 	mvhi r9,0x86
  863504:	2b 62 ff ac 	lw r2,(fp+-84)
  863508:	b9 20 08 00 	mv r1,r9
  86350c:	5b 64 ff 94 	sw (fp+-108),r4
  863510:	5b 65 ff 98 	sw (fp+-104),r5
  863514:	38 21 e1 54 	ori r1,r1,0xe154
  863518:	d8 40 00 00 	call r2
  86351c:	2b 64 ff 94 	lw r4,(fp+-108)
  863520:	2b 65 ff 98 	lw r5,(fp+-104)
  863524:	e3 ff f8 f3 	bi 8618f0 <unlzma+0x1c8>
  863528:	78 09 00 86 	mvhi r9,0x86
  86352c:	2b 62 ff ac 	lw r2,(fp+-84)
  863530:	b9 20 08 00 	mv r1,r9
  863534:	5b 64 ff 94 	sw (fp+-108),r4
  863538:	5b 65 ff 98 	sw (fp+-104),r5
  86353c:	38 21 e1 54 	ori r1,r1,0xe154
  863540:	d8 40 00 00 	call r2
  863544:	2b 64 ff 94 	lw r4,(fp+-108)
  863548:	2b 65 ff 98 	lw r5,(fp+-104)
  86354c:	e3 ff f8 f8 	bi 86192c <unlzma+0x204>
  863550:	78 09 00 86 	mvhi r9,0x86
  863554:	2b 62 ff ac 	lw r2,(fp+-84)
  863558:	b9 20 08 00 	mv r1,r9
  86355c:	5b 64 ff 94 	sw (fp+-108),r4
  863560:	5b 65 ff 98 	sw (fp+-104),r5
  863564:	38 21 e1 54 	ori r1,r1,0xe154
  863568:	d8 40 00 00 	call r2
  86356c:	2b 64 ff 94 	lw r4,(fp+-108)
  863570:	2b 65 ff 98 	lw r5,(fp+-104)
  863574:	e3 ff f8 fd 	bi 861968 <unlzma+0x240>
  863578:	78 09 00 86 	mvhi r9,0x86
  86357c:	2b 62 ff ac 	lw r2,(fp+-84)
  863580:	b9 20 08 00 	mv r1,r9
  863584:	5b 64 ff 94 	sw (fp+-108),r4
  863588:	5b 65 ff 98 	sw (fp+-104),r5
  86358c:	38 21 e1 54 	ori r1,r1,0xe154
  863590:	d8 40 00 00 	call r2
  863594:	2b 64 ff 94 	lw r4,(fp+-108)
  863598:	2b 65 ff 98 	lw r5,(fp+-104)
  86359c:	e3 ff f8 a8 	bi 86183c <unlzma+0x114>
  8635a0:	78 09 00 86 	mvhi r9,0x86
  8635a4:	2b 62 ff ac 	lw r2,(fp+-84)
  8635a8:	b9 20 08 00 	mv r1,r9
  8635ac:	5b 64 ff 94 	sw (fp+-108),r4
  8635b0:	5b 65 ff 98 	sw (fp+-104),r5
  8635b4:	38 21 e1 54 	ori r1,r1,0xe154
  8635b8:	d8 40 00 00 	call r2
  8635bc:	2b 64 ff 94 	lw r4,(fp+-108)
  8635c0:	2b 65 ff 98 	lw r5,(fp+-104)
  8635c4:	e3 ff f8 ad 	bi 861878 <unlzma+0x150>
  8635c8:	78 09 00 86 	mvhi r9,0x86
  8635cc:	2b 62 ff ac 	lw r2,(fp+-84)
  8635d0:	b9 20 08 00 	mv r1,r9
  8635d4:	5b 64 ff 94 	sw (fp+-108),r4
  8635d8:	5b 65 ff 98 	sw (fp+-104),r5
  8635dc:	38 21 e1 54 	ori r1,r1,0xe154
  8635e0:	d8 40 00 00 	call r2
  8635e4:	2b 64 ff 94 	lw r4,(fp+-108)
  8635e8:	2b 65 ff 98 	lw r5,(fp+-104)
  8635ec:	e3 ff f8 84 	bi 8617fc <unlzma+0xd4>
  8635f0:	78 09 00 86 	mvhi r9,0x86
  8635f4:	2b 62 ff ac 	lw r2,(fp+-84)
  8635f8:	b9 20 08 00 	mv r1,r9
  8635fc:	5b 64 ff 94 	sw (fp+-108),r4
  863600:	5b 65 ff 98 	sw (fp+-104),r5
  863604:	38 21 e1 54 	ori r1,r1,0xe154
  863608:	d8 40 00 00 	call r2
  86360c:	2b 64 ff 94 	lw r4,(fp+-108)
  863610:	2b 65 ff 98 	lw r5,(fp+-104)
  863614:	e3 ff f8 6c 	bi 8617c4 <unlzma+0x9c>

00863618 <lzma_error>:
  863618:	37 9c ff fc 	addi sp,sp,-4
  86361c:	5b 9d 00 04 	sw (sp+4),ra
  863620:	b8 20 10 00 	mv r2,r1
  863624:	78 01 00 86 	mvhi r1,0x86
  863628:	38 21 e1 94 	ori r1,r1,0xe194
  86362c:	f8 00 07 c4 	calli 86553c <printf>
  863630:	2b 9d 00 04 	lw ra,(sp+4)
  863634:	37 9c 00 04 	addi sp,sp,4
  863638:	c3 a0 00 00 	ret

0086363c <boot>:
  86363c:	37 9c ff e8 	addi sp,sp,-24
  863640:	5b 8b 00 08 	sw (sp+8),r11
  863644:	5b 9d 00 04 	sw (sp+4),ra
  863648:	b8 20 58 00 	mv r11,r1
  86364c:	5b 82 00 18 	sw (sp+24),r2
  863650:	5b 83 00 14 	sw (sp+20),r3
  863654:	5b 84 00 10 	sw (sp+16),r4
  863658:	5b 85 00 0c 	sw (sp+12),r5
  86365c:	f8 00 1e 1c 	calli 86aecc <vga_blank>
  863660:	34 01 00 01 	mvi r1,1
  863664:	f8 00 0c 7f 	calli 866860 <uart_force_sync>
  863668:	34 01 00 00 	mvi r1,0
  86366c:	d0 21 00 00 	wcsr IM,r1
  863670:	d0 01 00 00 	wcsr IE,r1
  863674:	2b 82 00 18 	lw r2,(sp+24)
  863678:	2b 83 00 14 	lw r3,(sp+20)
  86367c:	2b 84 00 10 	lw r4,(sp+16)
  863680:	2b 85 00 0c 	lw r5,(sp+12)
  863684:	b9 60 08 00 	mv r1,r11
  863688:	f8 00 02 62 	calli 864010 <boot_helper>
  86368c:	e0 00 00 00 	bi 86368c <boot+0x50>

00863690 <tryload>:
  863690:	37 9c ff f0 	addi sp,sp,-16
  863694:	5b 8b 00 0c 	sw (sp+12),r11
  863698:	5b 8c 00 08 	sw (sp+8),r12
  86369c:	5b 9d 00 04 	sw (sp+4),ra
  8636a0:	78 03 01 00 	mvhi r3,0x100
  8636a4:	37 84 00 10 	addi r4,sp,16
  8636a8:	b8 20 60 00 	mv r12,r1
  8636ac:	f8 00 0a 1b 	calli 865f18 <fatfs_load>
  8636b0:	34 0b ff ff 	mvi r11,-1
  8636b4:	4c 01 00 0d 	bge r0,r1,8636e8 <tryload+0x58>
  8636b8:	2b 82 00 10 	lw r2,(sp+16)
  8636bc:	4c 22 00 05 	bge r1,r2,8636d0 <tryload+0x40>
  8636c0:	78 01 00 86 	mvhi r1,0x86
  8636c4:	38 21 e1 a4 	ori r1,r1,0xe1a4
  8636c8:	f8 00 07 9d 	calli 86553c <printf>
  8636cc:	e0 00 00 07 	bi 8636e8 <tryload+0x58>
  8636d0:	78 04 00 86 	mvhi r4,0x86
  8636d4:	b8 80 08 00 	mv r1,r4
  8636d8:	38 21 e1 ec 	ori r1,r1,0xe1ec
  8636dc:	b9 80 18 00 	mv r3,r12
  8636e0:	f8 00 07 97 	calli 86553c <printf>
  8636e4:	2b 8b 00 10 	lw r11,(sp+16)
  8636e8:	b9 60 08 00 	mv r1,r11
  8636ec:	2b 9d 00 04 	lw ra,(sp+4)
  8636f0:	2b 8b 00 0c 	lw r11,(sp+12)
  8636f4:	2b 8c 00 08 	lw r12,(sp+8)
  8636f8:	37 9c 00 10 	addi sp,sp,16
  8636fc:	c3 a0 00 00 	ret

00863700 <tftp_get_v.clone.0>:
  863700:	37 9c ff f4 	addi sp,sp,-12
  863704:	5b 8b 00 0c 	sw (sp+12),r11
  863708:	5b 8c 00 08 	sw (sp+8),r12
  86370c:	5b 9d 00 04 	sw (sp+4),ra
  863710:	78 03 00 86 	mvhi r3,0x86
  863714:	38 63 e5 88 	ori r3,r3,0xe588
  863718:	b8 20 60 00 	mv r12,r1
  86371c:	28 61 00 00 	lw r1,(r3+0)
  863720:	b8 40 18 00 	mv r3,r2
  863724:	b9 80 10 00 	mv r2,r12
  863728:	f8 00 28 00 	calli 86d728 <tftp_get>
  86372c:	b8 20 58 00 	mv r11,r1
  863730:	4c 01 00 0c 	bge r0,r1,863760 <tftp_get_v.clone.0+0x60>
  863734:	78 01 00 86 	mvhi r1,0x86
  863738:	b9 60 10 00 	mv r2,r11
  86373c:	b9 80 18 00 	mv r3,r12
  863740:	38 21 e2 10 	ori r1,r1,0xe210
  863744:	f8 00 07 7e 	calli 86553c <printf>
  863748:	b9 60 08 00 	mv r1,r11
  86374c:	2b 9d 00 04 	lw ra,(sp+4)
  863750:	2b 8b 00 0c 	lw r11,(sp+12)
  863754:	2b 8c 00 08 	lw r12,(sp+8)
  863758:	37 9c 00 0c 	addi sp,sp,12
  86375c:	c3 a0 00 00 	ret
  863760:	78 01 00 86 	mvhi r1,0x86
  863764:	b9 80 10 00 	mv r2,r12
  863768:	38 21 e2 48 	ori r1,r1,0xe248
  86376c:	f8 00 07 74 	calli 86553c <printf>
  863770:	b9 60 08 00 	mv r1,r11
  863774:	2b 9d 00 04 	lw ra,(sp+4)
  863778:	2b 8b 00 0c 	lw r11,(sp+12)
  86377c:	2b 8c 00 08 	lw r12,(sp+8)
  863780:	37 9c 00 0c 	addi sp,sp,12
  863784:	c3 a0 00 00 	ret

00863788 <serialboot>:
  863788:	37 9c fe d0 	addi sp,sp,-304
  86378c:	5b 8b 00 2c 	sw (sp+44),r11
  863790:	5b 8c 00 28 	sw (sp+40),r12
  863794:	5b 8d 00 24 	sw (sp+36),r13
  863798:	5b 8e 00 20 	sw (sp+32),r14
  86379c:	5b 8f 00 1c 	sw (sp+28),r15
  8637a0:	5b 90 00 18 	sw (sp+24),r16
  8637a4:	5b 91 00 14 	sw (sp+20),r17
  8637a8:	5b 92 00 10 	sw (sp+16),r18
  8637ac:	5b 93 00 0c 	sw (sp+12),r19
  8637b0:	5b 94 00 08 	sw (sp+8),r20
  8637b4:	5b 9d 00 04 	sw (sp+4),ra
  8637b8:	78 01 00 86 	mvhi r1,0x86
  8637bc:	38 21 e2 6c 	ori r1,r1,0xe26c
  8637c0:	f8 00 07 5f 	calli 86553c <printf>
  8637c4:	34 01 00 00 	mvi r1,0
  8637c8:	78 0b 00 86 	mvhi r11,0x86
  8637cc:	f8 00 19 a2 	calli 869e54 <usb_debug_enable>
  8637d0:	39 6b e5 f4 	ori r11,r11,0xe5f4
  8637d4:	34 01 00 73 	mvi r1,115
  8637d8:	35 6b 00 01 	addi r11,r11,1
  8637dc:	f8 00 0b e2 	calli 866764 <uart_write>
  8637e0:	11 61 00 00 	lb r1,(r11+0)
  8637e4:	5c 20 ff fd 	bne r1,r0,8637d8 <serialboot+0x50>
  8637e8:	78 01 00 86 	mvhi r1,0x86
  8637ec:	38 21 e5 8c 	ori r1,r1,0xe58c
  8637f0:	78 0d 00 86 	mvhi r13,0x86
  8637f4:	28 2b 00 00 	lw r11,(r1+0)
  8637f8:	34 0c 00 00 	mvi r12,0
  8637fc:	39 ad e5 cc 	ori r13,r13,0xe5cc
  863800:	34 0e 00 0e 	mvi r14,14
  863804:	e0 00 00 03 	bi 863810 <serialboot+0x88>
  863808:	35 6b ff ff 	addi r11,r11,-1
  86380c:	45 60 00 0a 	be r11,r0,863834 <serialboot+0xac>
  863810:	f8 00 0b b2 	calli 8666d8 <uart_read_nonblock>
  863814:	44 20 ff fd 	be r1,r0,863808 <serialboot+0x80>
  863818:	f8 00 0b 9f 	calli 866694 <uart_read>
  86381c:	b5 ac 10 00 	add r2,r13,r12
  863820:	10 42 00 00 	lb r2,(r2+0)
  863824:	44 41 00 16 	be r2,r1,86387c <serialboot+0xf4>
  863828:	35 6b ff ff 	addi r11,r11,-1
  86382c:	64 2c 00 7a 	cmpei r12,r1,122
  863830:	5d 60 ff f8 	bne r11,r0,863810 <serialboot+0x88>
  863834:	78 01 00 86 	mvhi r1,0x86
  863838:	38 21 e2 c0 	ori r1,r1,0xe2c0
  86383c:	f8 00 07 40 	calli 86553c <printf>
  863840:	34 01 00 01 	mvi r1,1
  863844:	f8 00 19 84 	calli 869e54 <usb_debug_enable>
  863848:	2b 9d 00 04 	lw ra,(sp+4)
  86384c:	2b 8b 00 2c 	lw r11,(sp+44)
  863850:	2b 8c 00 28 	lw r12,(sp+40)
  863854:	2b 8d 00 24 	lw r13,(sp+36)
  863858:	2b 8e 00 20 	lw r14,(sp+32)
  86385c:	2b 8f 00 1c 	lw r15,(sp+28)
  863860:	2b 90 00 18 	lw r16,(sp+24)
  863864:	2b 91 00 14 	lw r17,(sp+20)
  863868:	2b 92 00 10 	lw r18,(sp+16)
  86386c:	2b 93 00 0c 	lw r19,(sp+12)
  863870:	2b 94 00 08 	lw r20,(sp+8)
  863874:	37 9c 01 30 	addi sp,sp,304
  863878:	c3 a0 00 00 	ret
  86387c:	35 8c 00 01 	addi r12,r12,1
  863880:	5d 8e ff e2 	bne r12,r14,863808 <serialboot+0x80>
  863884:	78 0e 00 86 	mvhi r14,0x86
  863888:	34 10 00 00 	mvi r16,0
  86388c:	34 11 00 00 	mvi r17,0
  863890:	34 12 00 00 	mvi r18,0
  863894:	34 0d 00 00 	mvi r13,0
  863898:	37 93 00 33 	addi r19,sp,51
  86389c:	37 8c 00 30 	addi r12,sp,48
  8638a0:	34 0f 00 05 	mvi r15,5
  8638a4:	39 ce e5 dc 	ori r14,r14,0xe5dc
  8638a8:	34 14 00 04 	mvi r20,4
  8638ac:	f8 00 0b 7a 	calli 866694 <uart_read>
  8638b0:	33 81 00 30 	sb (sp+48),r1
  8638b4:	f8 00 0b 78 	calli 866694 <uart_read>
  8638b8:	33 81 00 31 	sb (sp+49),r1
  8638bc:	f8 00 0b 76 	calli 866694 <uart_read>
  8638c0:	33 81 00 32 	sb (sp+50),r1
  8638c4:	f8 00 0b 74 	calli 866694 <uart_read>
  8638c8:	43 85 00 30 	lbu r5,(sp+48)
  8638cc:	33 81 00 33 	sb (sp+51),r1
  8638d0:	34 04 00 00 	mvi r4,0
  8638d4:	44 a0 00 08 	be r5,r0,8638f4 <serialboot+0x16c>
  8638d8:	34 0b 00 00 	mvi r11,0
  8638dc:	f8 00 0b 6e 	calli 866694 <uart_read>
  8638e0:	43 84 00 30 	lbu r4,(sp+48)
  8638e4:	b5 8b 28 00 	add r5,r12,r11
  8638e8:	30 a1 00 04 	sb (r5+4),r1
  8638ec:	35 6b 00 01 	addi r11,r11,1
  8638f0:	48 8b ff fb 	bg r4,r11,8638dc <serialboot+0x154>
  8638f4:	43 8b 00 31 	lbu r11,(sp+49)
  8638f8:	43 85 00 32 	lbu r5,(sp+50)
  8638fc:	ba 60 08 00 	mv r1,r19
  863900:	3d 6b 00 08 	sli r11,r11,8
  863904:	34 82 00 01 	addi r2,r4,1
  863908:	b9 65 58 00 	or r11,r11,r5
  86390c:	f8 00 06 19 	calli 865170 <crc16>
  863910:	45 61 00 06 	be r11,r1,863928 <serialboot+0x1a0>
  863914:	35 ad 00 01 	addi r13,r13,1
  863918:	45 af 00 0a 	be r13,r15,863940 <serialboot+0x1b8>
  86391c:	34 01 00 43 	mvi r1,67
  863920:	f8 00 0b 91 	calli 866764 <uart_write>
  863924:	e3 ff ff e2 	bi 8638ac <serialboot+0x124>
  863928:	43 81 00 33 	lbu r1,(sp+51)
  86392c:	54 2f 00 6e 	bgu r1,r15,863ae4 <serialboot+0x35c>
  863930:	3c 21 00 02 	sli r1,r1,2
  863934:	b5 c1 08 00 	add r1,r14,r1
  863938:	28 21 00 00 	lw r1,(r1+0)
  86393c:	c0 20 00 00 	b r1
  863940:	78 01 00 86 	mvhi r1,0x86
  863944:	38 21 e2 94 	ori r1,r1,0xe294
  863948:	f8 00 06 fd 	calli 86553c <printf>
  86394c:	34 01 00 01 	mvi r1,1
  863950:	f8 00 19 41 	calli 869e54 <usb_debug_enable>
  863954:	e3 ff ff bd 	bi 863848 <serialboot+0xc0>
  863958:	43 91 00 34 	lbu r17,(sp+52)
  86395c:	43 83 00 35 	lbu r3,(sp+53)
  863960:	43 82 00 36 	lbu r2,(sp+54)
  863964:	43 81 00 37 	lbu r1,(sp+55)
  863968:	3c 63 00 10 	sli r3,r3,16
  86396c:	3e 31 00 18 	sli r17,r17,24
  863970:	3c 42 00 08 	sli r2,r2,8
  863974:	ba 23 88 00 	or r17,r17,r3
  863978:	ba 21 88 00 	or r17,r17,r1
  86397c:	34 01 00 4b 	mvi r1,75
  863980:	ba 22 88 00 	or r17,r17,r2
  863984:	34 0d 00 00 	mvi r13,0
  863988:	f8 00 0b 77 	calli 866764 <uart_write>
  86398c:	e3 ff ff c8 	bi 8638ac <serialboot+0x124>
  863990:	43 92 00 34 	lbu r18,(sp+52)
  863994:	43 83 00 35 	lbu r3,(sp+53)
  863998:	43 82 00 36 	lbu r2,(sp+54)
  86399c:	43 81 00 37 	lbu r1,(sp+55)
  8639a0:	3c 63 00 10 	sli r3,r3,16
  8639a4:	3e 52 00 18 	sli r18,r18,24
  8639a8:	3c 42 00 08 	sli r2,r2,8
  8639ac:	ba 43 90 00 	or r18,r18,r3
  8639b0:	ba 41 90 00 	or r18,r18,r1
  8639b4:	34 01 00 4b 	mvi r1,75
  8639b8:	ba 42 90 00 	or r18,r18,r2
  8639bc:	34 0d 00 00 	mvi r13,0
  8639c0:	f8 00 0b 69 	calli 866764 <uart_write>
  8639c4:	e3 ff ff ba 	bi 8638ac <serialboot+0x124>
  8639c8:	43 8b 00 34 	lbu r11,(sp+52)
  8639cc:	43 83 00 35 	lbu r3,(sp+53)
  8639d0:	43 82 00 36 	lbu r2,(sp+54)
  8639d4:	43 81 00 37 	lbu r1,(sp+55)
  8639d8:	3c 63 00 10 	sli r3,r3,16
  8639dc:	3d 6b 00 18 	sli r11,r11,24
  8639e0:	3c 42 00 08 	sli r2,r2,8
  8639e4:	b9 63 58 00 	or r11,r11,r3
  8639e8:	b9 61 58 00 	or r11,r11,r1
  8639ec:	34 01 00 4b 	mvi r1,75
  8639f0:	b9 62 58 00 	or r11,r11,r2
  8639f4:	f8 00 0b 5c 	calli 866764 <uart_write>
  8639f8:	78 04 40 66 	mvhi r4,0x4066
  8639fc:	38 84 16 68 	ori r4,r4,0x1668
  863a00:	28 8c 00 00 	lw r12,(r4+0)
  863a04:	f8 00 1d 32 	calli 86aecc <vga_blank>
  863a08:	34 01 00 01 	mvi r1,1
  863a0c:	f8 00 0b 95 	calli 866860 <uart_force_sync>
  863a10:	34 01 00 00 	mvi r1,0
  863a14:	d0 21 00 00 	wcsr IM,r1
  863a18:	d0 01 00 00 	wcsr IE,r1
  863a1c:	ba 40 08 00 	mv r1,r18
  863a20:	ba 20 10 00 	mv r2,r17
  863a24:	ba 00 18 00 	mv r3,r16
  863a28:	b9 80 20 00 	mv r4,r12
  863a2c:	b9 60 28 00 	mv r5,r11
  863a30:	f8 00 01 78 	calli 864010 <boot_helper>
  863a34:	e0 00 00 00 	bi 863a34 <serialboot+0x2ac>
  863a38:	43 84 00 30 	lbu r4,(sp+48)
  863a3c:	43 85 00 34 	lbu r5,(sp+52)
  863a40:	43 83 00 35 	lbu r3,(sp+53)
  863a44:	43 81 00 36 	lbu r1,(sp+54)
  863a48:	43 82 00 37 	lbu r2,(sp+55)
  863a4c:	4e 84 00 0f 	bge r20,r4,863a88 <serialboot+0x300>
  863a50:	3c a5 00 18 	sli r5,r5,24
  863a54:	3c 63 00 10 	sli r3,r3,16
  863a58:	3c 21 00 08 	sli r1,r1,8
  863a5c:	b8 a3 28 00 	or r5,r5,r3
  863a60:	b8 a2 28 00 	or r5,r5,r2
  863a64:	b8 a1 28 00 	or r5,r5,r1
  863a68:	34 04 00 04 	mvi r4,4
  863a6c:	b5 84 30 00 	add r6,r12,r4
  863a70:	40 c6 00 04 	lbu r6,(r6+4)
  863a74:	34 84 00 01 	addi r4,r4,1
  863a78:	30 a6 00 00 	sb (r5+0),r6
  863a7c:	43 86 00 30 	lbu r6,(sp+48)
  863a80:	34 a5 00 01 	addi r5,r5,1
  863a84:	48 c4 ff fa 	bg r6,r4,863a6c <serialboot+0x2e4>
  863a88:	34 01 00 4b 	mvi r1,75
  863a8c:	f8 00 0b 36 	calli 866764 <uart_write>
  863a90:	34 0d 00 00 	mvi r13,0
  863a94:	e3 ff ff 86 	bi 8638ac <serialboot+0x124>
  863a98:	34 01 00 4b 	mvi r1,75
  863a9c:	f8 00 0b 32 	calli 866764 <uart_write>
  863aa0:	34 01 00 01 	mvi r1,1
  863aa4:	f8 00 18 ec 	calli 869e54 <usb_debug_enable>
  863aa8:	e3 ff ff 68 	bi 863848 <serialboot+0xc0>
  863aac:	43 90 00 34 	lbu r16,(sp+52)
  863ab0:	43 83 00 35 	lbu r3,(sp+53)
  863ab4:	43 82 00 36 	lbu r2,(sp+54)
  863ab8:	43 81 00 37 	lbu r1,(sp+55)
  863abc:	3c 63 00 10 	sli r3,r3,16
  863ac0:	3e 10 00 18 	sli r16,r16,24
  863ac4:	3c 42 00 08 	sli r2,r2,8
  863ac8:	ba 03 80 00 	or r16,r16,r3
  863acc:	ba 01 80 00 	or r16,r16,r1
  863ad0:	34 01 00 4b 	mvi r1,75
  863ad4:	ba 02 80 00 	or r16,r16,r2
  863ad8:	34 0d 00 00 	mvi r13,0
  863adc:	f8 00 0b 22 	calli 866764 <uart_write>
  863ae0:	e3 ff ff 73 	bi 8638ac <serialboot+0x124>
  863ae4:	35 ad 00 01 	addi r13,r13,1
  863ae8:	45 af ff 96 	be r13,r15,863940 <serialboot+0x1b8>
  863aec:	34 01 00 55 	mvi r1,85
  863af0:	f8 00 0b 1d 	calli 866764 <uart_write>
  863af4:	e3 ff ff 6e 	bi 8638ac <serialboot+0x124>

00863af8 <netboot>:
  863af8:	37 9c ff f0 	addi sp,sp,-16
  863afc:	5b 8b 00 0c 	sw (sp+12),r11
  863b00:	5b 8c 00 08 	sw (sp+8),r12
  863b04:	5b 9d 00 04 	sw (sp+4),ra
  863b08:	78 01 00 86 	mvhi r1,0x86
  863b0c:	38 21 e2 cc 	ori r1,r1,0xe2cc
  863b10:	f8 00 06 8b 	calli 86553c <printf>
  863b14:	78 01 00 86 	mvhi r1,0x86
  863b18:	78 03 00 86 	mvhi r3,0x86
  863b1c:	38 21 e5 90 	ori r1,r1,0xe590
  863b20:	38 63 e5 94 	ori r3,r3,0xe594
  863b24:	28 2b 00 00 	lw r11,(r1+0)
  863b28:	28 61 00 00 	lw r1,(r3+0)
  863b2c:	78 04 00 86 	mvhi r4,0x86
  863b30:	38 84 e5 98 	ori r4,r4,0xe598
  863b34:	40 26 00 00 	lbu r6,(r1+0)
  863b38:	28 81 00 00 	lw r1,(r4+0)
  863b3c:	78 05 00 86 	mvhi r5,0x86
  863b40:	38 a5 e5 9c 	ori r5,r5,0xe59c
  863b44:	40 27 00 00 	lbu r7,(r1+0)
  863b48:	28 a1 00 00 	lw r1,(r5+0)
  863b4c:	78 04 00 86 	mvhi r4,0x86
  863b50:	38 84 e5 a0 	ori r4,r4,0xe5a0
  863b54:	40 23 00 00 	lbu r3,(r1+0)
  863b58:	28 81 00 00 	lw r1,(r4+0)
  863b5c:	78 05 00 86 	mvhi r5,0x86
  863b60:	38 a5 e5 a4 	ori r5,r5,0xe5a4
  863b64:	40 24 00 00 	lbu r4,(r1+0)
  863b68:	28 a1 00 00 	lw r1,(r5+0)
  863b6c:	41 62 00 00 	lbu r2,(r11+0)
  863b70:	40 25 00 00 	lbu r5,(r1+0)
  863b74:	78 01 00 86 	mvhi r1,0x86
  863b78:	38 21 e2 e8 	ori r1,r1,0xe2e8
  863b7c:	f8 00 06 70 	calli 86553c <printf>
  863b80:	78 01 00 86 	mvhi r1,0x86
  863b84:	34 02 00 c0 	mvi r2,192
  863b88:	34 03 00 a8 	mvi r3,168
  863b8c:	34 04 00 00 	mvi r4,0
  863b90:	34 05 00 2a 	mvi r5,42
  863b94:	38 21 e3 18 	ori r1,r1,0xe318
  863b98:	f8 00 06 69 	calli 86553c <printf>
  863b9c:	78 01 00 86 	mvhi r1,0x86
  863ba0:	34 04 00 00 	mvi r4,0
  863ba4:	34 03 00 a8 	mvi r3,168
  863ba8:	34 05 00 0e 	mvi r5,14
  863bac:	34 02 00 c0 	mvi r2,192
  863bb0:	38 21 e3 34 	ori r1,r1,0xe334
  863bb4:	f8 00 06 62 	calli 86553c <printf>
  863bb8:	78 03 00 86 	mvhi r3,0x86
  863bbc:	38 63 e5 a8 	ori r3,r3,0xe5a8
  863bc0:	28 62 00 00 	lw r2,(r3+0)
  863bc4:	b9 60 08 00 	mv r1,r11
  863bc8:	78 0b 00 86 	mvhi r11,0x86
  863bcc:	f8 00 26 0a 	calli 86d3f4 <microudp_start>
  863bd0:	78 04 00 86 	mvhi r4,0x86
  863bd4:	38 84 e5 88 	ori r4,r4,0xe588
  863bd8:	28 81 00 00 	lw r1,(r4+0)
  863bdc:	39 6b e3 50 	ori r11,r11,0xe350
  863be0:	b9 60 10 00 	mv r2,r11
  863be4:	78 03 40 00 	mvhi r3,0x4000
  863be8:	f8 00 26 d0 	calli 86d728 <tftp_get>
  863bec:	4c 01 00 27 	bge r0,r1,863c88 <netboot+0x190>
  863bf0:	b8 20 10 00 	mv r2,r1
  863bf4:	78 01 00 86 	mvhi r1,0x86
  863bf8:	b9 60 18 00 	mv r3,r11
  863bfc:	38 21 e2 10 	ori r1,r1,0xe210
  863c00:	f8 00 06 4f 	calli 86553c <printf>
  863c04:	78 0b 41 00 	mvhi r11,0x4100
  863c08:	78 01 00 86 	mvhi r1,0x86
  863c0c:	38 21 e3 5c 	ori r1,r1,0xe35c
  863c10:	b9 60 10 00 	mv r2,r11
  863c14:	fb ff fe bb 	calli 863700 <tftp_get_v.clone.0>
  863c18:	4c 01 00 30 	bge r0,r1,863cd8 <netboot+0x1e0>
  863c1c:	b4 2b 08 00 	add r1,r1,r11
  863c20:	30 20 00 00 	sb (r1+0),r0
  863c24:	b9 60 60 00 	mv r12,r11
  863c28:	78 05 00 86 	mvhi r5,0x86
  863c2c:	38 a5 e5 ac 	ori r5,r5,0xe5ac
  863c30:	28 a2 00 00 	lw r2,(r5+0)
  863c34:	78 01 00 86 	mvhi r1,0x86
  863c38:	38 21 e3 a8 	ori r1,r1,0xe3a8
  863c3c:	fb ff fe b1 	calli 863700 <tftp_get_v.clone.0>
  863c40:	48 20 00 1e 	bg r1,r0,863cb8 <netboot+0x1c0>
  863c44:	78 01 00 86 	mvhi r1,0x86
  863c48:	38 21 e3 b4 	ori r1,r1,0xe3b4
  863c4c:	f8 00 06 3c 	calli 86553c <printf>
  863c50:	34 0b 00 00 	mvi r11,0
  863c54:	34 02 00 00 	mvi r2,0
  863c58:	78 01 00 86 	mvhi r1,0x86
  863c5c:	38 21 e3 d4 	ori r1,r1,0xe3d4
  863c60:	5b 82 00 10 	sw (sp+16),r2
  863c64:	f8 00 06 36 	calli 86553c <printf>
  863c68:	78 04 40 66 	mvhi r4,0x4066
  863c6c:	38 84 16 68 	ori r4,r4,0x1668
  863c70:	28 84 00 00 	lw r4,(r4+0)
  863c74:	2b 82 00 10 	lw r2,(sp+16)
  863c78:	b9 80 08 00 	mv r1,r12
  863c7c:	b9 60 18 00 	mv r3,r11
  863c80:	78 05 40 00 	mvhi r5,0x4000
  863c84:	fb ff fe 6e 	calli 86363c <boot>
  863c88:	78 01 00 86 	mvhi r1,0x86
  863c8c:	b9 60 10 00 	mv r2,r11
  863c90:	38 21 e2 48 	ori r1,r1,0xe248
  863c94:	f8 00 06 2a 	calli 86553c <printf>
  863c98:	78 01 00 86 	mvhi r1,0x86
  863c9c:	38 21 e3 68 	ori r1,r1,0xe368
  863ca0:	f8 00 06 27 	calli 86553c <printf>
  863ca4:	2b 9d 00 04 	lw ra,(sp+4)
  863ca8:	2b 8b 00 0c 	lw r11,(sp+12)
  863cac:	2b 8c 00 08 	lw r12,(sp+8)
  863cb0:	37 9c 00 10 	addi sp,sp,16
  863cb4:	c3 a0 00 00 	ret
  863cb8:	78 04 00 86 	mvhi r4,0x86
  863cbc:	38 84 e5 b0 	ori r4,r4,0xe5b0
  863cc0:	28 8b 00 00 	lw r11,(r4+0)
  863cc4:	78 03 00 86 	mvhi r3,0x86
  863cc8:	38 63 e5 ac 	ori r3,r3,0xe5ac
  863ccc:	28 62 00 00 	lw r2,(r3+0)
  863cd0:	b4 2b 58 00 	add r11,r1,r11
  863cd4:	e3 ff ff e1 	bi 863c58 <netboot+0x160>
  863cd8:	78 01 00 86 	mvhi r1,0x86
  863cdc:	38 21 e3 80 	ori r1,r1,0xe380
  863ce0:	f8 00 06 17 	calli 86553c <printf>
  863ce4:	34 0c 00 00 	mvi r12,0
  863ce8:	e3 ff ff d0 	bi 863c28 <netboot+0x130>

00863cec <fsboot>:
  863cec:	37 9c ff ec 	addi sp,sp,-20
  863cf0:	5b 8b 00 0c 	sw (sp+12),r11
  863cf4:	5b 8c 00 08 	sw (sp+8),r12
  863cf8:	5b 9d 00 04 	sw (sp+4),ra
  863cfc:	78 02 00 86 	mvhi r2,0x86
  863d00:	b8 20 58 00 	mv r11,r1
  863d04:	b8 40 08 00 	mv r1,r2
  863d08:	38 21 e3 e4 	ori r1,r1,0xe3e4
  863d0c:	f8 00 06 0c 	calli 86553c <printf>
  863d10:	b9 60 08 00 	mv r1,r11
  863d14:	f8 00 06 3d 	calli 865608 <fatfs_init>
  863d18:	44 20 00 1e 	be r1,r0,863d90 <fsboot+0xa4>
  863d1c:	78 0b 00 86 	mvhi r11,0x86
  863d20:	39 6b e4 28 	ori r11,r11,0xe428
  863d24:	b9 60 08 00 	mv r1,r11
  863d28:	78 02 40 00 	mvhi r2,0x4000
  863d2c:	78 03 01 00 	mvhi r3,0x100
  863d30:	37 84 00 14 	addi r4,sp,20
  863d34:	f8 00 08 79 	calli 865f18 <fatfs_load>
  863d38:	4c 01 00 06 	bge r0,r1,863d50 <fsboot+0x64>
  863d3c:	2b 82 00 14 	lw r2,(sp+20)
  863d40:	4c 22 00 0d 	bge r1,r2,863d74 <fsboot+0x88>
  863d44:	78 01 00 86 	mvhi r1,0x86
  863d48:	38 21 e1 a4 	ori r1,r1,0xe1a4
  863d4c:	f8 00 05 fc 	calli 86553c <printf>
  863d50:	78 01 00 86 	mvhi r1,0x86
  863d54:	38 21 e4 34 	ori r1,r1,0xe434
  863d58:	f8 00 05 f9 	calli 86553c <printf>
  863d5c:	f8 00 09 75 	calli 866330 <fatfs_done>
  863d60:	2b 9d 00 04 	lw ra,(sp+4)
  863d64:	2b 8b 00 0c 	lw r11,(sp+12)
  863d68:	2b 8c 00 08 	lw r12,(sp+8)
  863d6c:	37 9c 00 14 	addi sp,sp,20
  863d70:	c3 a0 00 00 	ret
  863d74:	78 01 00 86 	mvhi r1,0x86
  863d78:	38 21 e1 ec 	ori r1,r1,0xe1ec
  863d7c:	b9 60 18 00 	mv r3,r11
  863d80:	f8 00 05 ef 	calli 86553c <printf>
  863d84:	2b 81 00 14 	lw r1,(sp+20)
  863d88:	48 20 00 0a 	bg r1,r0,863db0 <fsboot+0xc4>
  863d8c:	e3 ff ff f1 	bi 863d50 <fsboot+0x64>
  863d90:	78 01 00 86 	mvhi r1,0x86
  863d94:	38 21 e4 04 	ori r1,r1,0xe404
  863d98:	f8 00 05 e9 	calli 86553c <printf>
  863d9c:	2b 9d 00 04 	lw ra,(sp+4)
  863da0:	2b 8b 00 0c 	lw r11,(sp+12)
  863da4:	2b 8c 00 08 	lw r12,(sp+8)
  863da8:	37 9c 00 14 	addi sp,sp,20
  863dac:	c3 a0 00 00 	ret
  863db0:	78 0b 41 00 	mvhi r11,0x4100
  863db4:	78 01 00 86 	mvhi r1,0x86
  863db8:	38 21 e4 54 	ori r1,r1,0xe454
  863dbc:	b9 60 10 00 	mv r2,r11
  863dc0:	fb ff fe 34 	calli 863690 <tryload>
  863dc4:	48 20 00 1e 	bg r1,r0,863e3c <fsboot+0x150>
  863dc8:	78 01 00 86 	mvhi r1,0x86
  863dcc:	38 21 e4 60 	ori r1,r1,0xe460
  863dd0:	f8 00 05 db 	calli 86553c <printf>
  863dd4:	34 0c 00 00 	mvi r12,0
  863dd8:	78 01 00 86 	mvhi r1,0x86
  863ddc:	38 21 e5 ac 	ori r1,r1,0xe5ac
  863de0:	28 22 00 00 	lw r2,(r1+0)
  863de4:	78 01 00 86 	mvhi r1,0x86
  863de8:	38 21 e4 94 	ori r1,r1,0xe494
  863dec:	fb ff fe 29 	calli 863690 <tryload>
  863df0:	48 20 00 17 	bg r1,r0,863e4c <fsboot+0x160>
  863df4:	78 01 00 86 	mvhi r1,0x86
  863df8:	38 21 e4 a0 	ori r1,r1,0xe4a0
  863dfc:	f8 00 05 d0 	calli 86553c <printf>
  863e00:	34 0b 00 00 	mvi r11,0
  863e04:	34 02 00 00 	mvi r2,0
  863e08:	5b 82 00 10 	sw (sp+16),r2
  863e0c:	f8 00 09 49 	calli 866330 <fatfs_done>
  863e10:	78 01 00 86 	mvhi r1,0x86
  863e14:	38 21 e3 d4 	ori r1,r1,0xe3d4
  863e18:	f8 00 05 c9 	calli 86553c <printf>
  863e1c:	78 04 40 66 	mvhi r4,0x4066
  863e20:	38 84 16 68 	ori r4,r4,0x1668
  863e24:	28 84 00 00 	lw r4,(r4+0)
  863e28:	2b 82 00 10 	lw r2,(sp+16)
  863e2c:	b9 80 08 00 	mv r1,r12
  863e30:	b9 60 18 00 	mv r3,r11
  863e34:	78 05 40 00 	mvhi r5,0x4000
  863e38:	fb ff fe 01 	calli 86363c <boot>
  863e3c:	b4 2b 08 00 	add r1,r1,r11
  863e40:	30 20 00 00 	sb (r1+0),r0
  863e44:	b9 60 60 00 	mv r12,r11
  863e48:	e3 ff ff e4 	bi 863dd8 <fsboot+0xec>
  863e4c:	78 03 00 86 	mvhi r3,0x86
  863e50:	38 63 e5 ac 	ori r3,r3,0xe5ac
  863e54:	28 62 00 00 	lw r2,(r3+0)
  863e58:	78 03 00 86 	mvhi r3,0x86
  863e5c:	38 63 e5 b0 	ori r3,r3,0xe5b0
  863e60:	28 6b 00 00 	lw r11,(r3+0)
  863e64:	b4 2b 58 00 	add r11,r1,r11
  863e68:	e3 ff ff e8 	bi 863e08 <fsboot+0x11c>

00863e6c <flashboot>:
  863e6c:	37 9c ff ec 	addi sp,sp,-20
  863e70:	5b 8b 00 14 	sw (sp+20),r11
  863e74:	5b 8c 00 10 	sw (sp+16),r12
  863e78:	5b 8d 00 0c 	sw (sp+12),r13
  863e7c:	5b 8e 00 08 	sw (sp+8),r14
  863e80:	5b 9d 00 04 	sw (sp+4),ra
  863e84:	78 01 00 86 	mvhi r1,0x86
  863e88:	78 0c 40 66 	mvhi r12,0x4066
  863e8c:	38 21 e4 cc 	ori r1,r1,0xe4cc
  863e90:	39 8c 16 68 	ori r12,r12,0x1668
  863e94:	f8 00 05 aa 	calli 86553c <printf>
  863e98:	29 81 00 00 	lw r1,(r12+0)
  863e9c:	44 20 00 39 	be r1,r0,863f80 <flashboot+0x114>
  863ea0:	78 04 00 86 	mvhi r4,0x86
  863ea4:	38 84 e5 b8 	ori r4,r4,0xe5b8
  863ea8:	78 01 00 86 	mvhi r1,0x86
  863eac:	28 83 00 00 	lw r3,(r4+0)
  863eb0:	38 21 e5 b4 	ori r1,r1,0xe5b4
  863eb4:	28 2e 00 00 	lw r14,(r1+0)
  863eb8:	78 01 00 2e 	mvhi r1,0x2e
  863ebc:	28 2b 00 00 	lw r11,(r1+0)
  863ec0:	34 01 00 00 	mvi r1,0
  863ec4:	4d 60 00 06 	bge r11,r0,863edc <flashboot+0x70>
  863ec8:	78 04 00 86 	mvhi r4,0x86
  863ecc:	38 84 e5 c4 	ori r4,r4,0xe5c4
  863ed0:	28 82 00 00 	lw r2,(r4+0)
  863ed4:	34 01 00 01 	mvi r1,1
  863ed8:	a1 62 58 00 	and r11,r11,r2
  863edc:	78 04 00 86 	mvhi r4,0x86
  863ee0:	38 84 e5 c8 	ori r4,r4,0xe5c8
  863ee4:	28 6d 00 00 	lw r13,(r3+0)
  863ee8:	28 83 00 00 	lw r3,(r4+0)
  863eec:	35 62 ff e0 	addi r2,r11,-32
  863ef0:	50 62 00 0b 	bgeu r3,r2,863f1c <flashboot+0xb0>
  863ef4:	78 01 00 86 	mvhi r1,0x86
  863ef8:	38 21 e4 e8 	ori r1,r1,0xe4e8
  863efc:	f8 00 05 90 	calli 86553c <printf>
  863f00:	2b 9d 00 04 	lw ra,(sp+4)
  863f04:	2b 8b 00 14 	lw r11,(sp+20)
  863f08:	2b 8c 00 10 	lw r12,(sp+16)
  863f0c:	2b 8d 00 0c 	lw r13,(sp+12)
  863f10:	2b 8e 00 08 	lw r14,(sp+8)
  863f14:	37 9c 00 14 	addi sp,sp,20
  863f18:	c3 a0 00 00 	ret
  863f1c:	5c 20 00 21 	bne r1,r0,863fa0 <flashboot+0x134>
  863f20:	78 01 00 86 	mvhi r1,0x86
  863f24:	b9 60 10 00 	mv r2,r11
  863f28:	38 21 e5 64 	ori r1,r1,0xe564
  863f2c:	f8 00 05 84 	calli 86553c <printf>
  863f30:	b9 60 18 00 	mv r3,r11
  863f34:	b9 c0 10 00 	mv r2,r14
  863f38:	78 01 40 00 	mvhi r1,0x4000
  863f3c:	f8 00 02 71 	calli 864900 <memcpy>
  863f40:	78 01 40 00 	mvhi r1,0x4000
  863f44:	b9 60 10 00 	mv r2,r11
  863f48:	f8 00 04 9d 	calli 8651bc <crc32>
  863f4c:	b8 20 18 00 	mv r3,r1
  863f50:	45 a1 00 27 	be r13,r1,863fec <flashboot+0x180>
  863f54:	78 01 00 86 	mvhi r1,0x86
  863f58:	38 21 e5 38 	ori r1,r1,0xe538
  863f5c:	b9 a0 10 00 	mv r2,r13
  863f60:	f8 00 05 77 	calli 86553c <printf>
  863f64:	2b 9d 00 04 	lw ra,(sp+4)
  863f68:	2b 8b 00 14 	lw r11,(sp+20)
  863f6c:	2b 8c 00 10 	lw r12,(sp+16)
  863f70:	2b 8d 00 0c 	lw r13,(sp+12)
  863f74:	2b 8e 00 08 	lw r14,(sp+8)
  863f78:	37 9c 00 14 	addi sp,sp,20
  863f7c:	c3 a0 00 00 	ret
  863f80:	78 01 00 86 	mvhi r1,0x86
  863f84:	78 04 00 86 	mvhi r4,0x86
  863f88:	38 21 e5 bc 	ori r1,r1,0xe5bc
  863f8c:	38 84 e5 c0 	ori r4,r4,0xe5c0
  863f90:	28 2e 00 00 	lw r14,(r1+0)
  863f94:	28 83 00 00 	lw r3,(r4+0)
  863f98:	78 01 00 92 	mvhi r1,0x92
  863f9c:	e3 ff ff c8 	bi 863ebc <flashboot+0x50>
  863fa0:	78 01 00 86 	mvhi r1,0x86
  863fa4:	b9 60 10 00 	mv r2,r11
  863fa8:	38 21 e5 0c 	ori r1,r1,0xe50c
  863fac:	f8 00 05 64 	calli 86553c <printf>
  863fb0:	b9 c0 08 00 	mv r1,r14
  863fb4:	b9 60 10 00 	mv r2,r11
  863fb8:	f8 00 04 81 	calli 8651bc <crc32>
  863fbc:	b8 20 18 00 	mv r3,r1
  863fc0:	5d a1 ff e5 	bne r13,r1,863f54 <flashboot+0xe8>
  863fc4:	78 07 00 86 	mvhi r7,0x86
  863fc8:	b9 c0 08 00 	mv r1,r14
  863fcc:	b9 60 10 00 	mv r2,r11
  863fd0:	34 03 00 00 	mvi r3,0
  863fd4:	34 04 00 00 	mvi r4,0
  863fd8:	78 05 40 00 	mvhi r5,0x4000
  863fdc:	34 06 00 00 	mvi r6,0
  863fe0:	38 e7 36 18 	ori r7,r7,0x3618
  863fe4:	fb ff f5 d1 	calli 861728 <unlzma>
  863fe8:	48 01 ff df 	bg r0,r1,863f64 <flashboot+0xf8>
  863fec:	78 01 00 86 	mvhi r1,0x86
  863ff0:	38 21 e3 d4 	ori r1,r1,0xe3d4
  863ff4:	f8 00 05 52 	calli 86553c <printf>
  863ff8:	29 84 00 00 	lw r4,(r12+0)
  863ffc:	34 01 00 00 	mvi r1,0
  864000:	34 02 00 00 	mvi r2,0
  864004:	34 03 00 00 	mvi r3,0
  864008:	78 05 40 00 	mvhi r5,0x4000
  86400c:	fb ff fd 8c 	calli 86363c <boot>

00864010 <boot_helper>:
  864010:	d0 60 00 00 	wcsr ICC,r0
  864014:	34 00 00 00 	nop
  864018:	34 00 00 00 	nop
  86401c:	34 00 00 00 	nop
  864020:	34 00 00 00 	nop
  864024:	d8 a0 00 00 	call r5

00864028 <_sdram_init>:
  864028:	bb a0 b8 00 	mv r23,ra
  86402c:	e0 00 00 17 	bi 864088 <send_init>

00864030 <send_init_return>:
  864030:	78 01 e0 00 	mvhi r1,0xe000
  864034:	38 21 10 00 	ori r1,r1,0x1000
  864038:	28 22 00 00 	lw r2,(r1+0)
  86403c:	20 42 00 04 	andi r2,r2,0x4
  864040:	5c 40 00 67 	bne r2,r0,8641dc <mancal>
  864044:	e0 00 00 5c 	bi 8641b4 <autocalibrate>

00864048 <autocalibrate_fail_return>:
  864048:	78 01 00 86 	mvhi r1,0x86
  86404c:	38 21 e6 ad 	ori r1,r1,0xe6ad
  864050:	f8 00 01 4c 	calli 864580 <print>
  864054:	e0 00 00 62 	bi 8641dc <mancal>
  864058:	e3 ff ff fc 	bi 864048 <autocalibrate_fail_return>

0086405c <autocalibrate_success_return>:
  86405c:	34 01 00 00 	mvi r1,0
  864060:	98 42 10 00 	xor r2,r2,r2
  864064:	f8 00 01 00 	calli 864464 <memtest>
  864068:	44 20 00 03 	be r1,r0,864074 <memtest_fail>
  86406c:	34 01 00 00 	mvi r1,0
  864070:	c2 e0 00 00 	b r23

00864074 <memtest_fail>:
  864074:	78 01 00 86 	mvhi r1,0x86
  864078:	38 21 e7 3a 	ori r1,r1,0xe73a
  86407c:	f8 00 01 41 	calli 864580 <print>
  864080:	e0 00 00 b1 	bi 864344 <config>

00864084 <memtest_fail_loop>:
  864084:	e0 00 00 00 	bi 864084 <memtest_fail_loop>

00864088 <send_init>:
  864088:	78 02 e0 00 	mvhi r2,0xe000
  86408c:	38 42 20 00 	ori r2,r2,0x2000
  864090:	38 03 00 07 	mvu r3,0x7
  864094:	58 43 00 00 	sw (r2+0),r3
  864098:	38 01 00 01 	mvu r1,0x1
  86409c:	f8 00 01 45 	calli 8645b0 <delay>
  8640a0:	78 02 e0 00 	mvhi r2,0xe000
  8640a4:	38 42 20 04 	ori r2,r2,0x2004
  8640a8:	38 03 40 0b 	mvu r3,0x400b
  8640ac:	58 43 00 00 	sw (r2+0),r3
  8640b0:	38 01 00 01 	mvu r1,0x1
  8640b4:	f8 00 01 3f 	calli 8645b0 <delay>
  8640b8:	38 03 00 08 	mvu r3,0x8
  8640bc:	58 43 00 00 	sw (r2+0),r3
  8640c0:	38 01 00 01 	mvu r1,0x1
  8640c4:	f8 00 01 3b 	calli 8645b0 <delay>
  8640c8:	78 03 00 02 	mvhi r3,0x2
  8640cc:	38 63 00 0f 	ori r3,r3,0xf
  8640d0:	58 43 00 00 	sw (r2+0),r3
  8640d4:	38 01 00 01 	mvu r1,0x1
  8640d8:	f8 00 01 36 	calli 8645b0 <delay>
  8640dc:	38 03 00 08 	mvu r3,0x8
  8640e0:	58 43 00 00 	sw (r2+0),r3
  8640e4:	38 01 00 01 	mvu r1,0x1
  8640e8:	f8 00 01 32 	calli 8645b0 <delay>
  8640ec:	38 03 12 1f 	mvu r3,0x121f
  8640f0:	58 43 00 00 	sw (r2+0),r3
  8640f4:	38 01 00 64 	mvu r1,0x64
  8640f8:	f8 00 01 2e 	calli 8645b0 <delay>
  8640fc:	38 03 00 08 	mvu r3,0x8
  864100:	58 43 00 00 	sw (r2+0),r3
  864104:	38 01 00 01 	mvu r1,0x1
  864108:	f8 00 01 2a 	calli 8645b0 <delay>
  86410c:	38 03 40 0b 	mvu r3,0x400b
  864110:	58 43 00 00 	sw (r2+0),r3
  864114:	38 01 00 01 	mvu r1,0x1
  864118:	f8 00 01 26 	calli 8645b0 <delay>
  86411c:	38 03 00 08 	mvu r3,0x8
  864120:	58 43 00 00 	sw (r2+0),r3
  864124:	38 01 00 01 	mvu r1,0x1
  864128:	f8 00 01 22 	calli 8645b0 <delay>
  86412c:	38 03 00 0d 	mvu r3,0xd
  864130:	58 43 00 00 	sw (r2+0),r3
  864134:	38 01 00 04 	mvu r1,0x4
  864138:	f8 00 01 1e 	calli 8645b0 <delay>
  86413c:	38 03 00 08 	mvu r3,0x8
  864140:	58 43 00 00 	sw (r2+0),r3
  864144:	38 01 00 01 	mvu r1,0x1
  864148:	f8 00 01 1a 	calli 8645b0 <delay>
  86414c:	38 03 00 0d 	mvu r3,0xd
  864150:	58 43 00 00 	sw (r2+0),r3
  864154:	38 01 00 04 	mvu r1,0x4
  864158:	f8 00 01 16 	calli 8645b0 <delay>
  86415c:	38 03 00 08 	mvu r3,0x8
  864160:	58 43 00 00 	sw (r2+0),r3
  864164:	38 01 00 01 	mvu r1,0x1
  864168:	f8 00 01 12 	calli 8645b0 <delay>
  86416c:	38 03 02 1f 	mvu r3,0x21f
  864170:	58 43 00 00 	sw (r2+0),r3
  864174:	38 01 00 64 	mvu r1,0x64
  864178:	f8 00 01 0e 	calli 8645b0 <delay>
  86417c:	38 03 00 08 	mvu r3,0x8
  864180:	58 43 00 00 	sw (r2+0),r3
  864184:	38 01 00 01 	mvu r1,0x1
  864188:	f8 00 01 0a 	calli 8645b0 <delay>
  86418c:	78 02 e0 00 	mvhi r2,0xe000
  864190:	38 42 20 08 	ori r2,r2,0x2008
  864194:	78 03 00 18 	mvhi r3,0x18
  864198:	38 63 b9 0a 	ori r3,r3,0xb90a
  86419c:	58 43 00 00 	sw (r2+0),r3
  8641a0:	78 02 e0 00 	mvhi r2,0xe000
  8641a4:	38 42 20 00 	ori r2,r2,0x2000
  8641a8:	38 03 00 04 	mvu r3,0x4
  8641ac:	58 43 00 00 	sw (r2+0),r3
  8641b0:	e3 ff ff a0 	bi 864030 <send_init_return>

008641b4 <autocalibrate>:
  8641b4:	78 01 e0 00 	mvhi r1,0xe000
  8641b8:	38 21 20 0c 	ori r1,r1,0x200c
  8641bc:	38 18 00 00 	mvu r24,0x0
  8641c0:	98 42 10 00 	xor r2,r2,r2
  8641c4:	38 03 00 06 	mvu r3,0x6
  8641c8:	44 58 00 04 	be r2,r24,8641d8 <idelay_loop_end>

008641cc <idelay_loop>:
  8641cc:	58 23 00 00 	sw (r1+0),r3
  8641d0:	34 42 00 01 	addi r2,r2,1
  8641d4:	5c 58 ff fe 	bne r2,r24,8641cc <idelay_loop>

008641d8 <idelay_loop_end>:
  8641d8:	e3 ff ff a1 	bi 86405c <autocalibrate_success_return>

008641dc <mancal>:
  8641dc:	78 01 e0 00 	mvhi r1,0xe000
  8641e0:	38 21 30 24 	ori r1,r1,0x3024
  8641e4:	78 02 40 00 	mvhi r2,0x4000
  8641e8:	58 22 00 00 	sw (r1+0),r2
  8641ec:	78 01 e0 00 	mvhi r1,0xe000
  8641f0:	38 21 30 00 	ori r1,r1,0x3000
  8641f4:	58 20 00 00 	sw (r1+0),r0

008641f8 <mancal_loop>:
  8641f8:	78 01 00 86 	mvhi r1,0x86
  8641fc:	38 21 e7 65 	ori r1,r1,0xe765
  864200:	f8 00 00 e0 	calli 864580 <print>
  864204:	bb 00 08 00 	mv r1,r24
  864208:	f8 00 00 ba 	calli 8644f0 <printint>
  86420c:	78 01 00 86 	mvhi r1,0x86
  864210:	38 21 e8 26 	ori r1,r1,0xe826
  864214:	f8 00 00 db 	calli 864580 <print>
  864218:	f8 00 00 8b 	calli 864444 <getkey>
  86421c:	38 02 00 75 	mvu r2,0x75
  864220:	44 22 00 10 	be r1,r2,864260 <inc_input_delay>
  864224:	38 02 00 64 	mvu r2,0x64
  864228:	44 22 00 14 	be r1,r2,864278 <dec_input_delay>
  86422c:	38 02 00 74 	mvu r2,0x74
  864230:	44 22 00 18 	be r1,r2,864290 <small_test>
  864234:	38 02 00 54 	mvu r2,0x54
  864238:	44 22 00 1a 	be r1,r2,8642a0 <big_test>
  86423c:	38 02 00 63 	mvu r2,0x63
  864240:	44 22 00 21 	be r1,r2,8642c4 <iodelay_calibrate>
  864244:	38 02 00 72 	mvu r2,0x72
  864248:	44 22 00 20 	be r1,r2,8642c8 <iodelay_reset>
  86424c:	38 02 00 70 	mvu r2,0x70
  864250:	44 22 00 24 	be r1,r2,8642e0 <disp_pattern>
  864254:	38 02 00 62 	mvu r2,0x62
  864258:	44 22 00 35 	be r1,r2,86432c <boot>
  86425c:	e3 ff ff e7 	bi 8641f8 <mancal_loop>

00864260 <inc_input_delay>:
  864260:	37 18 00 01 	addi r24,r24,1
  864264:	78 01 e0 00 	mvhi r1,0xe000
  864268:	38 21 20 0c 	ori r1,r1,0x200c
  86426c:	38 02 00 06 	mvu r2,0x6
  864270:	58 22 00 00 	sw (r1+0),r2
  864274:	e3 ff ff e1 	bi 8641f8 <mancal_loop>

00864278 <dec_input_delay>:
  864278:	37 18 ff ff 	addi r24,r24,-1
  86427c:	78 01 e0 00 	mvhi r1,0xe000
  864280:	38 21 20 0c 	ori r1,r1,0x200c
  864284:	38 02 00 02 	mvu r2,0x2
  864288:	58 22 00 00 	sw (r1+0),r2
  86428c:	e3 ff ff db 	bi 8641f8 <mancal_loop>

00864290 <small_test>:
  864290:	98 21 08 00 	xor r1,r1,r1
  864294:	98 42 10 00 	xor r2,r2,r2
  864298:	f8 00 00 73 	calli 864464 <memtest>
  86429c:	e0 00 00 04 	bi 8642ac <after_test>

008642a0 <big_test>:
  8642a0:	38 01 00 01 	mvu r1,0x1
  8642a4:	98 42 10 00 	xor r2,r2,r2
  8642a8:	f8 00 00 6f 	calli 864464 <memtest>

008642ac <after_test>:
  8642ac:	44 20 00 02 	be r1,r0,8642b4 <print_test_fail>
  8642b0:	e3 ff ff d2 	bi 8641f8 <mancal_loop>

008642b4 <print_test_fail>:
  8642b4:	78 01 00 86 	mvhi r1,0x86
  8642b8:	38 21 e7 f7 	ori r1,r1,0xe7f7
  8642bc:	f8 00 00 b1 	calli 864580 <print>
  8642c0:	e3 ff ff ce 	bi 8641f8 <mancal_loop>

008642c4 <iodelay_calibrate>:
  8642c4:	e3 ff ff cd 	bi 8641f8 <mancal_loop>

008642c8 <iodelay_reset>:
  8642c8:	78 01 e0 00 	mvhi r1,0xe000
  8642cc:	38 21 20 0c 	ori r1,r1,0x200c
  8642d0:	38 02 00 01 	mvu r2,0x1
  8642d4:	58 22 00 00 	sw (r1+0),r2
  8642d8:	9b 39 c8 00 	xor r25,r25,r25
  8642dc:	e3 ff ff c7 	bi 8641f8 <mancal_loop>

008642e0 <disp_pattern>:
  8642e0:	38 01 02 80 	mvu r1,0x280
  8642e4:	38 02 01 e0 	mvu r2,0x1e0
  8642e8:	38 07 00 0c 	mvu r7,0xc
  8642ec:	38 08 00 06 	mvu r8,0x6
  8642f0:	98 84 20 00 	xor r4,r4,r4
  8642f4:	78 05 40 00 	mvhi r5,0x4000

008642f8 <yloop>:
  8642f8:	98 63 18 00 	xor r3,r3,r3

008642fc <xloop>:
  8642fc:	b4 64 30 00 	add r6,r3,r4
  864300:	c4 c7 48 00 	modu r9,r6,r7
  864304:	38 06 ff ff 	mvu r6,0xffff
  864308:	4d 28 00 02 	bge r9,r8,864310 <staywhite>
  86430c:	98 c6 30 00 	xor r6,r6,r6

00864310 <staywhite>:
  864310:	0c a6 00 00 	sh (r5+0),r6
  864314:	34 a5 00 02 	addi r5,r5,2
  864318:	34 63 00 01 	addi r3,r3,1
  86431c:	5c 61 ff f8 	bne r3,r1,8642fc <xloop>
  864320:	34 84 00 01 	addi r4,r4,1
  864324:	5c 82 ff f5 	bne r4,r2,8642f8 <yloop>
  864328:	e3 ff ff b4 	bi 8641f8 <mancal_loop>

0086432c <boot>:
  86432c:	78 01 e0 00 	mvhi r1,0xe000
  864330:	38 21 30 00 	ori r1,r1,0x3000
  864334:	34 02 00 01 	mvi r2,1
  864338:	58 22 00 00 	sw (r1+0),r2
  86433c:	34 01 00 00 	mvi r1,0
  864340:	c2 e0 00 00 	b r23

00864344 <config>:
  864344:	78 0f 00 00 	mvhi r15,0x0
  864348:	39 ef 00 00 	ori r15,r15,0x0
  86434c:	78 10 00 00 	mvhi r16,0x0
  864350:	3a 10 00 00 	ori r16,r16,0x0
  864354:	78 0a 00 00 	mvhi r10,0x0
  864358:	39 4a 00 ff 	ori r10,r10,0xff
  86435c:	78 0b 00 00 	mvhi r11,0x0
  864360:	39 6b 00 64 	ori r11,r11,0x64
  864364:	78 0c 00 00 	mvhi r12,0x0
  864368:	39 8c 00 00 	ori r12,r12,0x0
  86436c:	78 0d 00 00 	mvhi r13,0x0
  864370:	39 ad 00 01 	ori r13,r13,0x1

00864374 <recursive_conf>:
  864374:	bb 20 08 00 	mv r1,r25
  864378:	f8 00 00 5e 	calli 8644f0 <printint>
  86437c:	78 01 00 86 	mvhi r1,0x86
  864380:	38 21 e8 21 	ori r1,r1,0xe821
  864384:	f8 00 00 7f 	calli 864580 <print>
  864388:	bb 00 08 00 	mv r1,r24
  86438c:	f8 00 00 59 	calli 8644f0 <printint>
  864390:	78 01 00 86 	mvhi r1,0x86
  864394:	38 21 e8 26 	ori r1,r1,0xe826
  864398:	f8 00 00 7a 	calli 864580 <print>
  86439c:	98 21 08 00 	xor r1,r1,r1
  8643a0:	98 42 10 00 	xor r2,r2,r2
  8643a4:	f8 00 00 30 	calli 864464 <memtest>
  8643a8:	5c 20 00 1f 	bne r1,r0,864424 <print_success>
  8643ac:	35 ef 00 01 	addi r15,r15,1
  8643b0:	45 ea 00 11 	be r15,r10,8643f4 <inc_delay>
  8643b4:	5d 80 00 07 	bne r12,r0,8643d0 <dec_dqs>

008643b8 <inc_dqs>:
  8643b8:	37 18 00 01 	addi r24,r24,1
  8643bc:	78 01 e0 00 	mvhi r1,0xe000
  8643c0:	38 21 20 0c 	ori r1,r1,0x200c
  8643c4:	38 02 00 18 	mvu r2,0x18
  8643c8:	58 22 00 00 	sw (r1+0),r2
  8643cc:	e0 00 00 06 	bi 8643e4 <wait_dqs_b>

008643d0 <dec_dqs>:
  8643d0:	37 18 ff ff 	addi r24,r24,-1
  8643d4:	78 01 e0 00 	mvhi r1,0xe000
  8643d8:	38 21 20 0c 	ori r1,r1,0x200c
  8643dc:	38 02 00 08 	mvu r2,0x8
  8643e0:	58 22 00 00 	sw (r1+0),r2

008643e4 <wait_dqs_b>:
  8643e4:	28 22 00 00 	lw r2,(r1+0)
  8643e8:	20 42 00 20 	andi r2,r2,0x20
  8643ec:	44 40 ff fe 	be r2,r0,8643e4 <wait_dqs_b>
  8643f0:	e3 ff ff e1 	bi 864374 <recursive_conf>

008643f4 <inc_delay>:
  8643f4:	78 0f 00 00 	mvhi r15,0x0
  8643f8:	39 ef 00 00 	ori r15,r15,0x0
  8643fc:	99 ac 60 00 	xor r12,r13,r12
  864400:	36 10 00 01 	addi r16,r16,1
  864404:	37 39 00 01 	addi r25,r25,1
  864408:	78 01 e0 00 	mvhi r1,0xe000
  86440c:	38 21 20 0c 	ori r1,r1,0x200c
  864410:	38 02 00 06 	mvu r2,0x6
  864414:	58 22 00 00 	sw (r1+0),r2
  864418:	46 0b 00 02 	be r16,r11,864420 <end>
  86441c:	e3 ff ff d6 	bi 864374 <recursive_conf>

00864420 <end>:
  864420:	e0 00 00 05 	bi 864434 <loop_end>

00864424 <print_success>:
  864424:	78 01 00 86 	mvhi r1,0x86
  864428:	38 21 e8 0c 	ori r1,r1,0xe80c
  86442c:	f8 00 00 55 	calli 864580 <print>
  864430:	e3 ff ff bf 	bi 86432c <boot>

00864434 <loop_end>:
  864434:	34 00 00 00 	nop
  864438:	34 00 00 00 	nop
  86443c:	34 00 00 00 	nop
  864440:	e3 ff ff fd 	bi 864434 <loop_end>

00864444 <getkey>:
  864444:	90 40 08 00 	rcsr r1,IP
  864448:	20 21 00 01 	andi r1,r1,0x1
  86444c:	44 20 ff fe 	be r1,r0,864444 <getkey>
  864450:	d0 41 00 00 	wcsr IP,r1
  864454:	78 01 e0 00 	mvhi r1,0xe000
  864458:	38 21 00 00 	ori r1,r1,0x0
  86445c:	28 21 00 00 	lw r1,(r1+0)
  864460:	c3 a0 00 00 	ret

00864464 <memtest>:
  864464:	78 04 aa aa 	mvhi r4,0xaaaa
  864468:	38 84 aa aa 	ori r4,r4,0xaaaa
  86446c:	78 13 e0 00 	mvhi r19,0xe000
  864470:	3a 73 10 04 	ori r19,r19,0x1004
  864474:	5a 64 00 00 	sw (r19+0),r4
  864478:	78 05 40 00 	mvhi r5,0x4000
  86447c:	78 03 00 70 	mvhi r3,0x70
  864480:	b8 60 20 00 	mv r4,r3
  864484:	b8 40 30 00 	mv r6,r2
  864488:	78 07 01 5a 	mvhi r7,0x15a
  86448c:	38 e7 4e 35 	ori r7,r7,0x4e35
  864490:	5c 20 00 04 	bne r1,r0,8644a0 <patloop>
  864494:	78 03 00 00 	mvhi r3,0x0
  864498:	38 63 00 10 	ori r3,r3,0x10
  86449c:	b8 60 20 00 	mv r4,r3

008644a0 <patloop>:
  8644a0:	58 a6 00 00 	sw (r5+0),r6
  8644a4:	88 c7 30 00 	mul r6,r6,r7
  8644a8:	34 c6 00 01 	addi r6,r6,1
  8644ac:	34 a5 00 04 	addi r5,r5,4
  8644b0:	34 63 ff ff 	addi r3,r3,-1
  8644b4:	5c 60 ff fb 	bne r3,r0,8644a0 <patloop>
  8644b8:	78 05 40 00 	mvhi r5,0x4000
  8644bc:	b8 80 18 00 	mv r3,r4
  8644c0:	b8 40 30 00 	mv r6,r2

008644c4 <chkloop>:
  8644c4:	28 a4 00 00 	lw r4,(r5+0)
  8644c8:	5c 86 00 08 	bne r4,r6,8644e8 <testfail>
  8644cc:	88 c7 30 00 	mul r6,r6,r7
  8644d0:	34 c6 00 01 	addi r6,r6,1
  8644d4:	34 a5 00 04 	addi r5,r5,4
  8644d8:	34 63 ff ff 	addi r3,r3,-1
  8644dc:	5c 60 ff fa 	bne r3,r0,8644c4 <chkloop>
  8644e0:	38 01 00 01 	mvu r1,0x1
  8644e4:	c3 a0 00 00 	ret

008644e8 <testfail>:
  8644e8:	98 21 08 00 	xor r1,r1,r1
  8644ec:	c3 a0 00 00 	ret

008644f0 <printint>:
  8644f0:	78 02 e0 00 	mvhi r2,0xe000
  8644f4:	38 42 00 00 	ori r2,r2,0x0
  8644f8:	4c 20 00 09 	bge r1,r0,86451c <positive>
  8644fc:	a4 01 08 00 	xnor r1,r0,r1
  864500:	34 21 00 01 	addi r1,r1,1
  864504:	38 03 00 2d 	mvu r3,0x2d
  864508:	58 43 00 00 	sw (r2+0),r3

0086450c <writeintwait0>:
  86450c:	90 40 18 00 	rcsr r3,IP
  864510:	20 63 00 02 	andi r3,r3,0x2
  864514:	44 60 ff fe 	be r3,r0,86450c <writeintwait0>
  864518:	d0 43 00 00 	wcsr IP,r3

0086451c <positive>:
  86451c:	38 04 00 64 	mvu r4,0x64
  864520:	8c 24 18 00 	divu r3,r1,r4
  864524:	c4 24 08 00 	modu r1,r1,r4
  864528:	34 63 00 30 	addi r3,r3,48
  86452c:	58 43 00 00 	sw (r2+0),r3

00864530 <writeintwait1>:
  864530:	90 40 18 00 	rcsr r3,IP
  864534:	20 63 00 02 	andi r3,r3,0x2
  864538:	44 60 ff fe 	be r3,r0,864530 <writeintwait1>
  86453c:	d0 43 00 00 	wcsr IP,r3
  864540:	38 04 00 0a 	mvu r4,0xa
  864544:	8c 24 18 00 	divu r3,r1,r4
  864548:	c4 24 08 00 	modu r1,r1,r4
  86454c:	34 63 00 30 	addi r3,r3,48
  864550:	58 43 00 00 	sw (r2+0),r3

00864554 <writeintwait2>:
  864554:	90 40 18 00 	rcsr r3,IP
  864558:	20 63 00 02 	andi r3,r3,0x2
  86455c:	44 60 ff fe 	be r3,r0,864554 <writeintwait2>
  864560:	d0 43 00 00 	wcsr IP,r3
  864564:	34 23 00 30 	addi r3,r1,48
  864568:	58 43 00 00 	sw (r2+0),r3

0086456c <writeintwait3>:
  86456c:	90 40 18 00 	rcsr r3,IP
  864570:	20 63 00 02 	andi r3,r3,0x2
  864574:	44 60 ff fe 	be r3,r0,86456c <writeintwait3>
  864578:	d0 43 00 00 	wcsr IP,r3
  86457c:	c3 a0 00 00 	ret

00864580 <print>:
  864580:	78 02 e0 00 	mvhi r2,0xe000
  864584:	38 42 00 00 	ori r2,r2,0x0

00864588 <writeloop>:
  864588:	10 23 00 00 	lb r3,(r1+0)
  86458c:	44 60 00 08 	be r3,r0,8645ac <print_endloop>
  864590:	58 43 00 00 	sw (r2+0),r3

00864594 <writewait>:
  864594:	90 40 18 00 	rcsr r3,IP
  864598:	20 63 00 02 	andi r3,r3,0x2
  86459c:	44 60 ff fe 	be r3,r0,864594 <writewait>
  8645a0:	d0 43 00 00 	wcsr IP,r3
  8645a4:	34 21 00 01 	addi r1,r1,1
  8645a8:	e3 ff ff f8 	bi 864588 <writeloop>

008645ac <print_endloop>:
  8645ac:	c3 a0 00 00 	ret

008645b0 <delay>:
  8645b0:	34 21 ff ff 	addi r1,r1,-1
  8645b4:	5c 20 ff ff 	bne r1,r0,8645b0 <delay>
  8645b8:	c3 a0 00 00 	ret

008645bc <strchr>:
  8645bc:	10 24 00 00 	lb r4,(r1+0)
  8645c0:	b0 40 10 00 	sextb r2,r2
  8645c4:	b8 20 18 00 	mv r3,r1
  8645c8:	44 82 00 09 	be r4,r2,8645ec <strchr+0x30>
  8645cc:	34 03 00 00 	mvi r3,0
  8645d0:	5c 80 00 03 	bne r4,r0,8645dc <strchr+0x20>
  8645d4:	e0 00 00 06 	bi 8645ec <strchr+0x30>
  8645d8:	44 60 00 07 	be r3,r0,8645f4 <strchr+0x38>
  8645dc:	34 21 00 01 	addi r1,r1,1
  8645e0:	10 23 00 00 	lb r3,(r1+0)
  8645e4:	5c 62 ff fd 	bne r3,r2,8645d8 <strchr+0x1c>
  8645e8:	b8 20 18 00 	mv r3,r1
  8645ec:	b8 60 08 00 	mv r1,r3
  8645f0:	c3 a0 00 00 	ret
  8645f4:	34 03 00 00 	mvi r3,0
  8645f8:	b8 60 08 00 	mv r1,r3
  8645fc:	c3 a0 00 00 	ret

00864600 <strrchr>:
  864600:	10 24 00 00 	lb r4,(r1+0)
  864604:	34 03 00 00 	mvi r3,0
  864608:	44 80 00 06 	be r4,r0,864620 <strrchr+0x20>
  86460c:	b8 20 18 00 	mv r3,r1
  864610:	34 63 00 01 	addi r3,r3,1
  864614:	10 64 00 00 	lb r4,(r3+0)
  864618:	5c 80 ff fe 	bne r4,r0,864610 <strrchr+0x10>
  86461c:	c8 61 18 00 	sub r3,r3,r1
  864620:	b4 23 18 00 	add r3,r1,r3
  864624:	b0 40 10 00 	sextb r2,r2
  864628:	10 64 00 00 	lb r4,(r3+0)
  86462c:	44 82 00 05 	be r4,r2,864640 <strrchr+0x40>
  864630:	34 63 ff ff 	addi r3,r3,-1
  864634:	50 61 ff fd 	bgeu r3,r1,864628 <strrchr+0x28>
  864638:	34 01 00 00 	mvi r1,0
  86463c:	c3 a0 00 00 	ret
  864640:	b8 60 08 00 	mv r1,r3
  864644:	c3 a0 00 00 	ret

00864648 <strnchr>:
  864648:	34 04 00 00 	mvi r4,0
  86464c:	44 40 00 0f 	be r2,r0,864688 <strnchr+0x40>
  864650:	10 25 00 00 	lb r5,(r1+0)
  864654:	44 a0 00 0d 	be r5,r0,864688 <strnchr+0x40>
  864658:	b0 60 18 00 	sextb r3,r3
  86465c:	b8 20 20 00 	mv r4,r1
  864660:	34 42 ff ff 	addi r2,r2,-1
  864664:	5c a3 00 06 	bne r5,r3,86467c <strnchr+0x34>
  864668:	e0 00 00 08 	bi 864688 <strnchr+0x40>
  86466c:	10 24 00 00 	lb r4,(r1+0)
  864670:	34 42 ff ff 	addi r2,r2,-1
  864674:	44 80 00 05 	be r4,r0,864688 <strnchr+0x40>
  864678:	44 83 00 06 	be r4,r3,864690 <strnchr+0x48>
  86467c:	34 21 00 01 	addi r1,r1,1
  864680:	5c 40 ff fb 	bne r2,r0,86466c <strnchr+0x24>
  864684:	34 04 00 00 	mvi r4,0
  864688:	b8 80 08 00 	mv r1,r4
  86468c:	c3 a0 00 00 	ret
  864690:	b8 20 20 00 	mv r4,r1
  864694:	b8 80 08 00 	mv r1,r4
  864698:	c3 a0 00 00 	ret

0086469c <strcpy>:
  86469c:	34 03 00 00 	mvi r3,0
  8646a0:	b4 43 20 00 	add r4,r2,r3
  8646a4:	10 84 00 00 	lb r4,(r4+0)
  8646a8:	b4 23 28 00 	add r5,r1,r3
  8646ac:	34 63 00 01 	addi r3,r3,1
  8646b0:	30 a4 00 00 	sb (r5+0),r4
  8646b4:	5c 80 ff fb 	bne r4,r0,8646a0 <strcpy+0x4>
  8646b8:	c3 a0 00 00 	ret

008646bc <strncpy>:
  8646bc:	44 60 00 09 	be r3,r0,8646e0 <strncpy+0x24>
  8646c0:	34 04 00 00 	mvi r4,0
  8646c4:	10 45 00 00 	lb r5,(r2+0)
  8646c8:	b4 24 38 00 	add r7,r1,r4
  8646cc:	34 84 00 01 	addi r4,r4,1
  8646d0:	7c a6 00 00 	cmpnei r6,r5,0
  8646d4:	30 e5 00 00 	sb (r7+0),r5
  8646d8:	b4 46 10 00 	add r2,r2,r6
  8646dc:	5c 83 ff fa 	bne r4,r3,8646c4 <strncpy+0x8>
  8646e0:	c3 a0 00 00 	ret

008646e4 <strcmp>:
  8646e4:	34 03 00 00 	mvi r3,0
  8646e8:	e0 00 00 02 	bi 8646f0 <strcmp+0xc>
  8646ec:	44 a4 00 0b 	be r5,r4,864718 <strcmp+0x34>
  8646f0:	b4 23 28 00 	add r5,r1,r3
  8646f4:	b4 43 20 00 	add r4,r2,r3
  8646f8:	10 a5 00 00 	lb r5,(r5+0)
  8646fc:	40 84 00 00 	lbu r4,(r4+0)
  864700:	34 63 00 01 	addi r3,r3,1
  864704:	c8 a4 20 00 	sub r4,r5,r4
  864708:	b0 80 20 00 	sextb r4,r4
  86470c:	44 80 ff f8 	be r4,r0,8646ec <strcmp+0x8>
  864710:	b8 80 08 00 	mv r1,r4
  864714:	c3 a0 00 00 	ret
  864718:	34 01 00 00 	mvi r1,0
  86471c:	c3 a0 00 00 	ret

00864720 <strncmp>:
  864720:	b8 20 38 00 	mv r7,r1
  864724:	34 01 00 00 	mvi r1,0
  864728:	4c 03 00 15 	bge r0,r3,86477c <strncmp+0x5c>
  86472c:	10 e4 00 00 	lb r4,(r7+0)
  864730:	40 41 00 00 	lbu r1,(r2+0)
  864734:	c8 81 08 00 	sub r1,r4,r1
  864738:	b0 20 08 00 	sextb r1,r1
  86473c:	5c 20 00 10 	bne r1,r0,86477c <strncmp+0x5c>
  864740:	44 81 00 0f 	be r4,r1,86477c <strncmp+0x5c>
  864744:	34 04 00 00 	mvi r4,0
  864748:	34 84 00 01 	addi r4,r4,1
  86474c:	b4 e4 30 00 	add r6,r7,r4
  864750:	b4 44 28 00 	add r5,r2,r4
  864754:	48 64 00 03 	bg r3,r4,864760 <strncmp+0x40>
  864758:	34 01 00 00 	mvi r1,0
  86475c:	c3 a0 00 00 	ret
  864760:	10 c6 00 00 	lb r6,(r6+0)
  864764:	40 a5 00 00 	lbu r5,(r5+0)
  864768:	c8 c5 28 00 	sub r5,r6,r5
  86476c:	b0 a0 28 00 	sextb r5,r5
  864770:	5c a0 00 04 	bne r5,r0,864780 <strncmp+0x60>
  864774:	5c c5 ff f5 	bne r6,r5,864748 <strncmp+0x28>
  864778:	34 01 00 00 	mvi r1,0
  86477c:	c3 a0 00 00 	ret
  864780:	b8 a0 08 00 	mv r1,r5
  864784:	c3 a0 00 00 	ret

00864788 <strlen>:
  864788:	10 23 00 00 	lb r3,(r1+0)
  86478c:	34 02 00 00 	mvi r2,0
  864790:	44 60 00 06 	be r3,r0,8647a8 <strlen+0x20>
  864794:	b8 20 10 00 	mv r2,r1
  864798:	34 42 00 01 	addi r2,r2,1
  86479c:	10 43 00 00 	lb r3,(r2+0)
  8647a0:	5c 60 ff fe 	bne r3,r0,864798 <strlen+0x10>
  8647a4:	c8 41 10 00 	sub r2,r2,r1
  8647a8:	b8 40 08 00 	mv r1,r2
  8647ac:	c3 a0 00 00 	ret

008647b0 <strnlen>:
  8647b0:	34 03 00 00 	mvi r3,0
  8647b4:	44 40 00 0c 	be r2,r0,8647e4 <strnlen+0x34>
  8647b8:	10 24 00 00 	lb r4,(r1+0)
  8647bc:	44 80 00 0a 	be r4,r0,8647e4 <strnlen+0x34>
  8647c0:	34 42 ff ff 	addi r2,r2,-1
  8647c4:	b8 20 18 00 	mv r3,r1
  8647c8:	e0 00 00 04 	bi 8647d8 <strnlen+0x28>
  8647cc:	10 64 00 00 	lb r4,(r3+0)
  8647d0:	34 42 ff ff 	addi r2,r2,-1
  8647d4:	44 80 00 03 	be r4,r0,8647e0 <strnlen+0x30>
  8647d8:	34 63 00 01 	addi r3,r3,1
  8647dc:	5c 40 ff fc 	bne r2,r0,8647cc <strnlen+0x1c>
  8647e0:	c8 61 18 00 	sub r3,r3,r1
  8647e4:	b8 60 08 00 	mv r1,r3
  8647e8:	c3 a0 00 00 	ret

008647ec <memcmp>:
  8647ec:	b8 20 20 00 	mv r4,r1
  8647f0:	34 01 00 00 	mvi r1,0
  8647f4:	4c 03 00 0f 	bge r0,r3,864830 <memcmp+0x44>
  8647f8:	40 85 00 00 	lbu r5,(r4+0)
  8647fc:	40 41 00 00 	lbu r1,(r2+0)
  864800:	c8 a1 08 00 	sub r1,r5,r1
  864804:	5c 20 00 0c 	bne r1,r0,864834 <memcmp+0x48>
  864808:	34 63 ff ff 	addi r3,r3,-1
  86480c:	34 84 00 01 	addi r4,r4,1
  864810:	34 42 00 01 	addi r2,r2,1
  864814:	48 60 00 02 	bg r3,r0,86481c <memcmp+0x30>
  864818:	c3 a0 00 00 	ret
  86481c:	40 86 00 00 	lbu r6,(r4+0)
  864820:	40 45 00 00 	lbu r5,(r2+0)
  864824:	c8 c5 28 00 	sub r5,r6,r5
  864828:	44 a0 ff f8 	be r5,r0,864808 <memcmp+0x1c>
  86482c:	b8 a0 08 00 	mv r1,r5
  864830:	c3 a0 00 00 	ret
  864834:	c3 a0 00 00 	ret

00864838 <memset>:
  864838:	37 9c ff f8 	addi sp,sp,-8
  86483c:	5b 8b 00 08 	sw (sp+8),r11
  864840:	5b 8c 00 04 	sw (sp+4),r12
  864844:	44 60 00 2b 	be r3,r0,8648f0 <memset+0xb8>
  864848:	c8 01 30 00 	sub r6,r0,r1
  86484c:	20 c6 00 03 	andi r6,r6,0x3
  864850:	b8 20 20 00 	mv r4,r1
  864854:	34 67 ff ff 	addi r7,r3,-1
  864858:	b0 40 10 00 	sextb r2,r2
  86485c:	50 66 00 02 	bgeu r3,r6,864864 <memset+0x2c>
  864860:	b8 60 30 00 	mv r6,r3
  864864:	44 c0 00 09 	be r6,r0,864888 <memset+0x50>
  864868:	34 05 00 00 	mvi r5,0
  86486c:	34 68 ff fe 	addi r8,r3,-2
  864870:	30 82 00 00 	sb (r4+0),r2
  864874:	c9 05 38 00 	sub r7,r8,r5
  864878:	34 a5 00 01 	addi r5,r5,1
  86487c:	34 84 00 01 	addi r4,r4,1
  864880:	54 c5 ff fc 	bgu r6,r5,864870 <memset+0x38>
  864884:	44 66 00 1b 	be r3,r6,8648f0 <memset+0xb8>
  864888:	c8 66 18 00 	sub r3,r3,r6
  86488c:	00 68 00 02 	srui r8,r3,2
  864890:	3d 0a 00 02 	sli r10,r8,2
  864894:	45 40 00 11 	be r10,r0,8648d8 <memset+0xa0>
  864898:	20 45 00 ff 	andi r5,r2,0xff
  86489c:	3c a9 00 10 	sli r9,r5,16
  8648a0:	3c ac 00 18 	sli r12,r5,24
  8648a4:	3c ab 00 08 	sli r11,r5,8
  8648a8:	b9 89 48 00 	or r9,r12,r9
  8648ac:	b9 2b 48 00 	or r9,r9,r11
  8648b0:	b9 25 48 00 	or r9,r9,r5
  8648b4:	b4 26 30 00 	add r6,r1,r6
  8648b8:	34 05 00 00 	mvi r5,0
  8648bc:	58 c9 00 00 	sw (r6+0),r9
  8648c0:	34 a5 00 01 	addi r5,r5,1
  8648c4:	34 c6 00 04 	addi r6,r6,4
  8648c8:	55 05 ff fd 	bgu r8,r5,8648bc <memset+0x84>
  8648cc:	b4 8a 20 00 	add r4,r4,r10
  8648d0:	c8 ea 38 00 	sub r7,r7,r10
  8648d4:	44 6a 00 07 	be r3,r10,8648f0 <memset+0xb8>
  8648d8:	34 e7 00 01 	addi r7,r7,1
  8648dc:	34 03 00 00 	mvi r3,0
  8648e0:	b4 83 28 00 	add r5,r4,r3
  8648e4:	30 a2 00 00 	sb (r5+0),r2
  8648e8:	34 63 00 01 	addi r3,r3,1
  8648ec:	5c 67 ff fd 	bne r3,r7,8648e0 <memset+0xa8>
  8648f0:	2b 8b 00 08 	lw r11,(sp+8)
  8648f4:	2b 8c 00 04 	lw r12,(sp+4)
  8648f8:	37 9c 00 08 	addi sp,sp,8
  8648fc:	c3 a0 00 00 	ret

00864900 <memcpy>:
  864900:	44 60 00 2a 	be r3,r0,8649a8 <memcpy+0xa8>
  864904:	20 24 00 01 	andi r4,r1,0x1
  864908:	b8 20 30 00 	mv r6,r1
  86490c:	44 80 00 06 	be r4,r0,864924 <memcpy+0x24>
  864910:	40 44 00 00 	lbu r4,(r2+0)
  864914:	34 63 ff ff 	addi r3,r3,-1
  864918:	34 42 00 01 	addi r2,r2,1
  86491c:	30 24 00 00 	sb (r1+0),r4
  864920:	34 26 00 01 	addi r6,r1,1
  864924:	34 04 00 02 	mvi r4,2
  864928:	4c 83 00 08 	bge r4,r3,864948 <memcpy+0x48>
  86492c:	20 c4 00 02 	andi r4,r6,0x2
  864930:	44 80 00 06 	be r4,r0,864948 <memcpy+0x48>
  864934:	2c 44 00 00 	lhu r4,(r2+0)
  864938:	34 63 ff fe 	addi r3,r3,-2
  86493c:	34 42 00 02 	addi r2,r2,2
  864940:	0c c4 00 00 	sh (r6+0),r4
  864944:	34 c6 00 02 	addi r6,r6,2
  864948:	14 69 00 02 	sri r9,r3,2
  86494c:	45 20 00 0d 	be r9,r0,864980 <memcpy+0x80>
  864950:	b9 20 28 00 	mv r5,r9
  864954:	34 04 00 00 	mvi r4,0
  864958:	b4 44 38 00 	add r7,r2,r4
  86495c:	28 e8 00 00 	lw r8,(r7+0)
  864960:	b4 c4 38 00 	add r7,r6,r4
  864964:	34 a5 ff ff 	addi r5,r5,-1
  864968:	58 e8 00 00 	sw (r7+0),r8
  86496c:	34 84 00 04 	addi r4,r4,4
  864970:	5c a0 ff fa 	bne r5,r0,864958 <memcpy+0x58>
  864974:	3d 29 00 02 	sli r9,r9,2
  864978:	b4 49 10 00 	add r2,r2,r9
  86497c:	b4 c9 30 00 	add r6,r6,r9
  864980:	20 64 00 02 	andi r4,r3,0x2
  864984:	44 80 00 05 	be r4,r0,864998 <memcpy+0x98>
  864988:	2c 44 00 00 	lhu r4,(r2+0)
  86498c:	34 42 00 02 	addi r2,r2,2
  864990:	0c c4 00 00 	sh (r6+0),r4
  864994:	34 c6 00 02 	addi r6,r6,2
  864998:	20 63 00 01 	andi r3,r3,0x1
  86499c:	44 60 00 03 	be r3,r0,8649a8 <memcpy+0xa8>
  8649a0:	40 42 00 00 	lbu r2,(r2+0)
  8649a4:	30 c2 00 00 	sb (r6+0),r2
  8649a8:	c3 a0 00 00 	ret

008649ac <memmove>:
  8649ac:	54 22 00 2b 	bgu r1,r2,864a58 <memmove+0xac>
  8649b0:	44 60 00 35 	be r3,r0,864a84 <memmove+0xd8>
  8649b4:	b8 41 30 00 	or r6,r2,r1
  8649b8:	00 68 00 02 	srui r8,r3,2
  8649bc:	20 c6 00 03 	andi r6,r6,0x3
  8649c0:	34 44 00 04 	addi r4,r2,4
  8649c4:	34 25 00 04 	addi r5,r1,4
  8649c8:	f4 45 28 00 	cmpgu r5,r2,r5
  8649cc:	74 67 00 03 	cmpgui r7,r3,0x3
  8649d0:	64 c6 00 00 	cmpei r6,r6,0
  8649d4:	f4 24 20 00 	cmpgu r4,r1,r4
  8649d8:	3d 09 00 02 	sli r9,r8,2
  8649dc:	a0 e6 30 00 	and r6,r7,r6
  8649e0:	b8 85 20 00 	or r4,r4,r5
  8649e4:	a0 c4 20 00 	and r4,r6,r4
  8649e8:	65 25 00 00 	cmpei r5,r9,0
  8649ec:	18 84 00 01 	xori r4,r4,0x1
  8649f0:	b8 a4 20 00 	or r4,r5,r4
  8649f4:	b8 40 30 00 	mv r6,r2
  8649f8:	b8 20 28 00 	mv r5,r1
  8649fc:	34 6a ff ff 	addi r10,r3,-1
  864a00:	5c 80 00 0d 	bne r4,r0,864a34 <memmove+0x88>
  864a04:	34 05 00 00 	mvi r5,0
  864a08:	b4 44 30 00 	add r6,r2,r4
  864a0c:	28 c7 00 00 	lw r7,(r6+0)
  864a10:	b4 24 30 00 	add r6,r1,r4
  864a14:	34 a5 00 01 	addi r5,r5,1
  864a18:	58 c7 00 00 	sw (r6+0),r7
  864a1c:	34 84 00 04 	addi r4,r4,4
  864a20:	55 05 ff fa 	bgu r8,r5,864a08 <memmove+0x5c>
  864a24:	b4 29 28 00 	add r5,r1,r9
  864a28:	b4 49 30 00 	add r6,r2,r9
  864a2c:	c9 49 50 00 	sub r10,r10,r9
  864a30:	44 69 00 15 	be r3,r9,864a84 <memmove+0xd8>
  864a34:	35 47 00 01 	addi r7,r10,1
  864a38:	34 02 00 00 	mvi r2,0
  864a3c:	b4 c2 18 00 	add r3,r6,r2
  864a40:	40 64 00 00 	lbu r4,(r3+0)
  864a44:	b4 a2 18 00 	add r3,r5,r2
  864a48:	34 42 00 01 	addi r2,r2,1
  864a4c:	30 64 00 00 	sb (r3+0),r4
  864a50:	5c 47 ff fb 	bne r2,r7,864a3c <memmove+0x90>
  864a54:	c3 a0 00 00 	ret
  864a58:	44 60 00 0b 	be r3,r0,864a84 <memmove+0xd8>
  864a5c:	b4 23 20 00 	add r4,r1,r3
  864a60:	b4 43 10 00 	add r2,r2,r3
  864a64:	34 05 ff ff 	mvi r5,-1
  864a68:	34 63 ff ff 	addi r3,r3,-1
  864a6c:	34 42 ff ff 	addi r2,r2,-1
  864a70:	40 46 00 00 	lbu r6,(r2+0)
  864a74:	34 84 ff ff 	addi r4,r4,-1
  864a78:	34 63 ff ff 	addi r3,r3,-1
  864a7c:	30 86 00 00 	sb (r4+0),r6
  864a80:	5c 65 ff fb 	bne r3,r5,864a6c <memmove+0xc0>
  864a84:	c3 a0 00 00 	ret

00864a88 <strstr>:
  864a88:	10 43 00 00 	lb r3,(r2+0)
  864a8c:	b8 20 28 00 	mv r5,r1
  864a90:	44 60 00 08 	be r3,r0,864ab0 <strstr+0x28>
  864a94:	b8 40 18 00 	mv r3,r2
  864a98:	34 63 00 01 	addi r3,r3,1
  864a9c:	10 64 00 00 	lb r4,(r3+0)
  864aa0:	5c 80 ff fe 	bne r4,r0,864a98 <strstr+0x10>
  864aa4:	c8 62 40 00 	sub r8,r3,r2
  864aa8:	b8 20 28 00 	mv r5,r1
  864aac:	5d 04 00 03 	bne r8,r4,864ab8 <strstr+0x30>
  864ab0:	b8 a0 08 00 	mv r1,r5
  864ab4:	c3 a0 00 00 	ret
  864ab8:	10 23 00 00 	lb r3,(r1+0)
  864abc:	b8 20 48 00 	mv r9,r1
  864ac0:	44 60 00 04 	be r3,r0,864ad0 <strstr+0x48>
  864ac4:	35 29 00 01 	addi r9,r9,1
  864ac8:	11 23 00 00 	lb r3,(r9+0)
  864acc:	5c 60 ff fe 	bne r3,r0,864ac4 <strstr+0x3c>
  864ad0:	c9 21 48 00 	sub r9,r9,r1
  864ad4:	34 05 00 00 	mvi r5,0
  864ad8:	49 09 ff f6 	bg r8,r9,864ab0 <strstr+0x28>
  864adc:	b8 20 28 00 	mv r5,r1
  864ae0:	4c 08 ff f4 	bge r0,r8,864ab0 <strstr+0x28>
  864ae4:	40 4a 00 00 	lbu r10,(r2+0)
  864ae8:	40 23 00 00 	lbu r3,(r1+0)
  864aec:	b8 20 20 00 	mv r4,r1
  864af0:	5d 43 00 0d 	bne r10,r3,864b24 <strstr+0x9c>
  864af4:	b9 00 18 00 	mv r3,r8
  864af8:	b8 40 28 00 	mv r5,r2
  864afc:	34 63 ff ff 	addi r3,r3,-1
  864b00:	34 84 00 01 	addi r4,r4,1
  864b04:	34 a5 00 01 	addi r5,r5,1
  864b08:	48 60 00 04 	bg r3,r0,864b18 <strstr+0x90>
  864b0c:	b8 20 28 00 	mv r5,r1
  864b10:	b8 a0 08 00 	mv r1,r5
  864b14:	c3 a0 00 00 	ret
  864b18:	40 87 00 00 	lbu r7,(r4+0)
  864b1c:	40 a6 00 00 	lbu r6,(r5+0)
  864b20:	44 e6 ff f7 	be r7,r6,864afc <strstr+0x74>
  864b24:	35 29 ff ff 	addi r9,r9,-1
  864b28:	49 09 00 03 	bg r8,r9,864b34 <strstr+0xac>
  864b2c:	34 21 00 01 	addi r1,r1,1
  864b30:	e3 ff ff ee 	bi 864ae8 <strstr+0x60>
  864b34:	34 05 00 00 	mvi r5,0
  864b38:	e3 ff ff de 	bi 864ab0 <strstr+0x28>

00864b3c <strtoul>:
  864b3c:	37 9c ff f8 	addi sp,sp,-8
  864b40:	5b 8b 00 08 	sw (sp+8),r11
  864b44:	5b 8c 00 04 	sw (sp+4),r12
  864b48:	5c 60 00 28 	bne r3,r0,864be8 <strtoul+0xac>
  864b4c:	40 24 00 00 	lbu r4,(r1+0)
  864b50:	34 05 00 30 	mvi r5,48
  864b54:	34 03 00 0a 	mvi r3,10
  864b58:	b0 80 30 00 	sextb r6,r4
  864b5c:	44 c5 00 37 	be r6,r5,864c38 <strtoul+0xfc>
  864b60:	34 06 00 00 	mvi r6,0
  864b64:	34 0a 00 09 	mvi r10,9
  864b68:	34 0b 00 05 	mvi r11,5
  864b6c:	34 0c 00 19 	mvi r12,25
  864b70:	b0 80 28 00 	sextb r5,r4
  864b74:	20 a4 00 ff 	andi r4,r5,0xff
  864b78:	34 87 ff d0 	addi r7,r4,-48
  864b7c:	34 88 ff 9f 	addi r8,r4,-97
  864b80:	20 e7 00 ff 	andi r7,r7,0xff
  864b84:	88 c3 48 00 	mul r9,r6,r3
  864b88:	21 08 00 ff 	andi r8,r8,0xff
  864b8c:	34 a5 ff d0 	addi r5,r5,-48
  864b90:	51 47 00 10 	bgeu r10,r7,864bd0 <strtoul+0x94>
  864b94:	34 85 ff bf 	addi r5,r4,-65
  864b98:	20 a5 00 ff 	andi r5,r5,0xff
  864b9c:	34 87 ff e0 	addi r7,r4,-32
  864ba0:	51 68 00 0a 	bgeu r11,r8,864bc8 <strtoul+0x8c>
  864ba4:	51 65 00 08 	bgeu r11,r5,864bc4 <strtoul+0x88>
  864ba8:	44 40 00 02 	be r2,r0,864bb0 <strtoul+0x74>
  864bac:	58 41 00 00 	sw (r2+0),r1
  864bb0:	b8 c0 08 00 	mv r1,r6
  864bb4:	2b 8b 00 08 	lw r11,(sp+8)
  864bb8:	2b 8c 00 04 	lw r12,(sp+4)
  864bbc:	37 9c 00 08 	addi sp,sp,8
  864bc0:	c3 a0 00 00 	ret
  864bc4:	55 0c 00 02 	bgu r8,r12,864bcc <strtoul+0x90>
  864bc8:	20 e4 00 ff 	andi r4,r7,0xff
  864bcc:	34 85 ff c9 	addi r5,r4,-55
  864bd0:	54 65 00 02 	bgu r3,r5,864bd8 <strtoul+0x9c>
  864bd4:	e3 ff ff f5 	bi 864ba8 <strtoul+0x6c>
  864bd8:	34 21 00 01 	addi r1,r1,1
  864bdc:	40 24 00 00 	lbu r4,(r1+0)
  864be0:	b4 a9 30 00 	add r6,r5,r9
  864be4:	e3 ff ff e3 	bi 864b70 <strtoul+0x34>
  864be8:	34 04 00 10 	mvi r4,16
  864bec:	44 64 00 03 	be r3,r4,864bf8 <strtoul+0xbc>
  864bf0:	40 24 00 00 	lbu r4,(r1+0)
  864bf4:	e3 ff ff db 	bi 864b60 <strtoul+0x24>
  864bf8:	40 24 00 00 	lbu r4,(r1+0)
  864bfc:	34 05 00 30 	mvi r5,48
  864c00:	b0 80 30 00 	sextb r6,r4
  864c04:	5c c5 ff d7 	bne r6,r5,864b60 <strtoul+0x24>
  864c08:	40 25 00 01 	lbu r5,(r1+1)
  864c0c:	34 06 00 19 	mvi r6,25
  864c10:	34 a7 ff 9f 	addi r7,r5,-97
  864c14:	20 e7 00 ff 	andi r7,r7,0xff
  864c18:	54 e6 00 03 	bgu r7,r6,864c24 <strtoul+0xe8>
  864c1c:	34 a5 ff e0 	addi r5,r5,-32
  864c20:	20 a5 00 ff 	andi r5,r5,0xff
  864c24:	34 06 00 58 	mvi r6,88
  864c28:	5c a6 ff ce 	bne r5,r6,864b60 <strtoul+0x24>
  864c2c:	34 21 00 02 	addi r1,r1,2
  864c30:	40 24 00 00 	lbu r4,(r1+0)
  864c34:	e3 ff ff cb 	bi 864b60 <strtoul+0x24>
  864c38:	34 21 00 01 	addi r1,r1,1
  864c3c:	40 23 00 00 	lbu r3,(r1+0)
  864c40:	34 04 00 19 	mvi r4,25
  864c44:	34 65 ff 9f 	addi r5,r3,-97
  864c48:	20 a5 00 ff 	andi r5,r5,0xff
  864c4c:	54 a4 00 03 	bgu r5,r4,864c58 <strtoul+0x11c>
  864c50:	34 63 ff e0 	addi r3,r3,-32
  864c54:	20 63 00 ff 	andi r3,r3,0xff
  864c58:	34 04 00 58 	mvi r4,88
  864c5c:	44 64 00 04 	be r3,r4,864c6c <strtoul+0x130>
  864c60:	34 03 00 08 	mvi r3,8
  864c64:	40 24 00 00 	lbu r4,(r1+0)
  864c68:	e3 ff ff be 	bi 864b60 <strtoul+0x24>
  864c6c:	40 23 00 01 	lbu r3,(r1+1)
  864c70:	34 06 00 09 	mvi r6,9
  864c74:	34 24 00 01 	addi r4,r1,1
  864c78:	34 65 ff d0 	addi r5,r3,-48
  864c7c:	20 a5 00 ff 	andi r5,r5,0xff
  864c80:	50 c5 00 08 	bgeu r6,r5,864ca0 <strtoul+0x164>
  864c84:	34 66 ff 9f 	addi r6,r3,-97
  864c88:	20 c6 00 ff 	andi r6,r6,0xff
  864c8c:	34 05 00 05 	mvi r5,5
  864c90:	50 a6 00 08 	bgeu r5,r6,864cb0 <strtoul+0x174>
  864c94:	34 63 ff bf 	addi r3,r3,-65
  864c98:	20 63 00 ff 	andi r3,r3,0xff
  864c9c:	54 65 00 09 	bgu r3,r5,864cc0 <strtoul+0x184>
  864ca0:	b8 80 08 00 	mv r1,r4
  864ca4:	34 03 00 10 	mvi r3,16
  864ca8:	40 84 00 00 	lbu r4,(r4+0)
  864cac:	e3 ff ff ad 	bi 864b60 <strtoul+0x24>
  864cb0:	b8 80 08 00 	mv r1,r4
  864cb4:	34 03 00 10 	mvi r3,16
  864cb8:	40 24 00 00 	lbu r4,(r1+0)
  864cbc:	e3 ff ff a9 	bi 864b60 <strtoul+0x24>
  864cc0:	40 24 00 00 	lbu r4,(r1+0)
  864cc4:	34 03 00 08 	mvi r3,8
  864cc8:	e3 ff ff a6 	bi 864b60 <strtoul+0x24>

00864ccc <strtol>:
  864ccc:	37 9c ff fc 	addi sp,sp,-4
  864cd0:	5b 9d 00 04 	sw (sp+4),ra
  864cd4:	10 26 00 00 	lb r6,(r1+0)
  864cd8:	34 05 00 2d 	mvi r5,45
  864cdc:	44 c5 00 05 	be r6,r5,864cf0 <strtol+0x24>
  864ce0:	fb ff ff 97 	calli 864b3c <strtoul>
  864ce4:	2b 9d 00 04 	lw ra,(sp+4)
  864ce8:	37 9c 00 04 	addi sp,sp,4
  864cec:	c3 a0 00 00 	ret
  864cf0:	34 21 00 01 	addi r1,r1,1
  864cf4:	fb ff ff 92 	calli 864b3c <strtoul>
  864cf8:	c8 01 08 00 	sub r1,r0,r1
  864cfc:	2b 9d 00 04 	lw ra,(sp+4)
  864d00:	37 9c 00 04 	addi sp,sp,4
  864d04:	c3 a0 00 00 	ret

00864d08 <skip_atoi>:
  864d08:	28 22 00 00 	lw r2,(r1+0)
  864d0c:	34 04 00 09 	mvi r4,9
  864d10:	b8 20 38 00 	mv r7,r1
  864d14:	10 43 00 00 	lb r3,(r2+0)
  864d18:	34 01 00 00 	mvi r1,0
  864d1c:	34 63 ff d0 	addi r3,r3,-48
  864d20:	20 65 00 ff 	andi r5,r3,0xff
  864d24:	54 a4 00 0c 	bgu r5,r4,864d54 <skip_atoi+0x4c>
  864d28:	34 08 00 09 	mvi r8,9
  864d2c:	34 42 00 01 	addi r2,r2,1
  864d30:	58 e2 00 00 	sw (r7+0),r2
  864d34:	3c 26 00 01 	sli r6,r1,1
  864d38:	3c 25 00 03 	sli r5,r1,3
  864d3c:	10 44 00 00 	lb r4,(r2+0)
  864d40:	b4 c5 28 00 	add r5,r6,r5
  864d44:	b4 65 08 00 	add r1,r3,r5
  864d48:	34 83 ff d0 	addi r3,r4,-48
  864d4c:	20 64 00 ff 	andi r4,r3,0xff
  864d50:	51 04 ff f7 	bgeu r8,r4,864d2c <skip_atoi+0x24>
  864d54:	c3 a0 00 00 	ret

00864d58 <number>:
  864d58:	37 9c ff a0 	addi sp,sp,-96
  864d5c:	5b 8b 00 1c 	sw (sp+28),r11
  864d60:	5b 8c 00 18 	sw (sp+24),r12
  864d64:	5b 8d 00 14 	sw (sp+20),r13
  864d68:	5b 8e 00 10 	sw (sp+16),r14
  864d6c:	5b 8f 00 0c 	sw (sp+12),r15
  864d70:	5b 90 00 08 	sw (sp+8),r16
  864d74:	5b 91 00 04 	sw (sp+4),r17
  864d78:	20 e8 00 40 	andi r8,r7,0x40
  864d7c:	45 00 00 63 	be r8,r0,864f08 <number+0x1b0>
  864d80:	78 0e 00 86 	mvhi r14,0x86
  864d84:	78 0b 00 86 	mvhi r11,0x86
  864d88:	39 ce e8 4d 	ori r14,r14,0xe84d
  864d8c:	39 6b e8 2c 	ori r11,r11,0xe82c
  864d90:	20 e8 00 10 	andi r8,r7,0x10
  864d94:	45 00 00 03 	be r8,r0,864da0 <number+0x48>
  864d98:	34 08 ff fe 	mvi r8,-2
  864d9c:	a0 e8 38 00 	and r7,r7,r8
  864da0:	34 89 ff fe 	addi r9,r4,-2
  864da4:	34 08 00 22 	mvi r8,34
  864da8:	55 28 00 79 	bgu r9,r8,864f8c <number+0x234>
  864dac:	20 ed 00 01 	andi r13,r7,0x1
  864db0:	65 ad 00 00 	cmpei r13,r13,0
  864db4:	34 08 ff f0 	mvi r8,-16
  864db8:	c8 0d 68 00 	sub r13,r0,r13
  864dbc:	a1 a8 68 00 	and r13,r13,r8
  864dc0:	20 e8 00 02 	andi r8,r7,0x2
  864dc4:	35 ad 00 30 	addi r13,r13,48
  864dc8:	34 0f 00 00 	mvi r15,0
  864dcc:	45 00 00 05 	be r8,r0,864de0 <number+0x88>
  864dd0:	4c 60 00 53 	bge r3,r0,864f1c <number+0x1c4>
  864dd4:	c8 03 18 00 	sub r3,r0,r3
  864dd8:	34 a5 ff ff 	addi r5,r5,-1
  864ddc:	34 0f 00 2d 	mvi r15,45
  864de0:	20 f0 00 20 	andi r16,r7,0x20
  864de4:	46 00 00 05 	be r16,r0,864df8 <number+0xa0>
  864de8:	34 08 00 10 	mvi r8,16
  864dec:	44 88 00 82 	be r4,r8,864ff4 <number+0x29c>
  864df0:	64 88 00 08 	cmpei r8,r4,8
  864df4:	c8 a8 28 00 	sub r5,r5,r8
  864df8:	34 08 00 00 	mvi r8,0
  864dfc:	37 8c 00 20 	addi r12,sp,32
  864e00:	5c 60 00 38 	bne r3,r0,864ee0 <number+0x188>
  864e04:	34 03 00 30 	mvi r3,48
  864e08:	33 83 00 20 	sb (sp+32),r3
  864e0c:	34 08 00 01 	mvi r8,1
  864e10:	34 03 00 00 	mvi r3,0
  864e14:	b9 00 50 00 	mv r10,r8
  864e18:	4d 06 00 02 	bge r8,r6,864e20 <number+0xc8>
  864e1c:	b8 c0 50 00 	mv r10,r6
  864e20:	20 e6 00 11 	andi r6,r7,0x11
  864e24:	c8 aa 48 00 	sub r9,r5,r10
  864e28:	5c c0 00 0e 	bne r6,r0,864e60 <number+0x108>
  864e2c:	35 31 ff ff 	addi r17,r9,-1
  864e30:	4c c9 00 7a 	bge r6,r9,865018 <number+0x2c0>
  864e34:	ba 20 30 00 	mv r6,r17
  864e38:	b8 20 28 00 	mv r5,r1
  864e3c:	34 0c 00 20 	mvi r12,32
  864e40:	34 0b ff ff 	mvi r11,-1
  864e44:	34 c6 ff ff 	addi r6,r6,-1
  864e48:	50 a2 00 02 	bgeu r5,r2,864e50 <number+0xf8>
  864e4c:	30 ac 00 00 	sb (r5+0),r12
  864e50:	34 a5 00 01 	addi r5,r5,1
  864e54:	5c cb ff fc 	bne r6,r11,864e44 <number+0xec>
  864e58:	b4 29 08 00 	add r1,r1,r9
  864e5c:	ca 29 48 00 	sub r9,r17,r9
  864e60:	45 e0 00 04 	be r15,r0,864e70 <number+0x118>
  864e64:	50 22 00 02 	bgeu r1,r2,864e6c <number+0x114>
  864e68:	30 2f 00 00 	sb (r1+0),r15
  864e6c:	34 21 00 01 	addi r1,r1,1
  864e70:	46 00 00 05 	be r16,r0,864e84 <number+0x12c>
  864e74:	34 05 00 08 	mvi r5,8
  864e78:	44 85 00 61 	be r4,r5,864ffc <number+0x2a4>
  864e7c:	34 05 00 10 	mvi r5,16
  864e80:	44 85 00 54 	be r4,r5,864fd0 <number+0x278>
  864e84:	20 e7 00 10 	andi r7,r7,0x10
  864e88:	5c e0 00 0c 	bne r7,r0,864eb8 <number+0x160>
  864e8c:	35 25 ff ff 	addi r5,r9,-1
  864e90:	4c e9 00 60 	bge r7,r9,865010 <number+0x2b8>
  864e94:	b8 20 20 00 	mv r4,r1
  864e98:	34 06 ff ff 	mvi r6,-1
  864e9c:	34 a5 ff ff 	addi r5,r5,-1
  864ea0:	50 82 00 02 	bgeu r4,r2,864ea8 <number+0x150>
  864ea4:	30 8d 00 00 	sb (r4+0),r13
  864ea8:	34 84 00 01 	addi r4,r4,1
  864eac:	5c a6 ff fc 	bne r5,r6,864e9c <number+0x144>
  864eb0:	b4 29 08 00 	add r1,r1,r9
  864eb4:	34 09 ff ff 	mvi r9,-1
  864eb8:	4d 0a 00 22 	bge r8,r10,864f40 <number+0x1e8>
  864ebc:	35 45 ff ff 	addi r5,r10,-1
  864ec0:	b8 20 20 00 	mv r4,r1
  864ec4:	34 06 00 30 	mvi r6,48
  864ec8:	50 82 00 02 	bgeu r4,r2,864ed0 <number+0x178>
  864ecc:	30 86 00 00 	sb (r4+0),r6
  864ed0:	34 84 00 01 	addi r4,r4,1
  864ed4:	4d 05 00 19 	bge r8,r5,864f38 <number+0x1e0>
  864ed8:	34 a5 ff ff 	addi r5,r5,-1
  864edc:	e3 ff ff fb 	bi 864ec8 <number+0x170>
  864ee0:	c4 64 48 00 	modu r9,r3,r4
  864ee4:	b5 88 50 00 	add r10,r12,r8
  864ee8:	b5 69 48 00 	add r9,r11,r9
  864eec:	41 29 00 00 	lbu r9,(r9+0)
  864ef0:	8c 64 18 00 	divu r3,r3,r4
  864ef4:	35 08 00 01 	addi r8,r8,1
  864ef8:	31 49 00 00 	sb (r10+0),r9
  864efc:	5c 60 ff f9 	bne r3,r0,864ee0 <number+0x188>
  864f00:	35 03 ff ff 	addi r3,r8,-1
  864f04:	e3 ff ff c4 	bi 864e14 <number+0xbc>
  864f08:	78 0e 00 86 	mvhi r14,0x86
  864f0c:	78 0b 00 86 	mvhi r11,0x86
  864f10:	39 ce e8 75 	ori r14,r14,0xe875
  864f14:	39 6b e8 54 	ori r11,r11,0xe854
  864f18:	e3 ff ff 9e 	bi 864d90 <number+0x38>
  864f1c:	20 e8 00 04 	andi r8,r7,0x4
  864f20:	5d 00 00 27 	bne r8,r0,864fbc <number+0x264>
  864f24:	20 e8 00 08 	andi r8,r7,0x8
  864f28:	45 0f ff ae 	be r8,r15,864de0 <number+0x88>
  864f2c:	34 a5 ff ff 	addi r5,r5,-1
  864f30:	34 0f 00 20 	mvi r15,32
  864f34:	e3 ff ff ab 	bi 864de0 <number+0x88>
  864f38:	c9 48 40 00 	sub r8,r10,r8
  864f3c:	b4 28 08 00 	add r1,r1,r8
  864f40:	37 85 00 20 	addi r5,sp,32
  864f44:	e0 00 00 02 	bi 864f4c <number+0x1f4>
  864f48:	34 63 ff ff 	addi r3,r3,-1
  864f4c:	b4 a3 20 00 	add r4,r5,r3
  864f50:	50 22 00 03 	bgeu r1,r2,864f5c <number+0x204>
  864f54:	40 84 00 00 	lbu r4,(r4+0)
  864f58:	30 24 00 00 	sb (r1+0),r4
  864f5c:	34 21 00 01 	addi r1,r1,1
  864f60:	5c 60 ff fa 	bne r3,r0,864f48 <number+0x1f0>
  864f64:	b8 20 28 00 	mv r5,r1
  864f68:	4c 69 00 0a 	bge r3,r9,864f90 <number+0x238>
  864f6c:	35 23 ff ff 	addi r3,r9,-1
  864f70:	34 04 00 20 	mvi r4,32
  864f74:	50 22 00 02 	bgeu r1,r2,864f7c <number+0x224>
  864f78:	30 24 00 00 	sb (r1+0),r4
  864f7c:	34 21 00 01 	addi r1,r1,1
  864f80:	44 60 00 0d 	be r3,r0,864fb4 <number+0x25c>
  864f84:	34 63 ff ff 	addi r3,r3,-1
  864f88:	e3 ff ff fb 	bi 864f74 <number+0x21c>
  864f8c:	34 01 00 00 	mvi r1,0
  864f90:	2b 8b 00 1c 	lw r11,(sp+28)
  864f94:	2b 8c 00 18 	lw r12,(sp+24)
  864f98:	2b 8d 00 14 	lw r13,(sp+20)
  864f9c:	2b 8e 00 10 	lw r14,(sp+16)
  864fa0:	2b 8f 00 0c 	lw r15,(sp+12)
  864fa4:	2b 90 00 08 	lw r16,(sp+8)
  864fa8:	2b 91 00 04 	lw r17,(sp+4)
  864fac:	37 9c 00 60 	addi sp,sp,96
  864fb0:	c3 a0 00 00 	ret
  864fb4:	b4 a9 08 00 	add r1,r5,r9
  864fb8:	e3 ff ff f6 	bi 864f90 <number+0x238>
  864fbc:	20 f0 00 20 	andi r16,r7,0x20
  864fc0:	34 a5 ff ff 	addi r5,r5,-1
  864fc4:	34 0f 00 2b 	mvi r15,43
  864fc8:	46 00 ff 8c 	be r16,r0,864df8 <number+0xa0>
  864fcc:	e3 ff ff 87 	bi 864de8 <number+0x90>
  864fd0:	50 22 00 03 	bgeu r1,r2,864fdc <number+0x284>
  864fd4:	34 04 00 30 	mvi r4,48
  864fd8:	30 24 00 00 	sb (r1+0),r4
  864fdc:	34 24 00 01 	addi r4,r1,1
  864fe0:	50 82 00 03 	bgeu r4,r2,864fec <number+0x294>
  864fe4:	41 c5 00 00 	lbu r5,(r14+0)
  864fe8:	30 25 00 01 	sb (r1+1),r5
  864fec:	34 81 00 01 	addi r1,r4,1
  864ff0:	e3 ff ff a5 	bi 864e84 <number+0x12c>
  864ff4:	34 a5 ff fe 	addi r5,r5,-2
  864ff8:	e3 ff ff 80 	bi 864df8 <number+0xa0>
  864ffc:	50 22 00 03 	bgeu r1,r2,865008 <number+0x2b0>
  865000:	34 04 00 30 	mvi r4,48
  865004:	30 24 00 00 	sb (r1+0),r4
  865008:	34 21 00 01 	addi r1,r1,1
  86500c:	e3 ff ff 9e 	bi 864e84 <number+0x12c>
  865010:	b8 a0 48 00 	mv r9,r5
  865014:	e3 ff ff a9 	bi 864eb8 <number+0x160>
  865018:	ba 20 48 00 	mv r9,r17
  86501c:	e3 ff ff 91 	bi 864e60 <number+0x108>

00865020 <vscnprintf>:
  865020:	37 9c ff f8 	addi sp,sp,-8
  865024:	5b 8b 00 08 	sw (sp+8),r11
  865028:	5b 9d 00 04 	sw (sp+4),ra
  86502c:	b8 40 58 00 	mv r11,r2
  865030:	f8 00 06 15 	calli 866884 <vsnprintf>
  865034:	49 61 00 02 	bg r11,r1,86503c <vscnprintf+0x1c>
  865038:	35 61 ff ff 	addi r1,r11,-1
  86503c:	2b 9d 00 04 	lw ra,(sp+4)
  865040:	2b 8b 00 08 	lw r11,(sp+8)
  865044:	37 9c 00 08 	addi sp,sp,8
  865048:	c3 a0 00 00 	ret

0086504c <snprintf>:
  86504c:	37 9c ff e4 	addi sp,sp,-28
  865050:	5b 9d 00 04 	sw (sp+4),ra
  865054:	5b 84 00 0c 	sw (sp+12),r4
  865058:	37 84 00 0c 	addi r4,sp,12
  86505c:	5b 83 00 08 	sw (sp+8),r3
  865060:	5b 85 00 10 	sw (sp+16),r5
  865064:	5b 86 00 14 	sw (sp+20),r6
  865068:	5b 87 00 18 	sw (sp+24),r7
  86506c:	5b 88 00 1c 	sw (sp+28),r8
  865070:	f8 00 06 05 	calli 866884 <vsnprintf>
  865074:	2b 9d 00 04 	lw ra,(sp+4)
  865078:	37 9c 00 1c 	addi sp,sp,28
  86507c:	c3 a0 00 00 	ret

00865080 <scnprintf>:
  865080:	37 9c ff e0 	addi sp,sp,-32
  865084:	5b 8b 00 08 	sw (sp+8),r11
  865088:	5b 9d 00 04 	sw (sp+4),ra
  86508c:	5b 84 00 10 	sw (sp+16),r4
  865090:	37 84 00 10 	addi r4,sp,16
  865094:	b8 40 58 00 	mv r11,r2
  865098:	5b 83 00 0c 	sw (sp+12),r3
  86509c:	5b 85 00 14 	sw (sp+20),r5
  8650a0:	5b 86 00 18 	sw (sp+24),r6
  8650a4:	5b 87 00 1c 	sw (sp+28),r7
  8650a8:	5b 88 00 20 	sw (sp+32),r8
  8650ac:	f8 00 05 f6 	calli 866884 <vsnprintf>
  8650b0:	49 61 00 02 	bg r11,r1,8650b8 <scnprintf+0x38>
  8650b4:	35 61 ff ff 	addi r1,r11,-1
  8650b8:	2b 9d 00 04 	lw ra,(sp+4)
  8650bc:	2b 8b 00 08 	lw r11,(sp+8)
  8650c0:	37 9c 00 20 	addi sp,sp,32
  8650c4:	c3 a0 00 00 	ret

008650c8 <vsprintf>:
  8650c8:	37 9c ff fc 	addi sp,sp,-4
  8650cc:	5b 9d 00 04 	sw (sp+4),ra
  8650d0:	78 04 00 86 	mvhi r4,0x86
  8650d4:	38 84 e5 c4 	ori r4,r4,0xe5c4
  8650d8:	b8 40 28 00 	mv r5,r2
  8650dc:	28 82 00 00 	lw r2,(r4+0)
  8650e0:	b8 60 20 00 	mv r4,r3
  8650e4:	b8 a0 18 00 	mv r3,r5
  8650e8:	f8 00 05 e7 	calli 866884 <vsnprintf>
  8650ec:	2b 9d 00 04 	lw ra,(sp+4)
  8650f0:	37 9c 00 04 	addi sp,sp,4
  8650f4:	c3 a0 00 00 	ret

008650f8 <sprintf>:
  8650f8:	37 9c ff e0 	addi sp,sp,-32
  8650fc:	5b 9d 00 04 	sw (sp+4),ra
  865100:	78 0a 00 86 	mvhi r10,0x86
  865104:	39 4a e5 c4 	ori r10,r10,0xe5c4
  865108:	b8 40 48 00 	mv r9,r2
  86510c:	5b 82 00 08 	sw (sp+8),r2
  865110:	29 42 00 00 	lw r2,(r10+0)
  865114:	5b 83 00 0c 	sw (sp+12),r3
  865118:	5b 84 00 10 	sw (sp+16),r4
  86511c:	b9 20 18 00 	mv r3,r9
  865120:	37 84 00 0c 	addi r4,sp,12
  865124:	5b 85 00 14 	sw (sp+20),r5
  865128:	5b 86 00 18 	sw (sp+24),r6
  86512c:	5b 87 00 1c 	sw (sp+28),r7
  865130:	5b 88 00 20 	sw (sp+32),r8
  865134:	f8 00 05 d4 	calli 866884 <vsnprintf>
  865138:	2b 9d 00 04 	lw ra,(sp+4)
  86513c:	37 9c 00 20 	addi sp,sp,32
  865140:	c3 a0 00 00 	ret

00865144 <rand>:
  865144:	78 02 40 00 	mvhi r2,0x4000
  865148:	38 42 00 00 	ori r2,r2,0x0
  86514c:	28 41 00 00 	lw r1,(r2+0)
  865150:	78 04 00 86 	mvhi r4,0x86
  865154:	38 84 e8 28 	ori r4,r4,0xe828
  865158:	3c 23 00 07 	sli r3,r1,7
  86515c:	b4 61 08 00 	add r1,r3,r1
  865160:	28 83 00 00 	lw r3,(r4+0)
  865164:	b4 23 08 00 	add r1,r1,r3
  865168:	58 41 00 00 	sw (r2+0),r1
  86516c:	c3 a0 00 00 	ret

00865170 <crc16>:
  865170:	b8 20 40 00 	mv r8,r1
  865174:	34 01 00 00 	mvi r1,0
  865178:	4c 02 00 10 	bge r0,r2,8651b8 <crc16+0x48>
  86517c:	78 07 00 87 	mvhi r7,0x87
  865180:	34 03 00 00 	mvi r3,0
  865184:	38 e7 15 a0 	ori r7,r7,0x15a0
  865188:	b5 03 20 00 	add r4,r8,r3
  86518c:	40 85 00 00 	lbu r5,(r4+0)
  865190:	00 26 00 08 	srui r6,r1,8
  865194:	3c 24 00 08 	sli r4,r1,8
  865198:	98 c5 28 00 	xor r5,r6,r5
  86519c:	3c a5 00 02 	sli r5,r5,2
  8651a0:	20 84 ff ff 	andi r4,r4,0xffff
  8651a4:	b4 e5 28 00 	add r5,r7,r5
  8651a8:	2c a5 00 02 	lhu r5,(r5+2)
  8651ac:	34 63 00 01 	addi r3,r3,1
  8651b0:	98 a4 08 00 	xor r1,r5,r4
  8651b4:	5c 62 ff f5 	bne r3,r2,865188 <crc16+0x18>
  8651b8:	c3 a0 00 00 	ret

008651bc <crc32>:
  8651bc:	37 9c ff f4 	addi sp,sp,-12
  8651c0:	5b 8b 00 0c 	sw (sp+12),r11
  8651c4:	5b 8c 00 08 	sw (sp+8),r12
  8651c8:	5b 8d 00 04 	sw (sp+4),r13
  8651cc:	34 03 00 07 	mvi r3,7
  8651d0:	34 05 ff ff 	mvi r5,-1
  8651d4:	50 62 00 4f 	bgeu r3,r2,865310 <crc32+0x154>
  8651d8:	78 04 00 86 	mvhi r4,0x86
  8651dc:	b8 40 30 00 	mv r6,r2
  8651e0:	b8 20 18 00 	mv r3,r1
  8651e4:	38 84 e8 7c 	ori r4,r4,0xe87c
  8651e8:	34 0d 00 07 	mvi r13,7
  8651ec:	40 67 00 00 	lbu r7,(r3+0)
  8651f0:	00 a9 00 08 	srui r9,r5,8
  8651f4:	40 68 00 01 	lbu r8,(r3+1)
  8651f8:	98 a7 28 00 	xor r5,r5,r7
  8651fc:	20 a5 00 ff 	andi r5,r5,0xff
  865200:	3c a5 00 02 	sli r5,r5,2
  865204:	40 67 00 02 	lbu r7,(r3+2)
  865208:	b4 85 28 00 	add r5,r4,r5
  86520c:	28 a5 00 00 	lw r5,(r5+0)
  865210:	40 6b 00 03 	lbu r11,(r3+3)
  865214:	40 6a 00 04 	lbu r10,(r3+4)
  865218:	98 a9 28 00 	xor r5,r5,r9
  86521c:	98 a8 40 00 	xor r8,r5,r8
  865220:	21 08 00 ff 	andi r8,r8,0xff
  865224:	3d 08 00 02 	sli r8,r8,2
  865228:	00 a5 00 08 	srui r5,r5,8
  86522c:	b4 88 40 00 	add r8,r4,r8
  865230:	29 0c 00 00 	lw r12,(r8+0)
  865234:	40 69 00 05 	lbu r9,(r3+5)
  865238:	40 68 00 06 	lbu r8,(r3+6)
  86523c:	99 85 28 00 	xor r5,r12,r5
  865240:	98 a7 38 00 	xor r7,r5,r7
  865244:	20 e7 00 ff 	andi r7,r7,0xff
  865248:	3c e7 00 02 	sli r7,r7,2
  86524c:	00 a5 00 08 	srui r5,r5,8
  865250:	b4 87 38 00 	add r7,r4,r7
  865254:	28 ec 00 00 	lw r12,(r7+0)
  865258:	40 67 00 07 	lbu r7,(r3+7)
  86525c:	34 c6 ff f8 	addi r6,r6,-8
  865260:	99 85 28 00 	xor r5,r12,r5
  865264:	98 ab 58 00 	xor r11,r5,r11
  865268:	21 6b 00 ff 	andi r11,r11,0xff
  86526c:	3d 6b 00 02 	sli r11,r11,2
  865270:	00 a5 00 08 	srui r5,r5,8
  865274:	b4 8b 58 00 	add r11,r4,r11
  865278:	29 6b 00 00 	lw r11,(r11+0)
  86527c:	34 63 00 08 	addi r3,r3,8
  865280:	99 65 28 00 	xor r5,r11,r5
  865284:	98 aa 50 00 	xor r10,r5,r10
  865288:	21 4a 00 ff 	andi r10,r10,0xff
  86528c:	3d 4a 00 02 	sli r10,r10,2
  865290:	00 a5 00 08 	srui r5,r5,8
  865294:	b4 8a 50 00 	add r10,r4,r10
  865298:	29 4a 00 00 	lw r10,(r10+0)
  86529c:	99 45 28 00 	xor r5,r10,r5
  8652a0:	98 a9 48 00 	xor r9,r5,r9
  8652a4:	21 29 00 ff 	andi r9,r9,0xff
  8652a8:	3d 29 00 02 	sli r9,r9,2
  8652ac:	00 a5 00 08 	srui r5,r5,8
  8652b0:	b4 89 48 00 	add r9,r4,r9
  8652b4:	29 29 00 00 	lw r9,(r9+0)
  8652b8:	99 25 28 00 	xor r5,r9,r5
  8652bc:	98 a8 40 00 	xor r8,r5,r8
  8652c0:	21 08 00 ff 	andi r8,r8,0xff
  8652c4:	3d 08 00 02 	sli r8,r8,2
  8652c8:	00 a5 00 08 	srui r5,r5,8
  8652cc:	b4 88 40 00 	add r8,r4,r8
  8652d0:	29 08 00 00 	lw r8,(r8+0)
  8652d4:	99 05 28 00 	xor r5,r8,r5
  8652d8:	98 a7 38 00 	xor r7,r5,r7
  8652dc:	20 e7 00 ff 	andi r7,r7,0xff
  8652e0:	3c e7 00 02 	sli r7,r7,2
  8652e4:	00 a5 00 08 	srui r5,r5,8
  8652e8:	b4 87 38 00 	add r7,r4,r7
  8652ec:	28 e7 00 00 	lw r7,(r7+0)
  8652f0:	98 e5 28 00 	xor r5,r7,r5
  8652f4:	54 cd ff be 	bgu r6,r13,8651ec <crc32+0x30>
  8652f8:	34 42 ff f8 	addi r2,r2,-8
  8652fc:	00 43 00 03 	srui r3,r2,3
  865300:	20 42 00 07 	andi r2,r2,0x7
  865304:	34 63 00 01 	addi r3,r3,1
  865308:	3c 63 00 03 	sli r3,r3,3
  86530c:	b4 23 08 00 	add r1,r1,r3
  865310:	44 40 00 0f 	be r2,r0,86534c <crc32+0x190>
  865314:	78 04 00 86 	mvhi r4,0x86
  865318:	34 03 00 00 	mvi r3,0
  86531c:	38 84 e8 7c 	ori r4,r4,0xe87c
  865320:	b4 23 30 00 	add r6,r1,r3
  865324:	40 c7 00 00 	lbu r7,(r6+0)
  865328:	00 a6 00 08 	srui r6,r5,8
  86532c:	34 63 00 01 	addi r3,r3,1
  865330:	98 a7 28 00 	xor r5,r5,r7
  865334:	20 a5 00 ff 	andi r5,r5,0xff
  865338:	3c a5 00 02 	sli r5,r5,2
  86533c:	b4 85 28 00 	add r5,r4,r5
  865340:	28 a5 00 00 	lw r5,(r5+0)
  865344:	98 a6 28 00 	xor r5,r5,r6
  865348:	5c 43 ff f6 	bne r2,r3,865320 <crc32+0x164>
  86534c:	a4 a0 08 00 	not r1,r5
  865350:	2b 8b 00 0c 	lw r11,(sp+12)
  865354:	2b 8c 00 08 	lw r12,(sp+8)
  865358:	2b 8d 00 04 	lw r13,(sp+4)
  86535c:	37 9c 00 0c 	addi sp,sp,12
  865360:	c3 a0 00 00 	ret

00865364 <console_set_write_hook>:
  865364:	78 02 40 00 	mvhi r2,0x4000
  865368:	38 42 00 04 	ori r2,r2,0x4
  86536c:	58 41 00 00 	sw (r2+0),r1
  865370:	c3 a0 00 00 	ret

00865374 <console_set_read_hook>:
  865374:	78 04 40 00 	mvhi r4,0x4000
  865378:	78 03 40 00 	mvhi r3,0x4000
  86537c:	38 84 00 0c 	ori r4,r4,0xc
  865380:	38 63 00 08 	ori r3,r3,0x8
  865384:	58 81 00 00 	sw (r4+0),r1
  865388:	58 62 00 00 	sw (r3+0),r2
  86538c:	c3 a0 00 00 	ret

00865390 <readchar>:
  865390:	37 9c ff f8 	addi sp,sp,-8
  865394:	5b 8b 00 08 	sw (sp+8),r11
  865398:	5b 9d 00 04 	sw (sp+4),ra
  86539c:	78 0b 40 00 	mvhi r11,0x4000
  8653a0:	39 6b 00 08 	ori r11,r11,0x8
  8653a4:	e0 00 00 03 	bi 8653b0 <readchar+0x20>
  8653a8:	29 62 00 00 	lw r2,(r11+0)
  8653ac:	5c 41 00 08 	bne r2,r1,8653cc <readchar+0x3c>
  8653b0:	f8 00 04 ca 	calli 8666d8 <uart_read_nonblock>
  8653b4:	44 20 ff fd 	be r1,r0,8653a8 <readchar+0x18>
  8653b8:	f8 00 04 b7 	calli 866694 <uart_read>
  8653bc:	2b 9d 00 04 	lw ra,(sp+4)
  8653c0:	2b 8b 00 08 	lw r11,(sp+8)
  8653c4:	37 9c 00 08 	addi sp,sp,8
  8653c8:	c3 a0 00 00 	ret
  8653cc:	d8 40 00 00 	call r2
  8653d0:	44 20 ff f8 	be r1,r0,8653b0 <readchar+0x20>
  8653d4:	78 01 40 00 	mvhi r1,0x4000
  8653d8:	38 21 00 0c 	ori r1,r1,0xc
  8653dc:	28 21 00 00 	lw r1,(r1+0)
  8653e0:	d8 20 00 00 	call r1
  8653e4:	e3 ff ff f6 	bi 8653bc <readchar+0x2c>

008653e8 <readchar_nonblock>:
  8653e8:	37 9c ff fc 	addi sp,sp,-4
  8653ec:	5b 9d 00 04 	sw (sp+4),ra
  8653f0:	f8 00 04 ba 	calli 8666d8 <uart_read_nonblock>
  8653f4:	34 02 00 01 	mvi r2,1
  8653f8:	5c 20 00 08 	bne r1,r0,865418 <readchar_nonblock+0x30>
  8653fc:	78 01 40 00 	mvhi r1,0x4000
  865400:	38 21 00 08 	ori r1,r1,0x8
  865404:	28 21 00 00 	lw r1,(r1+0)
  865408:	34 02 00 00 	mvi r2,0
  86540c:	44 22 00 03 	be r1,r2,865418 <readchar_nonblock+0x30>
  865410:	d8 20 00 00 	call r1
  865414:	7c 22 00 00 	cmpnei r2,r1,0
  865418:	b8 40 08 00 	mv r1,r2
  86541c:	2b 9d 00 04 	lw ra,(sp+4)
  865420:	37 9c 00 04 	addi sp,sp,4
  865424:	c3 a0 00 00 	ret

00865428 <puts>:
  865428:	37 9c ff ec 	addi sp,sp,-20
  86542c:	5b 8b 00 14 	sw (sp+20),r11
  865430:	5b 8c 00 10 	sw (sp+16),r12
  865434:	5b 8d 00 0c 	sw (sp+12),r13
  865438:	5b 8e 00 08 	sw (sp+8),r14
  86543c:	5b 9d 00 04 	sw (sp+4),ra
  865440:	b8 20 60 00 	mv r12,r1
  865444:	90 20 70 00 	rcsr r14,IM
  865448:	34 01 00 01 	mvi r1,1
  86544c:	d0 21 00 00 	wcsr IM,r1
  865450:	11 8b 00 00 	lb r11,(r12+0)
  865454:	78 0d 40 00 	mvhi r13,0x4000
  865458:	39 ad 00 04 	ori r13,r13,0x4
  86545c:	45 60 00 0a 	be r11,r0,865484 <puts+0x5c>
  865460:	b9 60 08 00 	mv r1,r11
  865464:	f8 00 04 c0 	calli 866764 <uart_write>
  865468:	29 a2 00 00 	lw r2,(r13+0)
  86546c:	35 8c 00 01 	addi r12,r12,1
  865470:	b9 60 08 00 	mv r1,r11
  865474:	44 40 00 02 	be r2,r0,86547c <puts+0x54>
  865478:	d8 40 00 00 	call r2
  86547c:	11 8b 00 00 	lb r11,(r12+0)
  865480:	5d 60 ff f8 	bne r11,r0,865460 <puts+0x38>
  865484:	34 01 00 0a 	mvi r1,10
  865488:	f8 00 04 b7 	calli 866764 <uart_write>
  86548c:	29 a2 00 00 	lw r2,(r13+0)
  865490:	44 40 00 03 	be r2,r0,86549c <puts+0x74>
  865494:	34 01 00 0a 	mvi r1,10
  865498:	d8 40 00 00 	call r2
  86549c:	d0 2e 00 00 	wcsr IM,r14
  8654a0:	34 01 00 01 	mvi r1,1
  8654a4:	2b 9d 00 04 	lw ra,(sp+4)
  8654a8:	2b 8b 00 14 	lw r11,(sp+20)
  8654ac:	2b 8c 00 10 	lw r12,(sp+16)
  8654b0:	2b 8d 00 0c 	lw r13,(sp+12)
  8654b4:	2b 8e 00 08 	lw r14,(sp+8)
  8654b8:	37 9c 00 14 	addi sp,sp,20
  8654bc:	c3 a0 00 00 	ret

008654c0 <putsnonl>:
  8654c0:	37 9c ff ec 	addi sp,sp,-20
  8654c4:	5b 8b 00 14 	sw (sp+20),r11
  8654c8:	5b 8c 00 10 	sw (sp+16),r12
  8654cc:	5b 8d 00 0c 	sw (sp+12),r13
  8654d0:	5b 8e 00 08 	sw (sp+8),r14
  8654d4:	5b 9d 00 04 	sw (sp+4),ra
  8654d8:	b8 20 60 00 	mv r12,r1
  8654dc:	90 20 70 00 	rcsr r14,IM
  8654e0:	34 01 00 01 	mvi r1,1
  8654e4:	d0 21 00 00 	wcsr IM,r1
  8654e8:	11 8b 00 00 	lb r11,(r12+0)
  8654ec:	45 60 00 0c 	be r11,r0,86551c <putsnonl+0x5c>
  8654f0:	78 0d 40 00 	mvhi r13,0x4000
  8654f4:	39 ad 00 04 	ori r13,r13,0x4
  8654f8:	b9 60 08 00 	mv r1,r11
  8654fc:	f8 00 04 9a 	calli 866764 <uart_write>
  865500:	29 a2 00 00 	lw r2,(r13+0)
  865504:	35 8c 00 01 	addi r12,r12,1
  865508:	b9 60 08 00 	mv r1,r11
  86550c:	44 40 00 02 	be r2,r0,865514 <putsnonl+0x54>
  865510:	d8 40 00 00 	call r2
  865514:	11 8b 00 00 	lb r11,(r12+0)
  865518:	5d 60 ff f8 	bne r11,r0,8654f8 <putsnonl+0x38>
  86551c:	d0 2e 00 00 	wcsr IM,r14
  865520:	2b 9d 00 04 	lw ra,(sp+4)
  865524:	2b 8b 00 14 	lw r11,(sp+20)
  865528:	2b 8c 00 10 	lw r12,(sp+16)
  86552c:	2b 8d 00 0c 	lw r13,(sp+12)
  865530:	2b 8e 00 08 	lw r14,(sp+8)
  865534:	37 9c 00 14 	addi sp,sp,20
  865538:	c3 a0 00 00 	ret

0086553c <printf>:
  86553c:	37 9c fe c8 	addi sp,sp,-312
  865540:	5b 8b 00 18 	sw (sp+24),r11
  865544:	5b 8c 00 14 	sw (sp+20),r12
  865548:	5b 8d 00 10 	sw (sp+16),r13
  86554c:	5b 8e 00 0c 	sw (sp+12),r14
  865550:	5b 8f 00 08 	sw (sp+8),r15
  865554:	5b 9d 00 04 	sw (sp+4),ra
  865558:	b8 20 48 00 	mv r9,r1
  86555c:	37 8c 00 1c 	addi r12,sp,28
  865560:	5b 81 01 1c 	sw (sp+284),r1
  865564:	5b 82 01 20 	sw (sp+288),r2
  865568:	5b 83 01 24 	sw (sp+292),r3
  86556c:	5b 84 01 28 	sw (sp+296),r4
  865570:	b9 80 08 00 	mv r1,r12
  865574:	34 02 01 00 	mvi r2,256
  865578:	b9 20 18 00 	mv r3,r9
  86557c:	37 84 01 20 	addi r4,sp,288
  865580:	5b 85 01 2c 	sw (sp+300),r5
  865584:	5b 86 01 30 	sw (sp+304),r6
  865588:	5b 87 01 34 	sw (sp+308),r7
  86558c:	5b 88 01 38 	sw (sp+312),r8
  865590:	fb ff fe a4 	calli 865020 <vscnprintf>
  865594:	b8 20 70 00 	mv r14,r1
  865598:	b5 81 08 00 	add r1,r12,r1
  86559c:	30 20 00 00 	sb (r1+0),r0
  8655a0:	90 20 78 00 	rcsr r15,IM
  8655a4:	34 01 00 01 	mvi r1,1
  8655a8:	d0 21 00 00 	wcsr IM,r1
  8655ac:	13 8b 00 1c 	lb r11,(sp+28)
  8655b0:	45 60 00 0c 	be r11,r0,8655e0 <printf+0xa4>
  8655b4:	78 0d 40 00 	mvhi r13,0x4000
  8655b8:	39 ad 00 04 	ori r13,r13,0x4
  8655bc:	b9 60 08 00 	mv r1,r11
  8655c0:	f8 00 04 69 	calli 866764 <uart_write>
  8655c4:	29 a2 00 00 	lw r2,(r13+0)
  8655c8:	35 8c 00 01 	addi r12,r12,1
  8655cc:	b9 60 08 00 	mv r1,r11
  8655d0:	44 40 00 02 	be r2,r0,8655d8 <printf+0x9c>
  8655d4:	d8 40 00 00 	call r2
  8655d8:	11 8b 00 00 	lb r11,(r12+0)
  8655dc:	5d 60 ff f8 	bne r11,r0,8655bc <printf+0x80>
  8655e0:	d0 2f 00 00 	wcsr IM,r15
  8655e4:	b9 c0 08 00 	mv r1,r14
  8655e8:	2b 9d 00 04 	lw ra,(sp+4)
  8655ec:	2b 8b 00 18 	lw r11,(sp+24)
  8655f0:	2b 8c 00 14 	lw r12,(sp+20)
  8655f4:	2b 8d 00 10 	lw r13,(sp+16)
  8655f8:	2b 8e 00 0c 	lw r14,(sp+12)
  8655fc:	2b 8f 00 08 	lw r15,(sp+8)
  865600:	37 9c 01 38 	addi sp,sp,312
  865604:	c3 a0 00 00 	ret

00865608 <fatfs_init>:
  865608:	37 9c fb e8 	addi sp,sp,-1048
  86560c:	5b 8b 00 18 	sw (sp+24),r11
  865610:	5b 8c 00 14 	sw (sp+20),r12
  865614:	5b 8d 00 10 	sw (sp+16),r13
  865618:	5b 8e 00 0c 	sw (sp+12),r14
  86561c:	5b 8f 00 08 	sw (sp+8),r15
  865620:	5b 9d 00 04 	sw (sp+4),ra
  865624:	b8 20 58 00 	mv r11,r1
  865628:	f8 00 06 0f 	calli 866e64 <bd_init>
  86562c:	44 20 00 4d 	be r1,r0,865760 <fatfs_init+0x158>
  865630:	b9 60 08 00 	mv r1,r11
  865634:	f8 00 0f a5 	calli 8694c8 <bd_has_part_table>
  865638:	5c 20 00 56 	bne r1,r0,865790 <fatfs_init+0x188>
  86563c:	78 0b 40 00 	mvhi r11,0x4000
  865640:	39 6b 04 30 	ori r11,r11,0x430
  865644:	59 60 00 00 	sw (r11+0),r0
  865648:	34 01 00 00 	mvi r1,0
  86564c:	37 82 00 1c 	addi r2,sp,28
  865650:	f8 00 0e 11 	calli 868e94 <bd_readblock>
  865654:	44 20 00 8f 	be r1,r0,865890 <fatfs_init+0x288>
  865658:	43 81 00 27 	lbu r1,(sp+39)
  86565c:	43 82 00 28 	lbu r2,(sp+40)
  865660:	3c 21 00 08 	sli r1,r1,8
  865664:	b8 41 08 00 	or r1,r2,r1
  865668:	3c 22 00 08 	sli r2,r1,8
  86566c:	00 21 00 08 	srui r1,r1,8
  865670:	b8 41 10 00 	or r2,r2,r1
  865674:	dc 40 10 00 	sexth r2,r2
  865678:	34 01 02 00 	mvi r1,512
  86567c:	5c 41 00 78 	bne r2,r1,86585c <fatfs_init+0x254>
  865680:	2b 83 00 2c 	lw r3,(sp+44)
  865684:	2f 84 00 32 	lhu r4,(sp+50)
  865688:	43 85 00 2c 	lbu r5,(sp+44)
  86568c:	00 63 00 08 	srui r3,r3,8
  865690:	3c 81 00 08 	sli r1,r4,8
  865694:	00 84 00 08 	srui r4,r4,8
  865698:	20 63 ff ff 	andi r3,r3,0xffff
  86569c:	b8 24 08 00 	or r1,r1,r4
  8656a0:	3c 62 00 08 	sli r2,r3,8
  8656a4:	00 63 00 08 	srui r3,r3,8
  8656a8:	20 21 ff ff 	andi r1,r1,0xffff
  8656ac:	29 6c 00 00 	lw r12,(r11+0)
  8656b0:	b8 43 10 00 	or r2,r2,r3
  8656b4:	88 25 58 00 	mul r11,r1,r5
  8656b8:	20 42 ff ff 	andi r2,r2,0xffff
  8656bc:	35 8c 00 01 	addi r12,r12,1
  8656c0:	43 8f 00 29 	lbu r15,(sp+41)
  8656c4:	00 4d 00 04 	srui r13,r2,4
  8656c8:	b5 6c 58 00 	add r11,r11,r12
  8656cc:	3c 2e 00 08 	sli r14,r1,8
  8656d0:	78 09 40 00 	mvhi r9,0x4000
  8656d4:	78 08 40 00 	mvhi r8,0x4000
  8656d8:	78 07 40 00 	mvhi r7,0x4000
  8656dc:	78 06 40 00 	mvhi r6,0x4000
  8656e0:	78 05 40 00 	mvhi r5,0x4000
  8656e4:	78 04 40 00 	mvhi r4,0x4000
  8656e8:	78 03 40 00 	mvhi r3,0x4000
  8656ec:	78 01 40 00 	mvhi r1,0x4000
  8656f0:	34 0a ff ff 	mvi r10,-1
  8656f4:	38 21 02 20 	ori r1,r1,0x220
  8656f8:	39 29 00 10 	ori r9,r9,0x10
  8656fc:	39 08 02 24 	ori r8,r8,0x224
  865700:	38 e7 02 28 	ori r7,r7,0x228
  865704:	38 c6 02 2c 	ori r6,r6,0x22c
  865708:	38 a5 00 14 	ori r5,r5,0x14
  86570c:	38 84 00 18 	ori r4,r4,0x18
  865710:	38 63 00 1c 	ori r3,r3,0x1c
  865714:	b5 6d 68 00 	add r13,r11,r13
  865718:	58 2d 00 00 	sw (r1+0),r13
  86571c:	59 2f 00 00 	sw (r9+0),r15
  865720:	59 0e 00 00 	sw (r8+0),r14
  865724:	58 ec 00 00 	sw (r7+0),r12
  865728:	58 ca 00 00 	sw (r6+0),r10
  86572c:	58 a2 00 00 	sw (r5+0),r2
  865730:	58 8b 00 00 	sw (r4+0),r11
  865734:	58 6a 00 00 	sw (r3+0),r10
  865738:	34 01 00 01 	mvi r1,1
  86573c:	44 40 00 36 	be r2,r0,865814 <fatfs_init+0x20c>
  865740:	2b 9d 00 04 	lw ra,(sp+4)
  865744:	2b 8b 00 18 	lw r11,(sp+24)
  865748:	2b 8c 00 14 	lw r12,(sp+20)
  86574c:	2b 8d 00 10 	lw r13,(sp+16)
  865750:	2b 8e 00 0c 	lw r14,(sp+12)
  865754:	2b 8f 00 08 	lw r15,(sp+8)
  865758:	37 9c 04 18 	addi sp,sp,1048
  86575c:	c3 a0 00 00 	ret
  865760:	78 01 00 86 	mvhi r1,0x86
  865764:	38 21 ec 7c 	ori r1,r1,0xec7c
  865768:	fb ff ff 75 	calli 86553c <printf>
  86576c:	34 01 00 00 	mvi r1,0
  865770:	2b 9d 00 04 	lw ra,(sp+4)
  865774:	2b 8b 00 18 	lw r11,(sp+24)
  865778:	2b 8c 00 14 	lw r12,(sp+20)
  86577c:	2b 8d 00 10 	lw r13,(sp+16)
  865780:	2b 8e 00 0c 	lw r14,(sp+12)
  865784:	2b 8f 00 08 	lw r15,(sp+8)
  865788:	37 9c 04 18 	addi sp,sp,1048
  86578c:	c3 a0 00 00 	ret
  865790:	34 01 00 00 	mvi r1,0
  865794:	37 82 02 1c 	addi r2,sp,540
  865798:	f8 00 0d bf 	calli 868e94 <bd_readblock>
  86579c:	44 20 00 49 	be r1,r0,8658c0 <fatfs_init+0x2b8>
  8657a0:	43 81 03 de 	lbu r1,(sp+990)
  8657a4:	78 0b 40 00 	mvhi r11,0x4000
  8657a8:	39 6b 04 30 	ori r11,r11,0x430
  8657ac:	64 22 00 0b 	cmpei r2,r1,11
  8657b0:	64 21 00 06 	cmpei r1,r1,6
  8657b4:	34 03 ff ff 	mvi r3,-1
  8657b8:	59 63 00 00 	sw (r11+0),r3
  8657bc:	b8 41 08 00 	or r1,r2,r1
  8657c0:	5c 20 00 45 	bne r1,r0,8658d4 <fatfs_init+0x2cc>
  8657c4:	43 82 03 ee 	lbu r2,(sp+1006)
  8657c8:	64 43 00 0b 	cmpei r3,r2,11
  8657cc:	64 42 00 06 	cmpei r2,r2,6
  8657d0:	b8 62 10 00 	or r2,r3,r2
  8657d4:	5c 41 00 57 	bne r2,r1,865930 <fatfs_init+0x328>
  8657d8:	43 81 03 fe 	lbu r1,(sp+1022)
  8657dc:	64 23 00 0b 	cmpei r3,r1,11
  8657e0:	64 21 00 06 	cmpei r1,r1,6
  8657e4:	b8 61 08 00 	or r1,r3,r1
  8657e8:	5c 22 00 54 	bne r1,r2,865938 <fatfs_init+0x330>
  8657ec:	43 82 04 0e 	lbu r2,(sp+1038)
  8657f0:	64 43 00 0b 	cmpei r3,r2,11
  8657f4:	64 42 00 06 	cmpei r2,r2,6
  8657f8:	b8 62 10 00 	or r2,r3,r2
  8657fc:	5c 41 00 51 	bne r2,r1,865940 <fatfs_init+0x338>
  865800:	78 01 00 86 	mvhi r1,0x86
  865804:	38 21 ec c4 	ori r1,r1,0xecc4
  865808:	fb ff ff 4d 	calli 86553c <printf>
  86580c:	34 01 00 00 	mvi r1,0
  865810:	e3 ff ff cc 	bi 865740 <fatfs_init+0x138>
  865814:	78 01 00 86 	mvhi r1,0x86
  865818:	38 21 ed 38 	ori r1,r1,0xed38
  86581c:	fb ff ff 48 	calli 86553c <printf>
  865820:	78 01 00 86 	mvhi r1,0x86
  865824:	38 21 ed 74 	ori r1,r1,0xed74
  865828:	fb ff ff 45 	calli 86553c <printf>
  86582c:	78 01 00 86 	mvhi r1,0x86
  865830:	38 21 ed b8 	ori r1,r1,0xedb8
  865834:	fb ff ff 42 	calli 86553c <printf>
  865838:	34 01 00 00 	mvi r1,0
  86583c:	2b 9d 00 04 	lw ra,(sp+4)
  865840:	2b 8b 00 18 	lw r11,(sp+24)
  865844:	2b 8c 00 14 	lw r12,(sp+20)
  865848:	2b 8d 00 10 	lw r13,(sp+16)
  86584c:	2b 8e 00 0c 	lw r14,(sp+12)
  865850:	2b 8f 00 08 	lw r15,(sp+8)
  865854:	37 9c 04 18 	addi sp,sp,1048
  865858:	c3 a0 00 00 	ret
  86585c:	78 01 00 86 	mvhi r1,0x86
  865860:	20 42 ff ff 	andi r2,r2,0xffff
  865864:	38 21 ed 08 	ori r1,r1,0xed08
  865868:	fb ff ff 35 	calli 86553c <printf>
  86586c:	34 01 00 00 	mvi r1,0
  865870:	2b 9d 00 04 	lw ra,(sp+4)
  865874:	2b 8b 00 18 	lw r11,(sp+24)
  865878:	2b 8c 00 14 	lw r12,(sp+20)
  86587c:	2b 8d 00 10 	lw r13,(sp+16)
  865880:	2b 8e 00 0c 	lw r14,(sp+12)
  865884:	2b 8f 00 08 	lw r15,(sp+8)
  865888:	37 9c 04 18 	addi sp,sp,1048
  86588c:	c3 a0 00 00 	ret
  865890:	78 01 00 86 	mvhi r1,0x86
  865894:	38 21 ec e4 	ori r1,r1,0xece4
  865898:	fb ff ff 29 	calli 86553c <printf>
  86589c:	34 01 00 00 	mvi r1,0
  8658a0:	2b 9d 00 04 	lw ra,(sp+4)
  8658a4:	2b 8b 00 18 	lw r11,(sp+24)
  8658a8:	2b 8c 00 14 	lw r12,(sp+20)
  8658ac:	2b 8d 00 10 	lw r13,(sp+16)
  8658b0:	2b 8e 00 0c 	lw r14,(sp+12)
  8658b4:	2b 8f 00 08 	lw r15,(sp+8)
  8658b8:	37 9c 04 18 	addi sp,sp,1048
  8658bc:	c3 a0 00 00 	ret
  8658c0:	78 01 00 86 	mvhi r1,0x86
  8658c4:	38 21 ec a8 	ori r1,r1,0xeca8
  8658c8:	fb ff ff 1d 	calli 86553c <printf>
  8658cc:	34 01 00 00 	mvi r1,0
  8658d0:	e3 ff ff 9c 	bi 865740 <fatfs_init+0x138>
  8658d4:	34 01 00 00 	mvi r1,0
  8658d8:	34 22 00 1c 	addi r2,r1,28
  8658dc:	3c 42 00 04 	sli r2,r2,4
  8658e0:	37 81 04 18 	addi r1,sp,1048
  8658e4:	b4 22 10 00 	add r2,r1,r2
  8658e8:	34 42 fe 04 	addi r2,r2,-508
  8658ec:	2c 41 00 06 	lhu r1,(r2+6)
  8658f0:	2c 42 00 08 	lhu r2,(r2+8)
  8658f4:	3c 21 00 10 	sli r1,r1,16
  8658f8:	b8 41 08 00 	or r1,r2,r1
  8658fc:	00 22 00 18 	srui r2,r1,24
  865900:	3c 24 00 18 	sli r4,r1,24
  865904:	20 23 ff 00 	andi r3,r1,0xff00
  865908:	3c 63 00 08 	sli r3,r3,8
  86590c:	00 21 00 08 	srui r1,r1,8
  865910:	b8 44 10 00 	or r2,r2,r4
  865914:	b8 43 10 00 	or r2,r2,r3
  865918:	20 21 ff 00 	andi r1,r1,0xff00
  86591c:	b8 41 08 00 	or r1,r2,r1
  865920:	59 61 00 00 	sw (r11+0),r1
  865924:	34 02 ff ff 	mvi r2,-1
  865928:	5c 22 ff 49 	bne r1,r2,86564c <fatfs_init+0x44>
  86592c:	e3 ff ff b5 	bi 865800 <fatfs_init+0x1f8>
  865930:	34 01 00 01 	mvi r1,1
  865934:	e3 ff ff e9 	bi 8658d8 <fatfs_init+0x2d0>
  865938:	34 01 00 02 	mvi r1,2
  86593c:	e3 ff ff e7 	bi 8658d8 <fatfs_init+0x2d0>
  865940:	34 01 00 03 	mvi r1,3
  865944:	e3 ff ff e5 	bi 8658d8 <fatfs_init+0x2d0>

00865948 <fatfs_list_files>:
  865948:	37 9c ff 24 	addi sp,sp,-220
  86594c:	5b 8b 00 44 	sw (sp+68),r11
  865950:	5b 8c 00 40 	sw (sp+64),r12
  865954:	5b 8d 00 3c 	sw (sp+60),r13
  865958:	5b 8e 00 38 	sw (sp+56),r14
  86595c:	5b 8f 00 34 	sw (sp+52),r15
  865960:	5b 90 00 30 	sw (sp+48),r16
  865964:	5b 91 00 2c 	sw (sp+44),r17
  865968:	5b 92 00 28 	sw (sp+40),r18
  86596c:	5b 93 00 24 	sw (sp+36),r19
  865970:	5b 94 00 20 	sw (sp+32),r20
  865974:	5b 95 00 1c 	sw (sp+28),r21
  865978:	5b 96 00 18 	sw (sp+24),r22
  86597c:	5b 97 00 14 	sw (sp+20),r23
  865980:	5b 98 00 10 	sw (sp+16),r24
  865984:	5b 99 00 0c 	sw (sp+12),r25
  865988:	5b 9b 00 08 	sw (sp+8),fp
  86598c:	5b 9d 00 04 	sw (sp+4),ra
  865990:	78 0e 40 00 	mvhi r14,0x4000
  865994:	39 ce 00 14 	ori r14,r14,0x14
  865998:	29 c3 00 00 	lw r3,(r14+0)
  86599c:	33 80 00 ce 	sb (sp+206),r0
  8659a0:	b8 20 a8 00 	mv r21,r1
  8659a4:	b8 40 b0 00 	mv r22,r2
  8659a8:	34 01 00 01 	mvi r1,1
  8659ac:	4c 03 00 60 	bge r0,r3,865b2c <fatfs_list_files+0x1e4>
  8659b0:	78 01 00 86 	mvhi r1,0x86
  8659b4:	78 14 40 00 	mvhi r20,0x4000
  8659b8:	78 13 40 00 	mvhi r19,0x4000
  8659bc:	78 19 40 00 	mvhi r25,0x4000
  8659c0:	38 21 ed f0 	ori r1,r1,0xedf0
  8659c4:	34 0c 00 00 	mvi r12,0
  8659c8:	34 10 00 00 	mvi r16,0
  8659cc:	3a 94 00 18 	ori r20,r20,0x18
  8659d0:	3a 73 00 1c 	ori r19,r19,0x1c
  8659d4:	3b 39 00 20 	ori r25,r25,0x20
  8659d8:	5b 81 00 48 	sw (sp+72),r1
  8659dc:	34 11 00 0f 	mvi r17,15
  8659e0:	34 17 00 e5 	mvi r23,229
  8659e4:	34 0b 00 20 	mvi r11,32
  8659e8:	37 8d 00 d0 	addi r13,sp,208
  8659ec:	34 18 00 2e 	mvi r24,46
  8659f0:	34 1b 00 82 	mvi fp,130
  8659f4:	34 0f 00 ff 	mvi r15,255
  8659f8:	3d 82 00 05 	sli r2,r12,5
  8659fc:	2a 92 00 00 	lw r18,(r20+0)
  865a00:	00 42 00 09 	srui r2,r2,9
  865a04:	2a 63 00 00 	lw r3,(r19+0)
  865a08:	b4 52 90 00 	add r18,r2,r18
  865a0c:	46 43 00 06 	be r18,r3,865a24 <fatfs_list_files+0xdc>
  865a10:	ba 40 08 00 	mv r1,r18
  865a14:	bb 20 10 00 	mv r2,r25
  865a18:	f8 00 0d 1f 	calli 868e94 <bd_readblock>
  865a1c:	44 20 01 3a 	be r1,r0,865f04 <fatfs_list_files+0x5bc>
  865a20:	5a 72 00 00 	sw (r19+0),r18
  865a24:	21 84 00 0f 	andi r4,r12,0xf
  865a28:	3c 84 00 05 	sli r4,r4,5
  865a2c:	b4 99 20 00 	add r4,r4,r25
  865a30:	40 85 00 0b 	lbu r5,(r4+11)
  865a34:	44 b1 00 51 	be r5,r17,865b78 <fatfs_list_files+0x230>
  865a38:	20 a6 00 18 	andi r6,r5,0x18
  865a3c:	40 85 00 00 	lbu r5,(r4+0)
  865a40:	5c c0 00 36 	bne r6,r0,865b18 <fatfs_list_files+0x1d0>
  865a44:	44 b7 00 35 	be r5,r23,865b18 <fatfs_list_files+0x1d0>
  865a48:	44 a0 00 38 	be r5,r0,865b28 <fatfs_list_files+0x1e0>
  865a4c:	44 ab 00 f8 	be r5,r11,865e2c <fatfs_list_files+0x4e4>
  865a50:	33 85 00 d0 	sb (sp+208),r5
  865a54:	40 85 00 01 	lbu r5,(r4+1)
  865a58:	44 ab 00 fd 	be r5,r11,865e4c <fatfs_list_files+0x504>
  865a5c:	33 85 00 d1 	sb (sp+209),r5
  865a60:	40 85 00 02 	lbu r5,(r4+2)
  865a64:	44 ab 01 02 	be r5,r11,865e6c <fatfs_list_files+0x524>
  865a68:	33 85 00 d2 	sb (sp+210),r5
  865a6c:	40 85 00 03 	lbu r5,(r4+3)
  865a70:	44 ab 01 05 	be r5,r11,865e84 <fatfs_list_files+0x53c>
  865a74:	33 85 00 d3 	sb (sp+211),r5
  865a78:	40 85 00 04 	lbu r5,(r4+4)
  865a7c:	44 ab 01 08 	be r5,r11,865e9c <fatfs_list_files+0x554>
  865a80:	33 85 00 d4 	sb (sp+212),r5
  865a84:	40 85 00 05 	lbu r5,(r4+5)
  865a88:	44 ab 01 0b 	be r5,r11,865eb4 <fatfs_list_files+0x56c>
  865a8c:	33 85 00 d5 	sb (sp+213),r5
  865a90:	40 85 00 06 	lbu r5,(r4+6)
  865a94:	44 ab 01 0e 	be r5,r11,865ecc <fatfs_list_files+0x584>
  865a98:	33 85 00 d6 	sb (sp+214),r5
  865a9c:	40 85 00 07 	lbu r5,(r4+7)
  865aa0:	44 ab 01 11 	be r5,r11,865ee4 <fatfs_list_files+0x59c>
  865aa4:	33 85 00 d7 	sb (sp+215),r5
  865aa8:	34 09 00 0b 	mvi r9,11
  865aac:	34 05 00 0c 	mvi r5,12
  865ab0:	34 08 00 0a 	mvi r8,10
  865ab4:	34 07 00 09 	mvi r7,9
  865ab8:	34 06 00 08 	mvi r6,8
  865abc:	b5 a6 30 00 	add r6,r13,r6
  865ac0:	30 d8 00 00 	sb (r6+0),r24
  865ac4:	40 86 00 08 	lbu r6,(r4+8)
  865ac8:	44 cb 00 d7 	be r6,r11,865e24 <fatfs_list_files+0x4dc>
  865acc:	b5 a7 38 00 	add r7,r13,r7
  865ad0:	30 e6 00 00 	sb (r7+0),r6
  865ad4:	40 86 00 09 	lbu r6,(r4+9)
  865ad8:	44 cb 00 db 	be r6,r11,865e44 <fatfs_list_files+0x4fc>
  865adc:	b5 a8 40 00 	add r8,r13,r8
  865ae0:	31 06 00 00 	sb (r8+0),r6
  865ae4:	40 84 00 0a 	lbu r4,(r4+10)
  865ae8:	44 8b 00 df 	be r4,r11,865e64 <fatfs_list_files+0x51c>
  865aec:	b5 a9 48 00 	add r9,r13,r9
  865af0:	31 24 00 00 	sb (r9+0),r4
  865af4:	b5 a5 28 00 	add r5,r13,r5
  865af8:	30 a0 00 00 	sb (r5+0),r0
  865afc:	b9 a0 10 00 	mv r2,r13
  865b00:	46 00 00 02 	be r16,r0,865b08 <fatfs_list_files+0x1c0>
  865b04:	37 82 00 4c 	addi r2,sp,76
  865b08:	b9 a0 08 00 	mv r1,r13
  865b0c:	ba c0 18 00 	mv r3,r22
  865b10:	da a0 00 00 	call r21
  865b14:	44 20 00 fa 	be r1,r0,865efc <fatfs_list_files+0x5b4>
  865b18:	34 10 00 00 	mvi r16,0
  865b1c:	29 c4 00 00 	lw r4,(r14+0)
  865b20:	35 8c 00 01 	addi r12,r12,1
  865b24:	48 8c ff b5 	bg r4,r12,8659f8 <fatfs_list_files+0xb0>
  865b28:	34 01 00 01 	mvi r1,1
  865b2c:	2b 9d 00 04 	lw ra,(sp+4)
  865b30:	2b 8b 00 44 	lw r11,(sp+68)
  865b34:	2b 8c 00 40 	lw r12,(sp+64)
  865b38:	2b 8d 00 3c 	lw r13,(sp+60)
  865b3c:	2b 8e 00 38 	lw r14,(sp+56)
  865b40:	2b 8f 00 34 	lw r15,(sp+52)
  865b44:	2b 90 00 30 	lw r16,(sp+48)
  865b48:	2b 91 00 2c 	lw r17,(sp+44)
  865b4c:	2b 92 00 28 	lw r18,(sp+40)
  865b50:	2b 93 00 24 	lw r19,(sp+36)
  865b54:	2b 94 00 20 	lw r20,(sp+32)
  865b58:	2b 95 00 1c 	lw r21,(sp+28)
  865b5c:	2b 96 00 18 	lw r22,(sp+24)
  865b60:	2b 97 00 14 	lw r23,(sp+20)
  865b64:	2b 98 00 10 	lw r24,(sp+16)
  865b68:	2b 99 00 0c 	lw r25,(sp+12)
  865b6c:	2b 9b 00 08 	lw fp,(sp+8)
  865b70:	37 9c 00 dc 	addi sp,sp,220
  865b74:	c3 a0 00 00 	ret
  865b78:	40 87 00 00 	lbu r7,(r4+0)
  865b7c:	20 e6 00 3f 	andi r6,r7,0x3f
  865b80:	08 c5 00 0d 	muli r5,r6,13
  865b84:	54 bb ff e6 	bgu r5,fp,865b1c <fatfs_list_files+0x1d4>
  865b88:	40 83 00 01 	lbu r3,(r4+1)
  865b8c:	40 89 00 02 	lbu r9,(r4+2)
  865b90:	34 c2 ff ff 	addi r2,r6,-1
  865b94:	3c 63 00 08 	sli r3,r3,8
  865b98:	08 42 00 0d 	muli r2,r2,13
  865b9c:	b9 23 48 00 	or r9,r9,r3
  865ba0:	3d 28 00 08 	sli r8,r9,8
  865ba4:	01 29 00 08 	srui r9,r9,8
  865ba8:	37 85 00 4c 	addi r5,sp,76
  865bac:	b9 09 40 00 	or r8,r8,r9
  865bb0:	21 08 ff ff 	andi r8,r8,0xffff
  865bb4:	b4 a2 28 00 	add r5,r5,r2
  865bb8:	55 0f 00 04 	bgu r8,r15,865bc8 <fatfs_list_files+0x280>
  865bbc:	30 a8 00 00 	sb (r5+0),r8
  865bc0:	45 00 00 95 	be r8,r0,865e14 <fatfs_list_files+0x4cc>
  865bc4:	34 a5 00 01 	addi r5,r5,1
  865bc8:	40 82 00 03 	lbu r2,(r4+3)
  865bcc:	40 89 00 04 	lbu r9,(r4+4)
  865bd0:	3c 42 00 08 	sli r2,r2,8
  865bd4:	b9 22 48 00 	or r9,r9,r2
  865bd8:	3d 28 00 08 	sli r8,r9,8
  865bdc:	01 29 00 08 	srui r9,r9,8
  865be0:	b9 09 40 00 	or r8,r8,r9
  865be4:	21 08 ff ff 	andi r8,r8,0xffff
  865be8:	55 0f 00 04 	bgu r8,r15,865bf8 <fatfs_list_files+0x2b0>
  865bec:	30 a8 00 00 	sb (r5+0),r8
  865bf0:	45 00 00 89 	be r8,r0,865e14 <fatfs_list_files+0x4cc>
  865bf4:	34 a5 00 01 	addi r5,r5,1
  865bf8:	40 82 00 05 	lbu r2,(r4+5)
  865bfc:	40 89 00 06 	lbu r9,(r4+6)
  865c00:	3c 42 00 08 	sli r2,r2,8
  865c04:	b9 22 48 00 	or r9,r9,r2
  865c08:	3d 28 00 08 	sli r8,r9,8
  865c0c:	01 29 00 08 	srui r9,r9,8
  865c10:	b9 09 40 00 	or r8,r8,r9
  865c14:	21 08 ff ff 	andi r8,r8,0xffff
  865c18:	55 0f 00 04 	bgu r8,r15,865c28 <fatfs_list_files+0x2e0>
  865c1c:	30 a8 00 00 	sb (r5+0),r8
  865c20:	45 00 00 7d 	be r8,r0,865e14 <fatfs_list_files+0x4cc>
  865c24:	34 a5 00 01 	addi r5,r5,1
  865c28:	40 82 00 07 	lbu r2,(r4+7)
  865c2c:	40 89 00 08 	lbu r9,(r4+8)
  865c30:	3c 42 00 08 	sli r2,r2,8
  865c34:	b9 22 48 00 	or r9,r9,r2
  865c38:	3d 28 00 08 	sli r8,r9,8
  865c3c:	01 29 00 08 	srui r9,r9,8
  865c40:	b9 09 40 00 	or r8,r8,r9
  865c44:	21 08 ff ff 	andi r8,r8,0xffff
  865c48:	55 0f 00 04 	bgu r8,r15,865c58 <fatfs_list_files+0x310>
  865c4c:	30 a8 00 00 	sb (r5+0),r8
  865c50:	45 00 00 71 	be r8,r0,865e14 <fatfs_list_files+0x4cc>
  865c54:	34 a5 00 01 	addi r5,r5,1
  865c58:	40 82 00 09 	lbu r2,(r4+9)
  865c5c:	40 83 00 0a 	lbu r3,(r4+10)
  865c60:	3c 42 00 08 	sli r2,r2,8
  865c64:	b8 62 18 00 	or r3,r3,r2
  865c68:	3c 68 00 08 	sli r8,r3,8
  865c6c:	00 63 00 08 	srui r3,r3,8
  865c70:	b9 03 40 00 	or r8,r8,r3
  865c74:	21 08 ff ff 	andi r8,r8,0xffff
  865c78:	55 0f 00 04 	bgu r8,r15,865c88 <fatfs_list_files+0x340>
  865c7c:	30 a8 00 00 	sb (r5+0),r8
  865c80:	45 00 00 65 	be r8,r0,865e14 <fatfs_list_files+0x4cc>
  865c84:	34 a5 00 01 	addi r5,r5,1
  865c88:	40 82 00 0e 	lbu r2,(r4+14)
  865c8c:	40 83 00 0f 	lbu r3,(r4+15)
  865c90:	3c 42 00 08 	sli r2,r2,8
  865c94:	b8 62 18 00 	or r3,r3,r2
  865c98:	3c 68 00 08 	sli r8,r3,8
  865c9c:	00 63 00 08 	srui r3,r3,8
  865ca0:	b9 03 40 00 	or r8,r8,r3
  865ca4:	21 08 ff ff 	andi r8,r8,0xffff
  865ca8:	55 0f 00 04 	bgu r8,r15,865cb8 <fatfs_list_files+0x370>
  865cac:	30 a8 00 00 	sb (r5+0),r8
  865cb0:	45 00 00 59 	be r8,r0,865e14 <fatfs_list_files+0x4cc>
  865cb4:	34 a5 00 01 	addi r5,r5,1
  865cb8:	40 82 00 10 	lbu r2,(r4+16)
  865cbc:	40 83 00 11 	lbu r3,(r4+17)
  865cc0:	3c 42 00 08 	sli r2,r2,8
  865cc4:	b8 62 18 00 	or r3,r3,r2
  865cc8:	3c 68 00 08 	sli r8,r3,8
  865ccc:	00 63 00 08 	srui r3,r3,8
  865cd0:	b9 03 40 00 	or r8,r8,r3
  865cd4:	21 08 ff ff 	andi r8,r8,0xffff
  865cd8:	55 0f 00 04 	bgu r8,r15,865ce8 <fatfs_list_files+0x3a0>
  865cdc:	30 a8 00 00 	sb (r5+0),r8
  865ce0:	45 00 00 4d 	be r8,r0,865e14 <fatfs_list_files+0x4cc>
  865ce4:	34 a5 00 01 	addi r5,r5,1
  865ce8:	40 82 00 12 	lbu r2,(r4+18)
  865cec:	40 83 00 13 	lbu r3,(r4+19)
  865cf0:	3c 42 00 08 	sli r2,r2,8
  865cf4:	b8 62 18 00 	or r3,r3,r2
  865cf8:	3c 68 00 08 	sli r8,r3,8
  865cfc:	00 63 00 08 	srui r3,r3,8
  865d00:	b9 03 40 00 	or r8,r8,r3
  865d04:	21 08 ff ff 	andi r8,r8,0xffff
  865d08:	55 0f 00 04 	bgu r8,r15,865d18 <fatfs_list_files+0x3d0>
  865d0c:	30 a8 00 00 	sb (r5+0),r8
  865d10:	45 00 00 41 	be r8,r0,865e14 <fatfs_list_files+0x4cc>
  865d14:	34 a5 00 01 	addi r5,r5,1
  865d18:	40 82 00 14 	lbu r2,(r4+20)
  865d1c:	40 83 00 15 	lbu r3,(r4+21)
  865d20:	3c 42 00 08 	sli r2,r2,8
  865d24:	b8 62 18 00 	or r3,r3,r2
  865d28:	3c 68 00 08 	sli r8,r3,8
  865d2c:	00 63 00 08 	srui r3,r3,8
  865d30:	b9 03 40 00 	or r8,r8,r3
  865d34:	21 08 ff ff 	andi r8,r8,0xffff
  865d38:	55 0f 00 04 	bgu r8,r15,865d48 <fatfs_list_files+0x400>
  865d3c:	30 a8 00 00 	sb (r5+0),r8
  865d40:	45 00 00 35 	be r8,r0,865e14 <fatfs_list_files+0x4cc>
  865d44:	34 a5 00 01 	addi r5,r5,1
  865d48:	40 82 00 16 	lbu r2,(r4+22)
  865d4c:	40 83 00 17 	lbu r3,(r4+23)
  865d50:	3c 42 00 08 	sli r2,r2,8
  865d54:	b8 62 18 00 	or r3,r3,r2
  865d58:	3c 68 00 08 	sli r8,r3,8
  865d5c:	00 63 00 08 	srui r3,r3,8
  865d60:	b9 03 40 00 	or r8,r8,r3
  865d64:	21 08 ff ff 	andi r8,r8,0xffff
  865d68:	55 0f 00 04 	bgu r8,r15,865d78 <fatfs_list_files+0x430>
  865d6c:	30 a8 00 00 	sb (r5+0),r8
  865d70:	45 00 00 29 	be r8,r0,865e14 <fatfs_list_files+0x4cc>
  865d74:	34 a5 00 01 	addi r5,r5,1
  865d78:	40 82 00 18 	lbu r2,(r4+24)
  865d7c:	40 83 00 19 	lbu r3,(r4+25)
  865d80:	3c 42 00 08 	sli r2,r2,8
  865d84:	b8 62 18 00 	or r3,r3,r2
  865d88:	3c 68 00 08 	sli r8,r3,8
  865d8c:	00 63 00 08 	srui r3,r3,8
  865d90:	b9 03 40 00 	or r8,r8,r3
  865d94:	21 08 ff ff 	andi r8,r8,0xffff
  865d98:	55 0f 00 04 	bgu r8,r15,865da8 <fatfs_list_files+0x460>
  865d9c:	30 a8 00 00 	sb (r5+0),r8
  865da0:	45 00 00 1d 	be r8,r0,865e14 <fatfs_list_files+0x4cc>
  865da4:	34 a5 00 01 	addi r5,r5,1
  865da8:	40 82 00 1c 	lbu r2,(r4+28)
  865dac:	40 83 00 1d 	lbu r3,(r4+29)
  865db0:	3c 42 00 08 	sli r2,r2,8
  865db4:	b8 62 18 00 	or r3,r3,r2
  865db8:	3c 68 00 08 	sli r8,r3,8
  865dbc:	00 63 00 08 	srui r3,r3,8
  865dc0:	b9 03 40 00 	or r8,r8,r3
  865dc4:	21 08 ff ff 	andi r8,r8,0xffff
  865dc8:	55 0f 00 04 	bgu r8,r15,865dd8 <fatfs_list_files+0x490>
  865dcc:	30 a8 00 00 	sb (r5+0),r8
  865dd0:	45 00 00 11 	be r8,r0,865e14 <fatfs_list_files+0x4cc>
  865dd4:	34 a5 00 01 	addi r5,r5,1
  865dd8:	40 82 00 1e 	lbu r2,(r4+30)
  865ddc:	40 83 00 1f 	lbu r3,(r4+31)
  865de0:	3c 42 00 08 	sli r2,r2,8
  865de4:	b8 62 10 00 	or r2,r3,r2
  865de8:	3c 44 00 08 	sli r4,r2,8
  865dec:	00 42 00 08 	srui r2,r2,8
  865df0:	b8 82 20 00 	or r4,r4,r2
  865df4:	20 84 ff ff 	andi r4,r4,0xffff
  865df8:	54 8f 00 04 	bgu r4,r15,865e08 <fatfs_list_files+0x4c0>
  865dfc:	30 a4 00 00 	sb (r5+0),r4
  865e00:	44 80 00 05 	be r4,r0,865e14 <fatfs_list_files+0x4cc>
  865e04:	34 a5 00 01 	addi r5,r5,1
  865e08:	20 e7 00 40 	andi r7,r7,0x40
  865e0c:	44 e0 00 02 	be r7,r0,865e14 <fatfs_list_files+0x4cc>
  865e10:	30 a0 00 00 	sb (r5+0),r0
  865e14:	34 01 00 01 	mvi r1,1
  865e18:	5c c1 ff 41 	bne r6,r1,865b1c <fatfs_list_files+0x1d4>
  865e1c:	34 10 00 01 	mvi r16,1
  865e20:	e3 ff ff 3f 	bi 865b1c <fatfs_list_files+0x1d4>
  865e24:	b8 e0 28 00 	mv r5,r7
  865e28:	e3 ff ff 33 	bi 865af4 <fatfs_list_files+0x1ac>
  865e2c:	34 05 00 04 	mvi r5,4
  865e30:	34 09 00 03 	mvi r9,3
  865e34:	34 08 00 02 	mvi r8,2
  865e38:	34 07 00 01 	mvi r7,1
  865e3c:	34 06 00 00 	mvi r6,0
  865e40:	e3 ff ff 1f 	bi 865abc <fatfs_list_files+0x174>
  865e44:	b9 00 28 00 	mv r5,r8
  865e48:	e3 ff ff 2b 	bi 865af4 <fatfs_list_files+0x1ac>
  865e4c:	34 05 00 05 	mvi r5,5
  865e50:	34 09 00 04 	mvi r9,4
  865e54:	34 08 00 03 	mvi r8,3
  865e58:	34 07 00 02 	mvi r7,2
  865e5c:	34 06 00 01 	mvi r6,1
  865e60:	e3 ff ff 17 	bi 865abc <fatfs_list_files+0x174>
  865e64:	b9 20 28 00 	mv r5,r9
  865e68:	e3 ff ff 23 	bi 865af4 <fatfs_list_files+0x1ac>
  865e6c:	34 05 00 06 	mvi r5,6
  865e70:	34 09 00 05 	mvi r9,5
  865e74:	34 08 00 04 	mvi r8,4
  865e78:	34 07 00 03 	mvi r7,3
  865e7c:	34 06 00 02 	mvi r6,2
  865e80:	e3 ff ff 0f 	bi 865abc <fatfs_list_files+0x174>
  865e84:	34 05 00 07 	mvi r5,7
  865e88:	34 09 00 06 	mvi r9,6
  865e8c:	34 08 00 05 	mvi r8,5
  865e90:	34 07 00 04 	mvi r7,4
  865e94:	34 06 00 03 	mvi r6,3
  865e98:	e3 ff ff 09 	bi 865abc <fatfs_list_files+0x174>
  865e9c:	34 05 00 08 	mvi r5,8
  865ea0:	34 09 00 07 	mvi r9,7
  865ea4:	34 08 00 06 	mvi r8,6
  865ea8:	34 07 00 05 	mvi r7,5
  865eac:	34 06 00 04 	mvi r6,4
  865eb0:	e3 ff ff 03 	bi 865abc <fatfs_list_files+0x174>
  865eb4:	34 05 00 09 	mvi r5,9
  865eb8:	34 09 00 08 	mvi r9,8
  865ebc:	34 08 00 07 	mvi r8,7
  865ec0:	34 07 00 06 	mvi r7,6
  865ec4:	34 06 00 05 	mvi r6,5
  865ec8:	e3 ff fe fd 	bi 865abc <fatfs_list_files+0x174>
  865ecc:	34 05 00 0a 	mvi r5,10
  865ed0:	34 09 00 09 	mvi r9,9
  865ed4:	34 08 00 08 	mvi r8,8
  865ed8:	34 07 00 07 	mvi r7,7
  865edc:	34 06 00 06 	mvi r6,6
  865ee0:	e3 ff fe f7 	bi 865abc <fatfs_list_files+0x174>
  865ee4:	34 05 00 0b 	mvi r5,11
  865ee8:	34 09 00 0a 	mvi r9,10
  865eec:	34 08 00 09 	mvi r8,9
  865ef0:	34 07 00 08 	mvi r7,8
  865ef4:	34 06 00 07 	mvi r6,7
  865ef8:	e3 ff fe f1 	bi 865abc <fatfs_list_files+0x174>
  865efc:	34 01 00 00 	mvi r1,0
  865f00:	e3 ff ff 0b 	bi 865b2c <fatfs_list_files+0x1e4>
  865f04:	2b 81 00 48 	lw r1,(sp+72)
  865f08:	ba 40 10 00 	mv r2,r18
  865f0c:	fb ff fd 8c 	calli 86553c <printf>
  865f10:	34 04 00 00 	mvi r4,0
  865f14:	e3 ff fe c7 	bi 865a30 <fatfs_list_files+0xe8>

00865f18 <fatfs_load>:
  865f18:	37 9c ff b0 	addi sp,sp,-80
  865f1c:	5b 8b 00 44 	sw (sp+68),r11
  865f20:	5b 8c 00 40 	sw (sp+64),r12
  865f24:	5b 8d 00 3c 	sw (sp+60),r13
  865f28:	5b 8e 00 38 	sw (sp+56),r14
  865f2c:	5b 8f 00 34 	sw (sp+52),r15
  865f30:	5b 90 00 30 	sw (sp+48),r16
  865f34:	5b 91 00 2c 	sw (sp+44),r17
  865f38:	5b 92 00 28 	sw (sp+40),r18
  865f3c:	5b 93 00 24 	sw (sp+36),r19
  865f40:	5b 94 00 20 	sw (sp+32),r20
  865f44:	5b 95 00 1c 	sw (sp+28),r21
  865f48:	5b 96 00 18 	sw (sp+24),r22
  865f4c:	5b 97 00 14 	sw (sp+20),r23
  865f50:	5b 98 00 10 	sw (sp+16),r24
  865f54:	5b 99 00 0c 	sw (sp+12),r25
  865f58:	5b 9b 00 08 	sw (sp+8),fp
  865f5c:	5b 9d 00 04 	sw (sp+4),ra
  865f60:	78 13 40 00 	mvhi r19,0x4000
  865f64:	b8 40 88 00 	mv r17,r2
  865f68:	3a 73 00 10 	ori r19,r19,0x10
  865f6c:	34 02 00 2e 	mvi r2,46
  865f70:	b8 20 80 00 	mv r16,r1
  865f74:	b8 60 78 00 	mv r15,r3
  865f78:	b8 80 a8 00 	mv r21,r4
  865f7c:	2a 79 00 00 	lw r25,(r19+0)
  865f80:	fb ff f9 a0 	calli 864600 <strrchr>
  865f84:	b8 20 58 00 	mv r11,r1
  865f88:	5c 20 00 19 	bne r1,r0,865fec <fatfs_load+0xd4>
  865f8c:	78 01 00 86 	mvhi r1,0x86
  865f90:	38 21 ee 1c 	ori r1,r1,0xee1c
  865f94:	ba 00 10 00 	mv r2,r16
  865f98:	fb ff fd 69 	calli 86553c <printf>
  865f9c:	34 01 00 00 	mvi r1,0
  865fa0:	2b 9d 00 04 	lw ra,(sp+4)
  865fa4:	2b 8b 00 44 	lw r11,(sp+68)
  865fa8:	2b 8c 00 40 	lw r12,(sp+64)
  865fac:	2b 8d 00 3c 	lw r13,(sp+60)
  865fb0:	2b 8e 00 38 	lw r14,(sp+56)
  865fb4:	2b 8f 00 34 	lw r15,(sp+52)
  865fb8:	2b 90 00 30 	lw r16,(sp+48)
  865fbc:	2b 91 00 2c 	lw r17,(sp+44)
  865fc0:	2b 92 00 28 	lw r18,(sp+40)
  865fc4:	2b 93 00 24 	lw r19,(sp+36)
  865fc8:	2b 94 00 20 	lw r20,(sp+32)
  865fcc:	2b 95 00 1c 	lw r21,(sp+28)
  865fd0:	2b 96 00 18 	lw r22,(sp+24)
  865fd4:	2b 97 00 14 	lw r23,(sp+20)
  865fd8:	2b 98 00 10 	lw r24,(sp+16)
  865fdc:	2b 99 00 0c 	lw r25,(sp+12)
  865fe0:	2b 9b 00 08 	lw fp,(sp+8)
  865fe4:	37 9c 00 50 	addi sp,sp,80
  865fe8:	c3 a0 00 00 	ret
  865fec:	37 94 00 48 	addi r20,sp,72
  865ff0:	34 02 00 20 	mvi r2,32
  865ff4:	34 03 00 08 	mvi r3,8
  865ff8:	ba 80 08 00 	mv r1,r20
  865ffc:	fb ff fa 0f 	calli 864838 <memset>
  866000:	37 81 00 50 	addi r1,sp,80
  866004:	34 02 00 20 	mvi r2,32
  866008:	34 03 00 03 	mvi r3,3
  86600c:	fb ff fa 0b 	calli 864838 <memset>
  866010:	52 0b 00 0e 	bgeu r16,r11,866048 <fatfs_load+0x130>
  866014:	ba 80 38 00 	mv r7,r20
  866018:	ba 00 30 00 	mv r6,r16
  86601c:	34 01 00 19 	mvi r1,25
  866020:	40 c5 00 00 	lbu r5,(r6+0)
  866024:	34 c6 00 01 	addi r6,r6,1
  866028:	34 a8 ff 9f 	addi r8,r5,-97
  86602c:	21 08 00 ff 	andi r8,r8,0xff
  866030:	34 a3 ff e0 	addi r3,r5,-32
  866034:	55 01 00 02 	bgu r8,r1,86603c <fatfs_load+0x124>
  866038:	20 65 00 ff 	andi r5,r3,0xff
  86603c:	30 e5 00 00 	sb (r7+0),r5
  866040:	34 e7 00 01 	addi r7,r7,1
  866044:	5c cb ff f7 	bne r6,r11,866020 <fatfs_load+0x108>
  866048:	11 65 00 01 	lb r5,(r11+1)
  86604c:	35 6b 00 01 	addi r11,r11,1
  866050:	44 a0 00 0e 	be r5,r0,866088 <fatfs_load+0x170>
  866054:	37 86 00 50 	addi r6,sp,80
  866058:	34 03 00 19 	mvi r3,25
  86605c:	20 a5 00 ff 	andi r5,r5,0xff
  866060:	34 a1 ff 9f 	addi r1,r5,-97
  866064:	20 21 00 ff 	andi r1,r1,0xff
  866068:	35 6b 00 01 	addi r11,r11,1
  86606c:	34 a2 ff e0 	addi r2,r5,-32
  866070:	54 23 00 02 	bgu r1,r3,866078 <fatfs_load+0x160>
  866074:	20 45 00 ff 	andi r5,r2,0xff
  866078:	30 c5 00 00 	sb (r6+0),r5
  86607c:	11 65 00 00 	lb r5,(r11+0)
  866080:	34 c6 00 01 	addi r6,r6,1
  866084:	5c a0 ff f6 	bne r5,r0,86605c <fatfs_load+0x144>
  866088:	78 0c 40 00 	mvhi r12,0x4000
  86608c:	39 8c 00 14 	ori r12,r12,0x14
  866090:	29 81 00 00 	lw r1,(r12+0)
  866094:	4c 01 ff be 	bge r0,r1,865f8c <fatfs_load+0x74>
  866098:	78 1b 40 00 	mvhi fp,0x4000
  86609c:	78 17 40 00 	mvhi r23,0x4000
  8660a0:	78 12 40 00 	mvhi r18,0x4000
  8660a4:	34 0d 00 00 	mvi r13,0
  8660a8:	3b 7b 00 18 	ori fp,fp,0x18
  8660ac:	3a f7 00 1c 	ori r23,r23,0x1c
  8660b0:	3a 52 00 20 	ori r18,r18,0x20
  8660b4:	34 18 00 e5 	mvi r24,229
  8660b8:	3d a1 00 05 	sli r1,r13,5
  8660bc:	2b 6b 00 00 	lw r11,(fp+0)
  8660c0:	00 21 00 09 	srui r1,r1,9
  8660c4:	2a e3 00 00 	lw r3,(r23+0)
  8660c8:	b4 2b 58 00 	add r11,r1,r11
  8660cc:	ba 40 10 00 	mv r2,r18
  8660d0:	b9 60 08 00 	mv r1,r11
  8660d4:	45 63 00 04 	be r11,r3,8660e4 <fatfs_load+0x1cc>
  8660d8:	f8 00 0b 6f 	calli 868e94 <bd_readblock>
  8660dc:	44 20 00 90 	be r1,r0,86631c <fatfs_load+0x404>
  8660e0:	5a eb 00 00 	sw (r23+0),r11
  8660e4:	21 b6 00 0f 	andi r22,r13,0xf
  8660e8:	3e d6 00 05 	sli r22,r22,5
  8660ec:	35 ad 00 01 	addi r13,r13,1
  8660f0:	b6 d2 58 00 	add r11,r22,r18
  8660f4:	41 64 00 00 	lbu r4,(r11+0)
  8660f8:	44 80 ff a5 	be r4,r0,865f8c <fatfs_load+0x74>
  8660fc:	41 65 00 0b 	lbu r5,(r11+11)
  866100:	20 a5 00 18 	andi r5,r5,0x18
  866104:	5c a0 00 0e 	bne r5,r0,86613c <fatfs_load+0x224>
  866108:	b9 60 10 00 	mv r2,r11
  86610c:	34 03 00 08 	mvi r3,8
  866110:	ba 80 08 00 	mv r1,r20
  866114:	44 98 00 0a 	be r4,r24,86613c <fatfs_load+0x224>
  866118:	fb ff f9 b5 	calli 8647ec <memcmp>
  86611c:	b8 20 70 00 	mv r14,r1
  866120:	36 c2 00 08 	addi r2,r22,8
  866124:	37 81 00 50 	addi r1,sp,80
  866128:	b6 42 10 00 	add r2,r18,r2
  86612c:	34 03 00 03 	mvi r3,3
  866130:	5d c0 00 03 	bne r14,r0,86613c <fatfs_load+0x224>
  866134:	fb ff f9 ae 	calli 8647ec <memcmp>
  866138:	44 2e 00 04 	be r1,r14,866148 <fatfs_load+0x230>
  86613c:	29 83 00 00 	lw r3,(r12+0)
  866140:	48 6d ff de 	bg r3,r13,8660b8 <fatfs_load+0x1a0>
  866144:	e3 ff ff 92 	bi 865f8c <fatfs_load+0x74>
  866148:	46 a1 00 15 	be r21,r1,86619c <fatfs_load+0x284>
  86614c:	41 61 00 1c 	lbu r1,(r11+28)
  866150:	41 63 00 1d 	lbu r3,(r11+29)
  866154:	41 62 00 1e 	lbu r2,(r11+30)
  866158:	3c 21 00 18 	sli r1,r1,24
  86615c:	3c 63 00 10 	sli r3,r3,16
  866160:	41 65 00 1f 	lbu r5,(r11+31)
  866164:	3c 42 00 08 	sli r2,r2,8
  866168:	b8 61 08 00 	or r1,r3,r1
  86616c:	b8 41 08 00 	or r1,r2,r1
  866170:	b8 a1 28 00 	or r5,r5,r1
  866174:	00 a4 00 18 	srui r4,r5,24
  866178:	3c a3 00 18 	sli r3,r5,24
  86617c:	20 a2 ff 00 	andi r2,r5,0xff00
  866180:	3c 42 00 08 	sli r2,r2,8
  866184:	00 a1 00 08 	srui r1,r5,8
  866188:	b8 83 18 00 	or r3,r4,r3
  86618c:	b8 62 10 00 	or r2,r3,r2
  866190:	20 21 ff 00 	andi r1,r1,0xff00
  866194:	b8 41 08 00 	or r1,r2,r1
  866198:	5a a1 00 00 	sw (r21+0),r1
  86619c:	15 e3 00 1f 	sri r3,r15,31
  8661a0:	41 61 00 1a 	lbu r1,(r11+26)
  8661a4:	00 63 00 17 	srui r3,r3,23
  8661a8:	41 62 00 1b 	lbu r2,(r11+27)
  8661ac:	b4 6f 78 00 	add r15,r3,r15
  8661b0:	3c 21 00 08 	sli r1,r1,8
  8661b4:	15 ef 00 09 	sri r15,r15,9
  8661b8:	3f 39 00 09 	sli r25,r25,9
  8661bc:	b8 41 08 00 	or r1,r2,r1
  8661c0:	4c 0f 00 54 	bge r0,r15,866310 <fatfs_load+0x3f8>
  8661c4:	3c 30 00 08 	sli r16,r1,8
  8661c8:	00 21 00 08 	srui r1,r1,8
  8661cc:	78 12 40 00 	mvhi r18,0x4000
  8661d0:	ba 01 80 00 	or r16,r16,r1
  8661d4:	78 14 40 00 	mvhi r20,0x4000
  8661d8:	78 16 40 00 	mvhi r22,0x4000
  8661dc:	78 15 40 00 	mvhi r21,0x4000
  8661e0:	78 17 40 00 	mvhi r23,0x4000
  8661e4:	22 10 ff ff 	andi r16,r16,0xffff
  8661e8:	34 18 00 00 	mvi r24,0
  8661ec:	3a 52 02 20 	ori r18,r18,0x220
  8661f0:	3a 94 02 24 	ori r20,r20,0x224
  8661f4:	3a d6 02 28 	ori r22,r22,0x228
  8661f8:	3a b5 02 2c 	ori r21,r21,0x22c
  8661fc:	3a f7 02 30 	ori r23,r23,0x230
  866200:	38 1b ff f7 	mvu fp,0xfff7
  866204:	2a 6c 00 00 	lw r12,(r19+0)
  866208:	36 03 ff fe 	addi r3,r16,-2
  86620c:	2a 4b 00 00 	lw r11,(r18+0)
  866210:	88 6c 18 00 	mul r3,r3,r12
  866214:	b9 e0 70 00 	mv r14,r15
  866218:	b4 6b 58 00 	add r11,r3,r11
  86621c:	4d 8f 00 02 	bge r12,r15,866224 <fatfs_load+0x30c>
  866220:	b9 80 70 00 	mv r14,r12
  866224:	4c 0e 00 0c 	bge r0,r14,866254 <fatfs_load+0x33c>
  866228:	ba 20 68 00 	mv r13,r17
  86622c:	34 0c 00 00 	mvi r12,0
  866230:	b9 60 08 00 	mv r1,r11
  866234:	b9 a0 10 00 	mv r2,r13
  866238:	f8 00 0b 17 	calli 868e94 <bd_readblock>
  86623c:	35 8c 00 01 	addi r12,r12,1
  866240:	44 20 00 22 	be r1,r0,8662c8 <fatfs_load+0x3b0>
  866244:	35 6b 00 01 	addi r11,r11,1
  866248:	35 ad 02 00 	addi r13,r13,512
  86624c:	49 cc ff f9 	bg r14,r12,866230 <fatfs_load+0x318>
  866250:	2a 6c 00 00 	lw r12,(r19+0)
  866254:	2a 81 00 00 	lw r1,(r20+0)
  866258:	4e 01 00 22 	bge r16,r1,8662e0 <fatfs_load+0x3c8>
  86625c:	2a cb 00 00 	lw r11,(r22+0)
  866260:	02 01 00 08 	srui r1,r16,8
  866264:	2a a2 00 00 	lw r2,(r21+0)
  866268:	b4 2b 58 00 	add r11,r1,r11
  86626c:	ba e0 68 00 	mv r13,r23
  866270:	45 62 00 07 	be r11,r2,86628c <fatfs_load+0x374>
  866274:	b9 60 08 00 	mv r1,r11
  866278:	ba e0 10 00 	mv r2,r23
  86627c:	ba e0 68 00 	mv r13,r23
  866280:	f8 00 0b 05 	calli 868e94 <bd_readblock>
  866284:	44 20 00 1d 	be r1,r0,8662f8 <fatfs_load+0x3e0>
  866288:	5a ab 00 00 	sw (r21+0),r11
  86628c:	22 10 00 ff 	andi r16,r16,0xff
  866290:	3e 10 00 01 	sli r16,r16,1
  866294:	37 18 00 01 	addi r24,r24,1
  866298:	b5 b0 68 00 	add r13,r13,r16
  86629c:	2d a1 00 00 	lhu r1,(r13+0)
  8662a0:	3c 30 00 08 	sli r16,r1,8
  8662a4:	00 21 00 08 	srui r1,r1,8
  8662a8:	ba 01 80 00 	or r16,r16,r1
  8662ac:	22 10 ff ff 	andi r16,r16,0xffff
  8662b0:	4a 1b 00 04 	bg r16,fp,8662c0 <fatfs_load+0x3a8>
  8662b4:	c9 ec 78 00 	sub r15,r15,r12
  8662b8:	b6 39 88 00 	add r17,r17,r25
  8662bc:	49 e0 ff d2 	bg r15,r0,866204 <fatfs_load+0x2ec>
  8662c0:	8b 19 08 00 	mul r1,r24,r25
  8662c4:	e3 ff ff 37 	bi 865fa0 <fatfs_load+0x88>
  8662c8:	78 01 00 86 	mvhi r1,0x86
  8662cc:	38 21 ee 34 	ori r1,r1,0xee34
  8662d0:	b9 60 10 00 	mv r2,r11
  8662d4:	fb ff fc 9a 	calli 86553c <printf>
  8662d8:	34 01 00 00 	mvi r1,0
  8662dc:	e3 ff ff 31 	bi 865fa0 <fatfs_load+0x88>
  8662e0:	78 01 00 86 	mvhi r1,0x86
  8662e4:	38 21 ee 60 	ori r1,r1,0xee60
  8662e8:	ba 00 10 00 	mv r2,r16
  8662ec:	fb ff fc 94 	calli 86553c <printf>
  8662f0:	34 01 00 00 	mvi r1,0
  8662f4:	e3 ff ff 2b 	bi 865fa0 <fatfs_load+0x88>
  8662f8:	78 01 00 86 	mvhi r1,0x86
  8662fc:	38 21 ee 8c 	ori r1,r1,0xee8c
  866300:	b9 60 10 00 	mv r2,r11
  866304:	fb ff fc 8e 	calli 86553c <printf>
  866308:	34 01 00 00 	mvi r1,0
  86630c:	e3 ff ff 25 	bi 865fa0 <fatfs_load+0x88>
  866310:	34 18 00 00 	mvi r24,0
  866314:	8b 19 08 00 	mul r1,r24,r25
  866318:	e3 ff ff 22 	bi 865fa0 <fatfs_load+0x88>
  86631c:	78 01 00 86 	mvhi r1,0x86
  866320:	b9 60 10 00 	mv r2,r11
  866324:	38 21 ed f0 	ori r1,r1,0xedf0
  866328:	fb ff fc 85 	calli 86553c <printf>
  86632c:	e3 ff ff 18 	bi 865f8c <fatfs_load+0x74>

00866330 <fatfs_done>:
  866330:	37 9c ff fc 	addi sp,sp,-4
  866334:	5b 9d 00 04 	sw (sp+4),ra
  866338:	f8 00 0c 63 	calli 8694c4 <bd_done>
  86633c:	2b 9d 00 04 	lw ra,(sp+4)
  866340:	37 9c 00 04 	addi sp,sp,4
  866344:	c3 a0 00 00 	ret

00866348 <flush_cpu_icache>:
  866348:	d0 60 00 00 	wcsr ICC,r0
  86634c:	34 00 00 00 	nop
  866350:	34 00 00 00 	nop
  866354:	34 00 00 00 	nop
  866358:	34 00 00 00 	nop
  86635c:	c3 a0 00 00 	ret

00866360 <flush_cpu_dcache>:
  866360:	d0 80 00 00 	wcsr DCC,r0
  866364:	34 00 00 00 	nop
  866368:	c3 a0 00 00 	ret

0086636c <flush_bridge_cache>:
  86636c:	78 01 00 86 	mvhi r1,0x86
  866370:	38 21 ee b4 	ori r1,r1,0xeeb4
  866374:	28 22 00 00 	lw r2,(r1+0)
  866378:	78 01 c8 00 	mvhi r1,0xc800
  86637c:	30 20 00 00 	sb (r1+0),r0
  866380:	34 21 00 20 	addi r1,r1,32
  866384:	5c 22 ff fe 	bne r1,r2,86637c <flush_bridge_cache+0x10>
  866388:	c3 a0 00 00 	ret

0086638c <reboot>:
  86638c:	37 9c ff fc 	addi sp,sp,-4
  866390:	5b 9d 00 04 	sw (sp+4),ra
  866394:	34 01 00 01 	mvi r1,1
  866398:	f8 00 01 32 	calli 866860 <uart_force_sync>
  86639c:	34 01 00 00 	mvi r1,0
  8663a0:	d0 21 00 00 	wcsr IM,r1
  8663a4:	d0 01 00 00 	wcsr IE,r1
  8663a8:	78 03 00 86 	mvhi r3,0x86
  8663ac:	38 63 ee b8 	ori r3,r3,0xeeb8
  8663b0:	28 61 00 00 	lw r1,(r3+0)
  8663b4:	34 02 00 01 	mvi r2,1
  8663b8:	58 22 00 00 	sw (r1+0),r2
  8663bc:	e0 00 00 00 	bi 8663bc <reboot+0x30>

008663c0 <reconf>:
  8663c0:	37 9c ff fc 	addi sp,sp,-4
  8663c4:	5b 9d 00 04 	sw (sp+4),ra
  8663c8:	34 01 00 01 	mvi r1,1
  8663cc:	f8 00 01 25 	calli 866860 <uart_force_sync>
  8663d0:	34 01 00 00 	mvi r1,0
  8663d4:	d0 21 00 00 	wcsr IM,r1
  8663d8:	d0 01 00 00 	wcsr IE,r1
  8663dc:	78 01 00 86 	mvhi r1,0x86
  8663e0:	38 21 ee bc 	ori r1,r1,0xeebc
  8663e4:	28 22 00 00 	lw r2,(r1+0)
  8663e8:	28 43 00 00 	lw r3,(r2+0)
  8663ec:	78 04 00 86 	mvhi r4,0x86
  8663f0:	38 84 ee bc 	ori r4,r4,0xeebc
  8663f4:	20 63 00 01 	andi r3,r3,0x1
  8663f8:	28 81 00 00 	lw r1,(r4+0)
  8663fc:	44 60 ff fb 	be r3,r0,8663e8 <reconf+0x28>
  866400:	78 04 00 86 	mvhi r4,0x86
  866404:	38 84 ee c0 	ori r4,r4,0xeec0
  866408:	28 82 00 00 	lw r2,(r4+0)
  86640c:	b8 20 18 00 	mv r3,r1
  866410:	58 22 00 00 	sw (r1+0),r2
  866414:	28 62 00 00 	lw r2,(r3+0)
  866418:	78 04 00 86 	mvhi r4,0x86
  86641c:	38 84 ee bc 	ori r4,r4,0xeebc
  866420:	20 42 00 01 	andi r2,r2,0x1
  866424:	28 81 00 00 	lw r1,(r4+0)
  866428:	44 40 ff fb 	be r2,r0,866414 <reconf+0x54>
  86642c:	78 04 00 86 	mvhi r4,0x86
  866430:	38 84 ee c0 	ori r4,r4,0xeec0
  866434:	28 82 00 00 	lw r2,(r4+0)
  866438:	b8 20 18 00 	mv r3,r1
  86643c:	58 22 00 00 	sw (r1+0),r2
  866440:	28 62 00 00 	lw r2,(r3+0)
  866444:	78 04 00 86 	mvhi r4,0x86
  866448:	38 84 ee bc 	ori r4,r4,0xeebc
  86644c:	20 42 00 01 	andi r2,r2,0x1
  866450:	28 81 00 00 	lw r1,(r4+0)
  866454:	44 40 ff fb 	be r2,r0,866440 <reconf+0x80>
  866458:	78 04 00 86 	mvhi r4,0x86
  86645c:	38 84 ee c0 	ori r4,r4,0xeec0
  866460:	28 82 00 00 	lw r2,(r4+0)
  866464:	b8 20 18 00 	mv r3,r1
  866468:	58 22 00 00 	sw (r1+0),r2
  86646c:	28 62 00 00 	lw r2,(r3+0)
  866470:	78 04 00 86 	mvhi r4,0x86
  866474:	38 84 ee bc 	ori r4,r4,0xeebc
  866478:	20 42 00 01 	andi r2,r2,0x1
  86647c:	28 81 00 00 	lw r1,(r4+0)
  866480:	44 40 ff fb 	be r2,r0,86646c <reconf+0xac>
  866484:	78 04 00 86 	mvhi r4,0x86
  866488:	38 84 ee c0 	ori r4,r4,0xeec0
  86648c:	28 82 00 00 	lw r2,(r4+0)
  866490:	b8 20 18 00 	mv r3,r1
  866494:	58 22 00 00 	sw (r1+0),r2
  866498:	28 62 00 00 	lw r2,(r3+0)
  86649c:	78 04 00 86 	mvhi r4,0x86
  8664a0:	38 84 ee bc 	ori r4,r4,0xeebc
  8664a4:	20 42 00 01 	andi r2,r2,0x1
  8664a8:	28 81 00 00 	lw r1,(r4+0)
  8664ac:	44 40 ff fb 	be r2,r0,866498 <reconf+0xd8>
  8664b0:	38 02 aa 99 	mvu r2,0xaa99
  8664b4:	58 22 00 00 	sw (r1+0),r2
  8664b8:	b8 20 10 00 	mv r2,r1
  8664bc:	28 43 00 00 	lw r3,(r2+0)
  8664c0:	78 04 00 86 	mvhi r4,0x86
  8664c4:	38 84 ee bc 	ori r4,r4,0xeebc
  8664c8:	20 63 00 01 	andi r3,r3,0x1
  8664cc:	28 81 00 00 	lw r1,(r4+0)
  8664d0:	44 60 ff fb 	be r3,r0,8664bc <reconf+0xfc>
  8664d4:	34 02 55 66 	mvi r2,21862
  8664d8:	58 22 00 00 	sw (r1+0),r2
  8664dc:	b8 20 10 00 	mv r2,r1
  8664e0:	28 43 00 00 	lw r3,(r2+0)
  8664e4:	78 04 00 86 	mvhi r4,0x86
  8664e8:	38 84 ee bc 	ori r4,r4,0xeebc
  8664ec:	20 63 00 01 	andi r3,r3,0x1
  8664f0:	28 81 00 00 	lw r1,(r4+0)
  8664f4:	44 60 ff fb 	be r3,r0,8664e0 <reconf+0x120>
  8664f8:	34 02 30 a1 	mvi r2,12449
  8664fc:	58 22 00 00 	sw (r1+0),r2
  866500:	b8 20 10 00 	mv r2,r1
  866504:	28 43 00 00 	lw r3,(r2+0)
  866508:	78 04 00 86 	mvhi r4,0x86
  86650c:	38 84 ee bc 	ori r4,r4,0xeebc
  866510:	20 63 00 01 	andi r3,r3,0x1
  866514:	28 81 00 00 	lw r1,(r4+0)
  866518:	44 60 ff fb 	be r3,r0,866504 <reconf+0x144>
  86651c:	58 20 00 00 	sw (r1+0),r0
  866520:	b8 20 10 00 	mv r2,r1
  866524:	28 43 00 00 	lw r3,(r2+0)
  866528:	78 04 00 86 	mvhi r4,0x86
  86652c:	38 84 ee bc 	ori r4,r4,0xeebc
  866530:	20 63 00 01 	andi r3,r3,0x1
  866534:	28 81 00 00 	lw r1,(r4+0)
  866538:	44 60 ff fb 	be r3,r0,866524 <reconf+0x164>
  86653c:	34 02 30 a1 	mvi r2,12449
  866540:	58 22 00 00 	sw (r1+0),r2
  866544:	b8 20 10 00 	mv r2,r1
  866548:	28 43 00 00 	lw r3,(r2+0)
  86654c:	78 04 00 86 	mvhi r4,0x86
  866550:	38 84 ee bc 	ori r4,r4,0xeebc
  866554:	20 63 00 01 	andi r3,r3,0x1
  866558:	28 81 00 00 	lw r1,(r4+0)
  86655c:	44 60 ff fb 	be r3,r0,866548 <reconf+0x188>
  866560:	34 02 00 0e 	mvi r2,14
  866564:	58 22 00 00 	sw (r1+0),r2
  866568:	b8 20 10 00 	mv r2,r1
  86656c:	28 43 00 00 	lw r3,(r2+0)
  866570:	78 04 00 86 	mvhi r4,0x86
  866574:	38 84 ee bc 	ori r4,r4,0xeebc
  866578:	20 63 00 01 	andi r3,r3,0x1
  86657c:	28 81 00 00 	lw r1,(r4+0)
  866580:	44 60 ff fb 	be r3,r0,86656c <reconf+0x1ac>
  866584:	34 02 20 00 	mvi r2,8192
  866588:	58 22 00 00 	sw (r1+0),r2
  86658c:	b8 20 10 00 	mv r2,r1
  866590:	28 43 00 00 	lw r3,(r2+0)
  866594:	78 04 00 86 	mvhi r4,0x86
  866598:	38 84 ee bc 	ori r4,r4,0xeebc
  86659c:	20 63 00 01 	andi r3,r3,0x1
  8665a0:	28 81 00 00 	lw r1,(r4+0)
  8665a4:	44 60 ff fb 	be r3,r0,866590 <reconf+0x1d0>
  8665a8:	34 02 20 00 	mvi r2,8192
  8665ac:	58 22 00 00 	sw (r1+0),r2
  8665b0:	b8 20 10 00 	mv r2,r1
  8665b4:	28 43 00 00 	lw r3,(r2+0)
  8665b8:	78 04 00 86 	mvhi r4,0x86
  8665bc:	38 84 ee bc 	ori r4,r4,0xeebc
  8665c0:	20 63 00 01 	andi r3,r3,0x1
  8665c4:	28 81 00 00 	lw r1,(r4+0)
  8665c8:	44 60 ff fb 	be r3,r0,8665b4 <reconf+0x1f4>
  8665cc:	34 02 20 00 	mvi r2,8192
  8665d0:	58 22 00 00 	sw (r1+0),r2
  8665d4:	b8 20 10 00 	mv r2,r1
  8665d8:	28 43 00 00 	lw r3,(r2+0)
  8665dc:	78 04 00 86 	mvhi r4,0x86
  8665e0:	38 84 ee bc 	ori r4,r4,0xeebc
  8665e4:	20 63 00 01 	andi r3,r3,0x1
  8665e8:	28 81 00 00 	lw r1,(r4+0)
  8665ec:	44 60 ff fb 	be r3,r0,8665d8 <reconf+0x218>
  8665f0:	34 02 20 00 	mvi r2,8192
  8665f4:	58 22 00 00 	sw (r1+0),r2
  8665f8:	b8 20 10 00 	mv r2,r1
  8665fc:	28 43 00 00 	lw r3,(r2+0)
  866600:	78 04 00 86 	mvhi r4,0x86
  866604:	38 84 ee bc 	ori r4,r4,0xeebc
  866608:	20 63 00 01 	andi r3,r3,0x1
  86660c:	28 81 00 00 	lw r1,(r4+0)
  866610:	44 60 ff fb 	be r3,r0,8665fc <reconf+0x23c>
  866614:	78 04 00 86 	mvhi r4,0x86
  866618:	38 84 ee c4 	ori r4,r4,0xeec4
  86661c:	28 82 00 00 	lw r2,(r4+0)
  866620:	b8 20 18 00 	mv r3,r1
  866624:	58 22 00 00 	sw (r1+0),r2
  866628:	28 61 00 00 	lw r1,(r3+0)
  86662c:	20 21 00 01 	andi r1,r1,0x1
  866630:	44 20 ff fe 	be r1,r0,866628 <reconf+0x268>
  866634:	78 01 00 86 	mvhi r1,0x86
  866638:	78 03 00 86 	mvhi r3,0x86
  86663c:	38 21 ee c0 	ori r1,r1,0xeec0
  866640:	38 63 ee bc 	ori r3,r3,0xeebc
  866644:	28 22 00 00 	lw r2,(r1+0)
  866648:	28 61 00 00 	lw r1,(r3+0)
  86664c:	58 22 00 00 	sw (r1+0),r2
  866650:	e0 00 00 00 	bi 866650 <reconf+0x290>

00866654 <uart_isr_rx>:
  866654:	34 01 00 01 	mvi r1,1
  866658:	d0 41 00 00 	wcsr IP,r1
  86665c:	78 01 40 00 	mvhi r1,0x4000
  866660:	38 21 04 3c 	ori r1,r1,0x43c
  866664:	78 02 e0 00 	mvhi r2,0xe000
  866668:	28 25 00 00 	lw r5,(r1+0)
  86666c:	28 44 00 00 	lw r4,(r2+0)
  866670:	28 23 00 00 	lw r3,(r1+0)
  866674:	78 02 40 02 	mvhi r2,0x4002
  866678:	38 42 04 4c 	ori r2,r2,0x44c
  86667c:	34 63 00 01 	addi r3,r3,1
  866680:	b4 45 10 00 	add r2,r2,r5
  866684:	20 63 0f ff 	andi r3,r3,0xfff
  866688:	30 44 00 00 	sb (r2+0),r4
  86668c:	58 23 00 00 	sw (r1+0),r3
  866690:	c3 a0 00 00 	ret

00866694 <uart_read>:
  866694:	78 02 40 00 	mvhi r2,0x4000
  866698:	78 04 40 00 	mvhi r4,0x4000
  86669c:	38 42 04 40 	ori r2,r2,0x440
  8666a0:	38 84 04 3c 	ori r4,r4,0x43c
  8666a4:	28 43 00 00 	lw r3,(r2+0)
  8666a8:	28 81 00 00 	lw r1,(r4+0)
  8666ac:	44 61 ff fe 	be r3,r1,8666a4 <uart_read+0x10>
  8666b0:	28 44 00 00 	lw r4,(r2+0)
  8666b4:	28 43 00 00 	lw r3,(r2+0)
  8666b8:	78 01 40 02 	mvhi r1,0x4002
  8666bc:	38 21 04 4c 	ori r1,r1,0x44c
  8666c0:	34 63 00 01 	addi r3,r3,1
  8666c4:	b4 24 08 00 	add r1,r1,r4
  8666c8:	20 63 0f ff 	andi r3,r3,0xfff
  8666cc:	10 21 00 00 	lb r1,(r1+0)
  8666d0:	58 43 00 00 	sw (r2+0),r3
  8666d4:	c3 a0 00 00 	ret

008666d8 <uart_read_nonblock>:
  8666d8:	78 01 40 00 	mvhi r1,0x4000
  8666dc:	78 02 40 00 	mvhi r2,0x4000
  8666e0:	38 21 04 40 	ori r1,r1,0x440
  8666e4:	38 42 04 3c 	ori r2,r2,0x43c
  8666e8:	28 23 00 00 	lw r3,(r1+0)
  8666ec:	28 41 00 00 	lw r1,(r2+0)
  8666f0:	fc 61 08 00 	cmpne r1,r3,r1
  8666f4:	c3 a0 00 00 	ret

008666f8 <uart_isr_tx>:
  8666f8:	34 01 00 02 	mvi r1,2
  8666fc:	d0 41 00 00 	wcsr IP,r1
  866700:	78 01 40 00 	mvhi r1,0x4000
  866704:	78 02 40 00 	mvhi r2,0x4000
  866708:	38 21 04 48 	ori r1,r1,0x448
  86670c:	38 42 04 44 	ori r2,r2,0x444
  866710:	28 23 00 00 	lw r3,(r1+0)
  866714:	28 42 00 00 	lw r2,(r2+0)
  866718:	44 43 00 0e 	be r2,r3,866750 <uart_isr_tx+0x58>
  86671c:	78 02 40 00 	mvhi r2,0x4000
  866720:	38 42 04 4c 	ori r2,r2,0x44c
  866724:	b4 43 10 00 	add r2,r2,r3
  866728:	10 44 00 00 	lb r4,(r2+0)
  86672c:	78 02 e0 00 	mvhi r2,0xe000
  866730:	34 63 00 01 	addi r3,r3,1
  866734:	58 44 00 00 	sw (r2+0),r4
  866738:	78 04 00 86 	mvhi r4,0x86
  86673c:	38 84 ee c8 	ori r4,r4,0xeec8
  866740:	28 82 00 00 	lw r2,(r4+0)
  866744:	a0 62 18 00 	and r3,r3,r2
  866748:	58 23 00 00 	sw (r1+0),r3
  86674c:	c3 a0 00 00 	ret
  866750:	78 01 40 00 	mvhi r1,0x4000
  866754:	38 21 04 34 	ori r1,r1,0x434
  866758:	34 02 00 01 	mvi r2,1
  86675c:	58 22 00 00 	sw (r1+0),r2
  866760:	c3 a0 00 00 	ret

00866764 <uart_write>:
  866764:	b0 20 08 00 	sextb r1,r1
  866768:	90 20 20 00 	rcsr r4,IM
  86676c:	34 02 00 00 	mvi r2,0
  866770:	d0 22 00 00 	wcsr IM,r2
  866774:	78 02 40 00 	mvhi r2,0x4000
  866778:	38 42 04 38 	ori r2,r2,0x438
  86677c:	28 43 00 00 	lw r3,(r2+0)
  866780:	44 60 00 0a 	be r3,r0,8667a8 <uart_write+0x44>
  866784:	78 02 e0 00 	mvhi r2,0xe000
  866788:	58 41 00 00 	sw (r2+0),r1
  86678c:	90 40 08 00 	rcsr r1,IP
  866790:	20 21 00 02 	andi r1,r1,0x2
  866794:	44 20 ff fe 	be r1,r0,86678c <uart_write+0x28>
  866798:	34 01 00 02 	mvi r1,2
  86679c:	d0 41 00 00 	wcsr IP,r1
  8667a0:	d0 24 00 00 	wcsr IM,r4
  8667a4:	c3 a0 00 00 	ret
  8667a8:	78 02 40 00 	mvhi r2,0x4000
  8667ac:	38 42 04 34 	ori r2,r2,0x434
  8667b0:	28 45 00 00 	lw r5,(r2+0)
  8667b4:	5c a3 00 10 	bne r5,r3,8667f4 <uart_write+0x90>
  8667b8:	78 02 40 00 	mvhi r2,0x4000
  8667bc:	38 42 04 44 	ori r2,r2,0x444
  8667c0:	28 45 00 00 	lw r5,(r2+0)
  8667c4:	78 03 40 00 	mvhi r3,0x4000
  8667c8:	78 07 00 86 	mvhi r7,0x86
  8667cc:	38 e7 ee c8 	ori r7,r7,0xeec8
  8667d0:	38 63 04 4c 	ori r3,r3,0x44c
  8667d4:	34 a6 00 01 	addi r6,r5,1
  8667d8:	b4 65 18 00 	add r3,r3,r5
  8667dc:	28 e5 00 00 	lw r5,(r7+0)
  8667e0:	30 61 00 00 	sb (r3+0),r1
  8667e4:	a0 c5 28 00 	and r5,r6,r5
  8667e8:	58 45 00 00 	sw (r2+0),r5
  8667ec:	d0 24 00 00 	wcsr IM,r4
  8667f0:	c3 a0 00 00 	ret
  8667f4:	58 40 00 00 	sw (r2+0),r0
  8667f8:	78 02 e0 00 	mvhi r2,0xe000
  8667fc:	58 41 00 00 	sw (r2+0),r1
  866800:	d0 24 00 00 	wcsr IM,r4
  866804:	c3 a0 00 00 	ret

00866808 <uart_init>:
  866808:	78 01 40 00 	mvhi r1,0x4000
  86680c:	38 21 04 3c 	ori r1,r1,0x43c
  866810:	78 04 40 00 	mvhi r4,0x4000
  866814:	78 02 40 00 	mvhi r2,0x4000
  866818:	58 20 00 00 	sw (r1+0),r0
  86681c:	38 84 04 40 	ori r4,r4,0x440
  866820:	38 42 04 48 	ori r2,r2,0x448
  866824:	78 03 40 00 	mvhi r3,0x4000
  866828:	78 01 40 00 	mvhi r1,0x4000
  86682c:	58 80 00 00 	sw (r4+0),r0
  866830:	38 63 04 44 	ori r3,r3,0x444
  866834:	38 21 04 34 	ori r1,r1,0x434
  866838:	58 40 00 00 	sw (r2+0),r0
  86683c:	34 02 00 01 	mvi r2,1
  866840:	58 22 00 00 	sw (r1+0),r2
  866844:	58 60 00 00 	sw (r3+0),r0
  866848:	34 01 00 03 	mvi r1,3
  86684c:	d0 41 00 00 	wcsr IP,r1
  866850:	90 20 08 00 	rcsr r1,IM
  866854:	38 21 00 03 	ori r1,r1,0x3
  866858:	d0 21 00 00 	wcsr IM,r1
  86685c:	c3 a0 00 00 	ret

00866860 <uart_force_sync>:
  866860:	44 20 00 05 	be r1,r0,866874 <uart_force_sync+0x14>
  866864:	78 03 40 00 	mvhi r3,0x4000
  866868:	38 63 04 34 	ori r3,r3,0x434
  86686c:	28 62 00 00 	lw r2,(r3+0)
  866870:	44 40 ff ff 	be r2,r0,86686c <uart_force_sync+0xc>
  866874:	78 02 40 00 	mvhi r2,0x4000
  866878:	38 42 04 38 	ori r2,r2,0x438
  86687c:	58 41 00 00 	sw (r2+0),r1
  866880:	c3 a0 00 00 	ret

00866884 <vsnprintf>:
  866884:	37 9c ff b4 	addi sp,sp,-76
  866888:	5b 8b 00 44 	sw (sp+68),r11
  86688c:	5b 8c 00 40 	sw (sp+64),r12
  866890:	5b 8d 00 3c 	sw (sp+60),r13
  866894:	5b 8e 00 38 	sw (sp+56),r14
  866898:	5b 8f 00 34 	sw (sp+52),r15
  86689c:	5b 90 00 30 	sw (sp+48),r16
  8668a0:	5b 91 00 2c 	sw (sp+44),r17
  8668a4:	5b 92 00 28 	sw (sp+40),r18
  8668a8:	5b 93 00 24 	sw (sp+36),r19
  8668ac:	5b 94 00 20 	sw (sp+32),r20
  8668b0:	5b 95 00 1c 	sw (sp+28),r21
  8668b4:	5b 96 00 18 	sw (sp+24),r22
  8668b8:	5b 97 00 14 	sw (sp+20),r23
  8668bc:	5b 98 00 10 	sw (sp+16),r24
  8668c0:	5b 99 00 0c 	sw (sp+12),r25
  8668c4:	5b 9b 00 08 	sw (sp+8),fp
  8668c8:	5b 9d 00 04 	sw (sp+4),ra
  8668cc:	5b 83 00 4c 	sw (sp+76),r3
  8668d0:	b8 40 a0 00 	mv r20,r2
  8668d4:	b8 20 90 00 	mv r18,r1
  8668d8:	b8 80 78 00 	mv r15,r4
  8668dc:	34 05 00 00 	mvi r5,0
  8668e0:	48 02 00 79 	bg r0,r2,866ac4 <vsnprintf+0x240>
  8668e4:	b4 22 70 00 	add r14,r1,r2
  8668e8:	54 2e 00 99 	bgu r1,r14,866b4c <vsnprintf+0x2c8>
  8668ec:	2b 87 00 4c 	lw r7,(sp+76)
  8668f0:	ba 40 60 00 	mv r12,r18
  8668f4:	34 05 00 00 	mvi r5,0
  8668f8:	10 e3 00 00 	lb r3,(r7+0)
  8668fc:	44 60 00 87 	be r3,r0,866b18 <vsnprintf+0x294>
  866900:	78 11 00 86 	mvhi r17,0x86
  866904:	78 16 00 86 	mvhi r22,0x86
  866908:	78 19 00 86 	mvhi r25,0x86
  86690c:	34 13 00 25 	mvi r19,37
  866910:	34 10 00 10 	mvi r16,16
  866914:	3a 31 ee d4 	ori r17,r17,0xeed4
  866918:	34 18 00 09 	mvi r24,9
  86691c:	34 1b 00 53 	mvi fp,83
  866920:	3a d6 ef 18 	ori r22,r22,0xef18
  866924:	34 17 00 6c 	mvi r23,108
  866928:	34 15 00 20 	mvi r21,32
  86692c:	3b 39 ee cc 	ori r25,r25,0xeecc
  866930:	b8 e0 20 00 	mv r4,r7
  866934:	e0 00 00 09 	bi 866958 <vsnprintf+0xd4>
  866938:	51 8e 00 02 	bgeu r12,r14,866940 <vsnprintf+0xbc>
  86693c:	31 83 00 00 	sb (r12+0),r3
  866940:	2b 84 00 4c 	lw r4,(sp+76)
  866944:	35 8c 00 01 	addi r12,r12,1
  866948:	34 84 00 01 	addi r4,r4,1
  86694c:	5b 84 00 4c 	sw (sp+76),r4
  866950:	10 83 00 00 	lb r3,(r4+0)
  866954:	44 60 00 70 	be r3,r0,866b14 <vsnprintf+0x290>
  866958:	34 0b 00 00 	mvi r11,0
  86695c:	5c 73 ff f7 	bne r3,r19,866938 <vsnprintf+0xb4>
  866960:	34 84 00 01 	addi r4,r4,1
  866964:	5b 84 00 4c 	sw (sp+76),r4
  866968:	10 88 00 00 	lb r8,(r4+0)
  86696c:	35 01 ff e0 	addi r1,r8,-32
  866970:	20 21 00 ff 	andi r1,r1,0xff
  866974:	54 30 00 0f 	bgu r1,r16,8669b0 <vsnprintf+0x12c>
  866978:	3c 21 00 02 	sli r1,r1,2
  86697c:	b6 21 08 00 	add r1,r17,r1
  866980:	28 21 00 00 	lw r1,(r1+0)
  866984:	c0 20 00 00 	b r1
  866988:	39 6b 00 01 	ori r11,r11,0x1
  86698c:	e3 ff ff f5 	bi 866960 <vsnprintf+0xdc>
  866990:	39 6b 00 10 	ori r11,r11,0x10
  866994:	e3 ff ff f3 	bi 866960 <vsnprintf+0xdc>
  866998:	39 6b 00 04 	ori r11,r11,0x4
  86699c:	e3 ff ff f1 	bi 866960 <vsnprintf+0xdc>
  8669a0:	39 6b 00 20 	ori r11,r11,0x20
  8669a4:	e3 ff ff ef 	bi 866960 <vsnprintf+0xdc>
  8669a8:	39 6b 00 08 	ori r11,r11,0x8
  8669ac:	e3 ff ff ed 	bi 866960 <vsnprintf+0xdc>
  8669b0:	35 03 ff d0 	addi r3,r8,-48
  8669b4:	20 63 00 ff 	andi r3,r3,0xff
  8669b8:	54 78 00 19 	bgu r3,r24,866a1c <vsnprintf+0x198>
  8669bc:	37 81 00 4c 	addi r1,sp,76
  8669c0:	fb ff f8 d2 	calli 864d08 <skip_atoi>
  8669c4:	2b 84 00 4c 	lw r4,(sp+76)
  8669c8:	b8 20 28 00 	mv r5,r1
  8669cc:	34 01 00 2e 	mvi r1,46
  8669d0:	10 88 00 00 	lb r8,(r4+0)
  8669d4:	34 06 ff ff 	mvi r6,-1
  8669d8:	5d 01 00 17 	bne r8,r1,866a34 <vsnprintf+0x1b0>
  8669dc:	34 84 00 01 	addi r4,r4,1
  8669e0:	5b 84 00 4c 	sw (sp+76),r4
  8669e4:	10 88 00 00 	lb r8,(r4+0)
  8669e8:	35 03 ff d0 	addi r3,r8,-48
  8669ec:	20 63 00 ff 	andi r3,r3,0xff
  8669f0:	54 78 00 4e 	bgu r3,r24,866b28 <vsnprintf+0x2a4>
  8669f4:	37 81 00 4c 	addi r1,sp,76
  8669f8:	5b 85 00 48 	sw (sp+72),r5
  8669fc:	fb ff f8 c3 	calli 864d08 <skip_atoi>
  866a00:	b8 20 30 00 	mv r6,r1
  866a04:	2b 85 00 48 	lw r5,(sp+72)
  866a08:	4c c0 01 06 	bge r6,r0,866e20 <vsnprintf+0x59c>
  866a0c:	2b 84 00 4c 	lw r4,(sp+76)
  866a10:	34 06 00 00 	mvi r6,0
  866a14:	10 88 00 00 	lb r8,(r4+0)
  866a18:	e0 00 00 07 	bi 866a34 <vsnprintf+0x1b0>
  866a1c:	34 03 00 2a 	mvi r3,42
  866a20:	34 05 ff ff 	mvi r5,-1
  866a24:	45 03 00 f8 	be r8,r3,866e04 <vsnprintf+0x580>
  866a28:	34 01 00 2e 	mvi r1,46
  866a2c:	34 06 ff ff 	mvi r6,-1
  866a30:	45 01 ff eb 	be r8,r1,8669dc <vsnprintf+0x158>
  866a34:	65 07 00 6c 	cmpei r7,r8,108
  866a38:	65 03 00 68 	cmpei r3,r8,104
  866a3c:	b8 e3 18 00 	or r3,r7,r3
  866a40:	5c 60 00 15 	bne r3,r0,866a94 <vsnprintf+0x210>
  866a44:	34 01 00 4c 	mvi r1,76
  866a48:	45 01 00 08 	be r8,r1,866a68 <vsnprintf+0x1e4>
  866a4c:	34 03 00 5a 	mvi r3,90
  866a50:	45 03 00 06 	be r8,r3,866a68 <vsnprintf+0x1e4>
  866a54:	34 03 00 7a 	mvi r3,122
  866a58:	45 03 00 04 	be r8,r3,866a68 <vsnprintf+0x1e4>
  866a5c:	34 01 00 74 	mvi r1,116
  866a60:	34 07 ff ff 	mvi r7,-1
  866a64:	5d 01 00 05 	bne r8,r1,866a78 <vsnprintf+0x1f4>
  866a68:	34 84 00 01 	addi r4,r4,1
  866a6c:	5b 84 00 4c 	sw (sp+76),r4
  866a70:	b9 00 38 00 	mv r7,r8
  866a74:	10 88 00 00 	lb r8,(r4+0)
  866a78:	35 03 ff db 	addi r3,r8,-37
  866a7c:	20 63 00 ff 	andi r3,r3,0xff
  866a80:	54 7b 00 80 	bgu r3,fp,866c80 <vsnprintf+0x3fc>
  866a84:	3c 63 00 02 	sli r3,r3,2
  866a88:	b6 c3 18 00 	add r3,r22,r3
  866a8c:	28 63 00 00 	lw r3,(r3+0)
  866a90:	c0 60 00 00 	b r3
  866a94:	34 84 00 01 	addi r4,r4,1
  866a98:	5b 84 00 4c 	sw (sp+76),r4
  866a9c:	b9 00 38 00 	mv r7,r8
  866aa0:	5d 17 ff f5 	bne r8,r23,866a74 <vsnprintf+0x1f0>
  866aa4:	10 88 00 00 	lb r8,(r4+0)
  866aa8:	5d 07 ff f4 	bne r8,r7,866a78 <vsnprintf+0x1f4>
  866aac:	34 84 00 01 	addi r4,r4,1
  866ab0:	5b 84 00 4c 	sw (sp+76),r4
  866ab4:	10 88 00 00 	lb r8,(r4+0)
  866ab8:	34 07 00 4c 	mvi r7,76
  866abc:	e3 ff ff ef 	bi 866a78 <vsnprintf+0x1f4>
  866ac0:	31 c0 ff ff 	sb (r14+-1),r0
  866ac4:	b8 a0 08 00 	mv r1,r5
  866ac8:	2b 9d 00 04 	lw ra,(sp+4)
  866acc:	2b 8b 00 44 	lw r11,(sp+68)
  866ad0:	2b 8c 00 40 	lw r12,(sp+64)
  866ad4:	2b 8d 00 3c 	lw r13,(sp+60)
  866ad8:	2b 8e 00 38 	lw r14,(sp+56)
  866adc:	2b 8f 00 34 	lw r15,(sp+52)
  866ae0:	2b 90 00 30 	lw r16,(sp+48)
  866ae4:	2b 91 00 2c 	lw r17,(sp+44)
  866ae8:	2b 92 00 28 	lw r18,(sp+40)
  866aec:	2b 93 00 24 	lw r19,(sp+36)
  866af0:	2b 94 00 20 	lw r20,(sp+32)
  866af4:	2b 95 00 1c 	lw r21,(sp+28)
  866af8:	2b 96 00 18 	lw r22,(sp+24)
  866afc:	2b 97 00 14 	lw r23,(sp+20)
  866b00:	2b 98 00 10 	lw r24,(sp+16)
  866b04:	2b 99 00 0c 	lw r25,(sp+12)
  866b08:	2b 9b 00 08 	lw fp,(sp+8)
  866b0c:	37 9c 00 4c 	addi sp,sp,76
  866b10:	c3 a0 00 00 	ret
  866b14:	c9 92 28 00 	sub r5,r12,r18
  866b18:	4c 14 ff eb 	bge r0,r20,866ac4 <vsnprintf+0x240>
  866b1c:	51 8e ff e9 	bgeu r12,r14,866ac0 <vsnprintf+0x23c>
  866b20:	31 80 00 00 	sb (r12+0),r0
  866b24:	e3 ff ff e8 	bi 866ac4 <vsnprintf+0x240>
  866b28:	34 03 00 2a 	mvi r3,42
  866b2c:	34 06 00 00 	mvi r6,0
  866b30:	5d 03 ff c1 	bne r8,r3,866a34 <vsnprintf+0x1b0>
  866b34:	29 e6 00 00 	lw r6,(r15+0)
  866b38:	34 84 00 01 	addi r4,r4,1
  866b3c:	5b 84 00 4c 	sw (sp+76),r4
  866b40:	35 ef 00 04 	addi r15,r15,4
  866b44:	4c c0 00 b7 	bge r6,r0,866e20 <vsnprintf+0x59c>
  866b48:	e3 ff ff b1 	bi 866a0c <vsnprintf+0x188>
  866b4c:	a4 20 a0 00 	not r20,r1
  866b50:	34 0e ff ff 	mvi r14,-1
  866b54:	e3 ff ff 66 	bi 8668ec <vsnprintf+0x68>
  866b58:	39 6b 00 02 	ori r11,r11,0x2
  866b5c:	34 04 00 0a 	mvi r4,10
  866b60:	34 01 00 4c 	mvi r1,76
  866b64:	44 e1 00 38 	be r7,r1,866c44 <vsnprintf+0x3c0>
  866b68:	44 f7 00 95 	be r7,r23,866dbc <vsnprintf+0x538>
  866b6c:	64 e3 00 7a 	cmpei r3,r7,122
  866b70:	64 e1 00 5a 	cmpei r1,r7,90
  866b74:	b8 61 18 00 	or r3,r3,r1
  866b78:	5c 60 00 91 	bne r3,r0,866dbc <vsnprintf+0x538>
  866b7c:	34 01 00 74 	mvi r1,116
  866b80:	44 e1 00 8f 	be r7,r1,866dbc <vsnprintf+0x538>
  866b84:	34 01 00 68 	mvi r1,104
  866b88:	5c e1 00 8d 	bne r7,r1,866dbc <vsnprintf+0x538>
  866b8c:	21 61 00 02 	andi r1,r11,0x2
  866b90:	2d e3 00 02 	lhu r3,(r15+2)
  866b94:	35 ef 00 04 	addi r15,r15,4
  866b98:	44 20 00 8b 	be r1,r0,866dc4 <vsnprintf+0x540>
  866b9c:	dc 60 18 00 	sexth r3,r3
  866ba0:	e0 00 00 89 	bi 866dc4 <vsnprintf+0x540>
  866ba4:	21 6b 00 10 	andi r11,r11,0x10
  866ba8:	5d 60 00 0d 	bne r11,r0,866bdc <vsnprintf+0x358>
  866bac:	34 a1 ff ff 	addi r1,r5,-1
  866bb0:	b8 20 28 00 	mv r5,r1
  866bb4:	b8 20 20 00 	mv r4,r1
  866bb8:	4d 61 00 09 	bge r11,r1,866bdc <vsnprintf+0x358>
  866bbc:	b9 80 18 00 	mv r3,r12
  866bc0:	50 6e 00 02 	bgeu r3,r14,866bc8 <vsnprintf+0x344>
  866bc4:	30 75 00 00 	sb (r3+0),r21
  866bc8:	34 84 ff ff 	addi r4,r4,-1
  866bcc:	34 63 00 01 	addi r3,r3,1
  866bd0:	5c 80 ff fc 	bne r4,r0,866bc0 <vsnprintf+0x33c>
  866bd4:	b5 81 60 00 	add r12,r12,r1
  866bd8:	34 05 00 00 	mvi r5,0
  866bdc:	35 e1 00 04 	addi r1,r15,4
  866be0:	29 e2 00 00 	lw r2,(r15+0)
  866be4:	51 8e 00 02 	bgeu r12,r14,866bec <vsnprintf+0x368>
  866be8:	31 82 00 00 	sb (r12+0),r2
  866bec:	35 82 00 01 	addi r2,r12,1
  866bf0:	34 04 00 01 	mvi r4,1
  866bf4:	b5 85 60 00 	add r12,r12,r5
  866bf8:	b8 40 18 00 	mv r3,r2
  866bfc:	48 a4 00 05 	bg r5,r4,866c10 <vsnprintf+0x38c>
  866c00:	2b 84 00 4c 	lw r4,(sp+76)
  866c04:	b8 40 60 00 	mv r12,r2
  866c08:	b8 20 78 00 	mv r15,r1
  866c0c:	e3 ff ff 4f 	bi 866948 <vsnprintf+0xc4>
  866c10:	50 6e 00 02 	bgeu r3,r14,866c18 <vsnprintf+0x394>
  866c14:	30 75 00 00 	sb (r3+0),r21
  866c18:	34 63 00 01 	addi r3,r3,1
  866c1c:	5c 6c ff fd 	bne r3,r12,866c10 <vsnprintf+0x38c>
  866c20:	34 a5 ff ff 	addi r5,r5,-1
  866c24:	b4 45 60 00 	add r12,r2,r5
  866c28:	2b 84 00 4c 	lw r4,(sp+76)
  866c2c:	b8 20 78 00 	mv r15,r1
  866c30:	e3 ff ff 46 	bi 866948 <vsnprintf+0xc4>
  866c34:	34 01 00 4c 	mvi r1,76
  866c38:	39 6b 00 40 	ori r11,r11,0x40
  866c3c:	34 04 00 10 	mvi r4,16
  866c40:	5c e1 ff ca 	bne r7,r1,866b68 <vsnprintf+0x2e4>
  866c44:	29 e3 00 04 	lw r3,(r15+4)
  866c48:	b9 80 08 00 	mv r1,r12
  866c4c:	b9 c0 10 00 	mv r2,r14
  866c50:	b9 60 38 00 	mv r7,r11
  866c54:	fb ff f8 41 	calli 864d58 <number>
  866c58:	35 ef 00 08 	addi r15,r15,8
  866c5c:	b8 20 60 00 	mv r12,r1
  866c60:	2b 84 00 4c 	lw r4,(sp+76)
  866c64:	e3 ff ff 39 	bi 866948 <vsnprintf+0xc4>
  866c68:	51 8e 00 04 	bgeu r12,r14,866c78 <vsnprintf+0x3f4>
  866c6c:	34 04 00 25 	mvi r4,37
  866c70:	31 84 00 00 	sb (r12+0),r4
  866c74:	2b 84 00 4c 	lw r4,(sp+76)
  866c78:	35 8c 00 01 	addi r12,r12,1
  866c7c:	e3 ff ff 33 	bi 866948 <vsnprintf+0xc4>
  866c80:	51 8e 00 05 	bgeu r12,r14,866c94 <vsnprintf+0x410>
  866c84:	34 01 00 25 	mvi r1,37
  866c88:	31 81 00 00 	sb (r12+0),r1
  866c8c:	2b 84 00 4c 	lw r4,(sp+76)
  866c90:	10 88 00 00 	lb r8,(r4+0)
  866c94:	35 8c 00 01 	addi r12,r12,1
  866c98:	45 00 00 65 	be r8,r0,866e2c <vsnprintf+0x5a8>
  866c9c:	51 8e ff f7 	bgeu r12,r14,866c78 <vsnprintf+0x3f4>
  866ca0:	31 88 00 00 	sb (r12+0),r8
  866ca4:	2b 84 00 4c 	lw r4,(sp+76)
  866ca8:	35 8c 00 01 	addi r12,r12,1
  866cac:	e3 ff ff 27 	bi 866948 <vsnprintf+0xc4>
  866cb0:	34 04 00 10 	mvi r4,16
  866cb4:	e3 ff ff ab 	bi 866b60 <vsnprintf+0x2dc>
  866cb8:	34 04 00 0a 	mvi r4,10
  866cbc:	e3 ff ff a9 	bi 866b60 <vsnprintf+0x2dc>
  866cc0:	29 ed 00 00 	lw r13,(r15+0)
  866cc4:	35 ef 00 04 	addi r15,r15,4
  866cc8:	45 a0 00 62 	be r13,r0,866e50 <vsnprintf+0x5cc>
  866ccc:	b8 c0 10 00 	mv r2,r6
  866cd0:	b9 a0 08 00 	mv r1,r13
  866cd4:	5b 85 00 48 	sw (sp+72),r5
  866cd8:	21 6b 00 10 	andi r11,r11,0x10
  866cdc:	fb ff f6 b5 	calli 8647b0 <strnlen>
  866ce0:	b8 20 10 00 	mv r2,r1
  866ce4:	2b 85 00 48 	lw r5,(sp+72)
  866ce8:	5d 60 00 12 	bne r11,r0,866d30 <vsnprintf+0x4ac>
  866cec:	34 a6 ff ff 	addi r6,r5,-1
  866cf0:	4c 25 00 5a 	bge r1,r5,866e58 <vsnprintf+0x5d4>
  866cf4:	b8 a0 08 00 	mv r1,r5
  866cf8:	b8 a0 20 00 	mv r4,r5
  866cfc:	b9 80 18 00 	mv r3,r12
  866d00:	50 6e 00 02 	bgeu r3,r14,866d08 <vsnprintf+0x484>
  866d04:	30 75 00 00 	sb (r3+0),r21
  866d08:	34 84 ff ff 	addi r4,r4,-1
  866d0c:	34 63 00 01 	addi r3,r3,1
  866d10:	48 82 ff fc 	bg r4,r2,866d00 <vsnprintf+0x47c>
  866d14:	34 04 00 01 	mvi r4,1
  866d18:	c8 85 18 00 	sub r3,r4,r5
  866d1c:	b4 62 18 00 	add r3,r3,r2
  866d20:	34 c4 ff ff 	addi r4,r6,-1
  866d24:	c8 22 08 00 	sub r1,r1,r2
  866d28:	b4 83 28 00 	add r5,r4,r3
  866d2c:	b5 81 60 00 	add r12,r12,r1
  866d30:	4c 02 00 0b 	bge r0,r2,866d5c <vsnprintf+0x4d8>
  866d34:	b9 80 20 00 	mv r4,r12
  866d38:	34 03 00 00 	mvi r3,0
  866d3c:	50 8e 00 04 	bgeu r4,r14,866d4c <vsnprintf+0x4c8>
  866d40:	b5 a3 08 00 	add r1,r13,r3
  866d44:	40 21 00 00 	lbu r1,(r1+0)
  866d48:	30 81 00 00 	sb (r4+0),r1
  866d4c:	34 63 00 01 	addi r3,r3,1
  866d50:	34 84 00 01 	addi r4,r4,1
  866d54:	5c 62 ff fa 	bne r3,r2,866d3c <vsnprintf+0x4b8>
  866d58:	b5 82 60 00 	add r12,r12,r2
  866d5c:	34 a4 ff ff 	addi r4,r5,-1
  866d60:	b9 80 18 00 	mv r3,r12
  866d64:	48 a2 00 20 	bg r5,r2,866de4 <vsnprintf+0x560>
  866d68:	2b 84 00 4c 	lw r4,(sp+76)
  866d6c:	e3 ff fe f7 	bi 866948 <vsnprintf+0xc4>
  866d70:	34 01 ff ff 	mvi r1,-1
  866d74:	44 a1 00 30 	be r5,r1,866e34 <vsnprintf+0x5b0>
  866d78:	29 e3 00 00 	lw r3,(r15+0)
  866d7c:	b9 80 08 00 	mv r1,r12
  866d80:	34 04 00 10 	mvi r4,16
  866d84:	b9 c0 10 00 	mv r2,r14
  866d88:	b9 60 38 00 	mv r7,r11
  866d8c:	fb ff f7 f3 	calli 864d58 <number>
  866d90:	35 ef 00 04 	addi r15,r15,4
  866d94:	b8 20 60 00 	mv r12,r1
  866d98:	2b 84 00 4c 	lw r4,(sp+76)
  866d9c:	e3 ff fe eb 	bi 866948 <vsnprintf+0xc4>
  866da0:	34 04 00 08 	mvi r4,8
  866da4:	e3 ff ff 6f 	bi 866b60 <vsnprintf+0x2dc>
  866da8:	29 e1 00 00 	lw r1,(r15+0)
  866dac:	c9 92 10 00 	sub r2,r12,r18
  866db0:	35 ef 00 04 	addi r15,r15,4
  866db4:	58 22 00 00 	sw (r1+0),r2
  866db8:	e3 ff fe e4 	bi 866948 <vsnprintf+0xc4>
  866dbc:	29 e3 00 00 	lw r3,(r15+0)
  866dc0:	35 ef 00 04 	addi r15,r15,4
  866dc4:	b9 80 08 00 	mv r1,r12
  866dc8:	b9 c0 10 00 	mv r2,r14
  866dcc:	b9 60 38 00 	mv r7,r11
  866dd0:	fb ff f7 e2 	calli 864d58 <number>
  866dd4:	b8 20 60 00 	mv r12,r1
  866dd8:	2b 84 00 4c 	lw r4,(sp+76)
  866ddc:	e3 ff fe db 	bi 866948 <vsnprintf+0xc4>
  866de0:	34 84 ff ff 	addi r4,r4,-1
  866de4:	50 6e 00 02 	bgeu r3,r14,866dec <vsnprintf+0x568>
  866de8:	30 75 00 00 	sb (r3+0),r21
  866dec:	34 63 00 01 	addi r3,r3,1
  866df0:	48 82 ff fc 	bg r4,r2,866de0 <vsnprintf+0x55c>
  866df4:	c8 a2 10 00 	sub r2,r5,r2
  866df8:	b5 82 60 00 	add r12,r12,r2
  866dfc:	2b 84 00 4c 	lw r4,(sp+76)
  866e00:	e3 ff fe d2 	bi 866948 <vsnprintf+0xc4>
  866e04:	29 e5 00 00 	lw r5,(r15+0)
  866e08:	34 84 00 01 	addi r4,r4,1
  866e0c:	5b 84 00 4c 	sw (sp+76),r4
  866e10:	35 ef 00 04 	addi r15,r15,4
  866e14:	48 05 00 0b 	bg r0,r5,866e40 <vsnprintf+0x5bc>
  866e18:	10 88 00 00 	lb r8,(r4+0)
  866e1c:	e3 ff ff 03 	bi 866a28 <vsnprintf+0x1a4>
  866e20:	2b 84 00 4c 	lw r4,(sp+76)
  866e24:	10 88 00 00 	lb r8,(r4+0)
  866e28:	e3 ff ff 03 	bi 866a34 <vsnprintf+0x1b0>
  866e2c:	34 84 ff ff 	addi r4,r4,-1
  866e30:	e3 ff fe c6 	bi 866948 <vsnprintf+0xc4>
  866e34:	39 6b 00 01 	ori r11,r11,0x1
  866e38:	34 05 00 08 	mvi r5,8
  866e3c:	e3 ff ff cf 	bi 866d78 <vsnprintf+0x4f4>
  866e40:	10 88 00 00 	lb r8,(r4+0)
  866e44:	c8 05 28 00 	sub r5,r0,r5
  866e48:	39 6b 00 10 	ori r11,r11,0x10
  866e4c:	e3 ff fe f7 	bi 866a28 <vsnprintf+0x1a4>
  866e50:	bb 20 68 00 	mv r13,r25
  866e54:	e3 ff ff 9e 	bi 866ccc <vsnprintf+0x448>
  866e58:	b8 c0 28 00 	mv r5,r6
  866e5c:	4c 02 ff c0 	bge r0,r2,866d5c <vsnprintf+0x4d8>
  866e60:	e3 ff ff b5 	bi 866d34 <vsnprintf+0x4b0>

00866e64 <bd_init>:
  866e64:	37 9c ff c0 	addi sp,sp,-64
  866e68:	5b 8b 00 24 	sw (sp+36),r11
  866e6c:	5b 8c 00 20 	sw (sp+32),r12
  866e70:	5b 8d 00 1c 	sw (sp+28),r13
  866e74:	5b 8e 00 18 	sw (sp+24),r14
  866e78:	5b 8f 00 14 	sw (sp+20),r15
  866e7c:	5b 90 00 10 	sw (sp+16),r16
  866e80:	5b 91 00 0c 	sw (sp+12),r17
  866e84:	5b 92 00 08 	sw (sp+8),r18
  866e88:	5b 93 00 04 	sw (sp+4),r19
  866e8c:	78 04 00 86 	mvhi r4,0x86
  866e90:	38 84 f0 68 	ori r4,r4,0xf068
  866e94:	28 82 00 00 	lw r2,(r4+0)
  866e98:	78 05 00 86 	mvhi r5,0x86
  866e9c:	34 03 00 fa 	mvi r3,250
  866ea0:	38 a5 f0 6c 	ori r5,r5,0xf06c
  866ea4:	58 43 00 00 	sw (r2+0),r3
  866ea8:	28 a2 00 00 	lw r2,(r5+0)
  866eac:	34 03 00 01 	mvi r3,1
  866eb0:	34 01 00 32 	mvi r1,50
  866eb4:	58 43 00 00 	sw (r2+0),r3
  866eb8:	3c 21 00 01 	sli r1,r1,1
  866ebc:	33 80 00 3d 	sb (sp+61),r0
  866ec0:	43 82 00 3d 	lbu r2,(sp+61)
  866ec4:	3c 21 00 01 	sli r1,r1,1
  866ec8:	34 04 00 40 	mvi r4,64
  866ecc:	20 21 00 ff 	andi r1,r1,0xff
  866ed0:	98 22 18 00 	xor r3,r1,r2
  866ed4:	33 84 00 3c 	sb (sp+60),r4
  866ed8:	33 80 00 3e 	sb (sp+62),r0
  866edc:	33 80 00 3f 	sb (sp+63),r0
  866ee0:	33 80 00 40 	sb (sp+64),r0
  866ee4:	20 63 00 80 	andi r3,r3,0x80
  866ee8:	18 24 00 09 	xori r4,r1,0x9
  866eec:	44 60 00 02 	be r3,r0,866ef4 <bd_init+0x90>
  866ef0:	b8 80 08 00 	mv r1,r4
  866ef4:	3c 42 00 01 	sli r2,r2,1
  866ef8:	3c 21 00 01 	sli r1,r1,1
  866efc:	20 42 00 ff 	andi r2,r2,0xff
  866f00:	20 21 00 ff 	andi r1,r1,0xff
  866f04:	98 22 18 00 	xor r3,r1,r2
  866f08:	20 63 00 80 	andi r3,r3,0x80
  866f0c:	18 24 00 09 	xori r4,r1,0x9
  866f10:	44 60 00 02 	be r3,r0,866f18 <bd_init+0xb4>
  866f14:	b8 80 08 00 	mv r1,r4
  866f18:	3c 42 00 01 	sli r2,r2,1
  866f1c:	3c 21 00 01 	sli r1,r1,1
  866f20:	20 42 00 ff 	andi r2,r2,0xff
  866f24:	20 21 00 ff 	andi r1,r1,0xff
  866f28:	98 22 18 00 	xor r3,r1,r2
  866f2c:	20 63 00 80 	andi r3,r3,0x80
  866f30:	18 24 00 09 	xori r4,r1,0x9
  866f34:	44 60 00 02 	be r3,r0,866f3c <bd_init+0xd8>
  866f38:	b8 80 08 00 	mv r1,r4
  866f3c:	3c 42 00 01 	sli r2,r2,1
  866f40:	3c 21 00 01 	sli r1,r1,1
  866f44:	20 42 00 ff 	andi r2,r2,0xff
  866f48:	20 21 00 ff 	andi r1,r1,0xff
  866f4c:	98 22 18 00 	xor r3,r1,r2
  866f50:	20 63 00 80 	andi r3,r3,0x80
  866f54:	18 24 00 09 	xori r4,r1,0x9
  866f58:	44 60 00 02 	be r3,r0,866f60 <bd_init+0xfc>
  866f5c:	b8 80 08 00 	mv r1,r4
  866f60:	3c 42 00 01 	sli r2,r2,1
  866f64:	3c 21 00 01 	sli r1,r1,1
  866f68:	20 42 00 ff 	andi r2,r2,0xff
  866f6c:	20 21 00 ff 	andi r1,r1,0xff
  866f70:	98 22 18 00 	xor r3,r1,r2
  866f74:	20 63 00 80 	andi r3,r3,0x80
  866f78:	18 24 00 09 	xori r4,r1,0x9
  866f7c:	44 60 00 02 	be r3,r0,866f84 <bd_init+0x120>
  866f80:	b8 80 08 00 	mv r1,r4
  866f84:	3c 42 00 01 	sli r2,r2,1
  866f88:	3c 21 00 01 	sli r1,r1,1
  866f8c:	20 42 00 ff 	andi r2,r2,0xff
  866f90:	20 21 00 ff 	andi r1,r1,0xff
  866f94:	98 22 18 00 	xor r3,r1,r2
  866f98:	20 63 00 80 	andi r3,r3,0x80
  866f9c:	18 24 00 09 	xori r4,r1,0x9
  866fa0:	44 60 00 02 	be r3,r0,866fa8 <bd_init+0x144>
  866fa4:	b8 80 08 00 	mv r1,r4
  866fa8:	3c 42 00 01 	sli r2,r2,1
  866fac:	3c 21 00 01 	sli r1,r1,1
  866fb0:	20 42 00 ff 	andi r2,r2,0xff
  866fb4:	20 21 00 ff 	andi r1,r1,0xff
  866fb8:	98 22 18 00 	xor r3,r1,r2
  866fbc:	20 63 00 80 	andi r3,r3,0x80
  866fc0:	18 24 00 09 	xori r4,r1,0x9
  866fc4:	44 60 00 02 	be r3,r0,866fcc <bd_init+0x168>
  866fc8:	b8 80 08 00 	mv r1,r4
  866fcc:	3c 21 00 01 	sli r1,r1,1
  866fd0:	3c 42 00 01 	sli r2,r2,1
  866fd4:	20 21 00 ff 	andi r1,r1,0xff
  866fd8:	98 22 10 00 	xor r2,r1,r2
  866fdc:	20 42 00 80 	andi r2,r2,0x80
  866fe0:	18 23 00 09 	xori r3,r1,0x9
  866fe4:	44 40 00 02 	be r2,r0,866fec <bd_init+0x188>
  866fe8:	b8 60 08 00 	mv r1,r3
  866fec:	43 82 00 3e 	lbu r2,(sp+62)
  866ff0:	3c 21 00 01 	sli r1,r1,1
  866ff4:	20 21 00 ff 	andi r1,r1,0xff
  866ff8:	98 22 18 00 	xor r3,r1,r2
  866ffc:	20 63 00 80 	andi r3,r3,0x80
  867000:	18 24 00 09 	xori r4,r1,0x9
  867004:	44 60 00 02 	be r3,r0,86700c <bd_init+0x1a8>
  867008:	b8 80 08 00 	mv r1,r4
  86700c:	3c 42 00 01 	sli r2,r2,1
  867010:	3c 21 00 01 	sli r1,r1,1
  867014:	20 42 00 ff 	andi r2,r2,0xff
  867018:	20 21 00 ff 	andi r1,r1,0xff
  86701c:	98 22 18 00 	xor r3,r1,r2
  867020:	20 63 00 80 	andi r3,r3,0x80
  867024:	18 24 00 09 	xori r4,r1,0x9
  867028:	44 60 00 02 	be r3,r0,867030 <bd_init+0x1cc>
  86702c:	b8 80 08 00 	mv r1,r4
  867030:	3c 42 00 01 	sli r2,r2,1
  867034:	3c 21 00 01 	sli r1,r1,1
  867038:	20 42 00 ff 	andi r2,r2,0xff
  86703c:	20 21 00 ff 	andi r1,r1,0xff
  867040:	98 22 18 00 	xor r3,r1,r2
  867044:	20 63 00 80 	andi r3,r3,0x80
  867048:	18 24 00 09 	xori r4,r1,0x9
  86704c:	44 60 00 02 	be r3,r0,867054 <bd_init+0x1f0>
  867050:	b8 80 08 00 	mv r1,r4
  867054:	3c 42 00 01 	sli r2,r2,1
  867058:	3c 21 00 01 	sli r1,r1,1
  86705c:	20 42 00 ff 	andi r2,r2,0xff
  867060:	20 21 00 ff 	andi r1,r1,0xff
  867064:	98 22 18 00 	xor r3,r1,r2
  867068:	20 63 00 80 	andi r3,r3,0x80
  86706c:	18 24 00 09 	xori r4,r1,0x9
  867070:	44 60 00 02 	be r3,r0,867078 <bd_init+0x214>
  867074:	b8 80 08 00 	mv r1,r4
  867078:	3c 42 00 01 	sli r2,r2,1
  86707c:	3c 21 00 01 	sli r1,r1,1
  867080:	20 42 00 ff 	andi r2,r2,0xff
  867084:	20 21 00 ff 	andi r1,r1,0xff
  867088:	98 22 18 00 	xor r3,r1,r2
  86708c:	20 63 00 80 	andi r3,r3,0x80
  867090:	18 24 00 09 	xori r4,r1,0x9
  867094:	44 60 00 02 	be r3,r0,86709c <bd_init+0x238>
  867098:	b8 80 08 00 	mv r1,r4
  86709c:	3c 42 00 01 	sli r2,r2,1
  8670a0:	3c 21 00 01 	sli r1,r1,1
  8670a4:	20 42 00 ff 	andi r2,r2,0xff
  8670a8:	20 21 00 ff 	andi r1,r1,0xff
  8670ac:	98 22 18 00 	xor r3,r1,r2
  8670b0:	20 63 00 80 	andi r3,r3,0x80
  8670b4:	18 24 00 09 	xori r4,r1,0x9
  8670b8:	44 60 00 02 	be r3,r0,8670c0 <bd_init+0x25c>
  8670bc:	b8 80 08 00 	mv r1,r4
  8670c0:	3c 42 00 01 	sli r2,r2,1
  8670c4:	3c 21 00 01 	sli r1,r1,1
  8670c8:	20 42 00 ff 	andi r2,r2,0xff
  8670cc:	20 21 00 ff 	andi r1,r1,0xff
  8670d0:	98 22 18 00 	xor r3,r1,r2
  8670d4:	20 63 00 80 	andi r3,r3,0x80
  8670d8:	18 24 00 09 	xori r4,r1,0x9
  8670dc:	44 60 00 02 	be r3,r0,8670e4 <bd_init+0x280>
  8670e0:	b8 80 08 00 	mv r1,r4
  8670e4:	3c 21 00 01 	sli r1,r1,1
  8670e8:	3c 42 00 01 	sli r2,r2,1
  8670ec:	20 21 00 ff 	andi r1,r1,0xff
  8670f0:	98 22 10 00 	xor r2,r1,r2
  8670f4:	20 42 00 80 	andi r2,r2,0x80
  8670f8:	18 23 00 09 	xori r3,r1,0x9
  8670fc:	44 40 00 02 	be r2,r0,867104 <bd_init+0x2a0>
  867100:	b8 60 08 00 	mv r1,r3
  867104:	43 82 00 3f 	lbu r2,(sp+63)
  867108:	3c 21 00 01 	sli r1,r1,1
  86710c:	20 21 00 ff 	andi r1,r1,0xff
  867110:	98 22 18 00 	xor r3,r1,r2
  867114:	20 63 00 80 	andi r3,r3,0x80
  867118:	18 24 00 09 	xori r4,r1,0x9
  86711c:	44 60 00 02 	be r3,r0,867124 <bd_init+0x2c0>
  867120:	b8 80 08 00 	mv r1,r4
  867124:	3c 42 00 01 	sli r2,r2,1
  867128:	3c 21 00 01 	sli r1,r1,1
  86712c:	20 42 00 ff 	andi r2,r2,0xff
  867130:	20 21 00 ff 	andi r1,r1,0xff
  867134:	98 22 18 00 	xor r3,r1,r2
  867138:	20 63 00 80 	andi r3,r3,0x80
  86713c:	18 24 00 09 	xori r4,r1,0x9
  867140:	44 60 00 02 	be r3,r0,867148 <bd_init+0x2e4>
  867144:	b8 80 08 00 	mv r1,r4
  867148:	3c 42 00 01 	sli r2,r2,1
  86714c:	3c 21 00 01 	sli r1,r1,1
  867150:	20 42 00 ff 	andi r2,r2,0xff
  867154:	20 21 00 ff 	andi r1,r1,0xff
  867158:	98 22 18 00 	xor r3,r1,r2
  86715c:	20 63 00 80 	andi r3,r3,0x80
  867160:	18 24 00 09 	xori r4,r1,0x9
  867164:	44 60 00 02 	be r3,r0,86716c <bd_init+0x308>
  867168:	b8 80 08 00 	mv r1,r4
  86716c:	3c 42 00 01 	sli r2,r2,1
  867170:	3c 21 00 01 	sli r1,r1,1
  867174:	20 42 00 ff 	andi r2,r2,0xff
  867178:	20 21 00 ff 	andi r1,r1,0xff
  86717c:	98 22 18 00 	xor r3,r1,r2
  867180:	20 63 00 80 	andi r3,r3,0x80
  867184:	18 24 00 09 	xori r4,r1,0x9
  867188:	44 60 00 02 	be r3,r0,867190 <bd_init+0x32c>
  86718c:	b8 80 08 00 	mv r1,r4
  867190:	3c 42 00 01 	sli r2,r2,1
  867194:	3c 21 00 01 	sli r1,r1,1
  867198:	20 42 00 ff 	andi r2,r2,0xff
  86719c:	20 21 00 ff 	andi r1,r1,0xff
  8671a0:	98 22 18 00 	xor r3,r1,r2
  8671a4:	20 63 00 80 	andi r3,r3,0x80
  8671a8:	18 24 00 09 	xori r4,r1,0x9
  8671ac:	44 60 00 02 	be r3,r0,8671b4 <bd_init+0x350>
  8671b0:	b8 80 08 00 	mv r1,r4
  8671b4:	3c 42 00 01 	sli r2,r2,1
  8671b8:	3c 21 00 01 	sli r1,r1,1
  8671bc:	20 42 00 ff 	andi r2,r2,0xff
  8671c0:	20 21 00 ff 	andi r1,r1,0xff
  8671c4:	98 22 18 00 	xor r3,r1,r2
  8671c8:	20 63 00 80 	andi r3,r3,0x80
  8671cc:	18 24 00 09 	xori r4,r1,0x9
  8671d0:	44 60 00 02 	be r3,r0,8671d8 <bd_init+0x374>
  8671d4:	b8 80 08 00 	mv r1,r4
  8671d8:	3c 42 00 01 	sli r2,r2,1
  8671dc:	3c 21 00 01 	sli r1,r1,1
  8671e0:	20 42 00 ff 	andi r2,r2,0xff
  8671e4:	20 21 00 ff 	andi r1,r1,0xff
  8671e8:	98 22 18 00 	xor r3,r1,r2
  8671ec:	20 63 00 80 	andi r3,r3,0x80
  8671f0:	18 24 00 09 	xori r4,r1,0x9
  8671f4:	44 60 00 02 	be r3,r0,8671fc <bd_init+0x398>
  8671f8:	b8 80 08 00 	mv r1,r4
  8671fc:	3c 21 00 01 	sli r1,r1,1
  867200:	3c 42 00 01 	sli r2,r2,1
  867204:	20 21 00 ff 	andi r1,r1,0xff
  867208:	98 22 10 00 	xor r2,r1,r2
  86720c:	20 42 00 80 	andi r2,r2,0x80
  867210:	18 23 00 09 	xori r3,r1,0x9
  867214:	44 40 00 02 	be r2,r0,86721c <bd_init+0x3b8>
  867218:	b8 60 08 00 	mv r1,r3
  86721c:	3c 21 00 01 	sli r1,r1,1
  867220:	20 21 00 ff 	andi r1,r1,0xff
  867224:	20 22 00 80 	andi r2,r1,0x80
  867228:	18 23 00 09 	xori r3,r1,0x9
  86722c:	44 40 00 02 	be r2,r0,867234 <bd_init+0x3d0>
  867230:	b8 60 08 00 	mv r1,r3
  867234:	3c 21 00 01 	sli r1,r1,1
  867238:	20 21 00 ff 	andi r1,r1,0xff
  86723c:	20 22 00 80 	andi r2,r1,0x80
  867240:	18 23 00 09 	xori r3,r1,0x9
  867244:	44 40 00 02 	be r2,r0,86724c <bd_init+0x3e8>
  867248:	b8 60 08 00 	mv r1,r3
  86724c:	3c 21 00 01 	sli r1,r1,1
  867250:	20 21 00 ff 	andi r1,r1,0xff
  867254:	20 22 00 80 	andi r2,r1,0x80
  867258:	18 23 00 09 	xori r3,r1,0x9
  86725c:	44 40 00 02 	be r2,r0,867264 <bd_init+0x400>
  867260:	b8 60 08 00 	mv r1,r3
  867264:	3c 21 00 01 	sli r1,r1,1
  867268:	20 21 00 ff 	andi r1,r1,0xff
  86726c:	20 22 00 80 	andi r2,r1,0x80
  867270:	18 23 00 09 	xori r3,r1,0x9
  867274:	44 40 00 02 	be r2,r0,86727c <bd_init+0x418>
  867278:	b8 60 08 00 	mv r1,r3
  86727c:	3c 21 00 01 	sli r1,r1,1
  867280:	20 21 00 ff 	andi r1,r1,0xff
  867284:	20 22 00 80 	andi r2,r1,0x80
  867288:	18 23 00 09 	xori r3,r1,0x9
  86728c:	44 40 00 02 	be r2,r0,867294 <bd_init+0x430>
  867290:	b8 60 08 00 	mv r1,r3
  867294:	3c 21 00 01 	sli r1,r1,1
  867298:	20 21 00 ff 	andi r1,r1,0xff
  86729c:	20 22 00 80 	andi r2,r1,0x80
  8672a0:	18 23 00 09 	xori r3,r1,0x9
  8672a4:	44 40 00 02 	be r2,r0,8672ac <bd_init+0x448>
  8672a8:	b8 60 08 00 	mv r1,r3
  8672ac:	3c 21 00 01 	sli r1,r1,1
  8672b0:	20 21 00 ff 	andi r1,r1,0xff
  8672b4:	20 22 00 80 	andi r2,r1,0x80
  8672b8:	18 23 00 09 	xori r3,r1,0x9
  8672bc:	44 40 00 02 	be r2,r0,8672c4 <bd_init+0x460>
  8672c0:	b8 60 08 00 	mv r1,r3
  8672c4:	3c 21 00 01 	sli r1,r1,1
  8672c8:	20 21 00 ff 	andi r1,r1,0xff
  8672cc:	20 22 00 80 	andi r2,r1,0x80
  8672d0:	18 23 00 09 	xori r3,r1,0x9
  8672d4:	44 40 00 02 	be r2,r0,8672dc <bd_init+0x478>
  8672d8:	b8 60 08 00 	mv r1,r3
  8672dc:	20 21 00 ff 	andi r1,r1,0xff
  8672e0:	78 06 00 86 	mvhi r6,0x86
  8672e4:	78 07 00 86 	mvhi r7,0x86
  8672e8:	3c 21 00 01 	sli r1,r1,1
  8672ec:	38 c6 f0 70 	ori r6,r6,0xf070
  8672f0:	38 e7 f0 74 	ori r7,r7,0xf074
  8672f4:	28 c5 00 00 	lw r5,(r6+0)
  8672f8:	28 e2 00 00 	lw r2,(r7+0)
  8672fc:	38 21 00 01 	ori r1,r1,0x1
  867300:	37 8b 00 3c 	addi r11,sp,60
  867304:	33 81 00 41 	sb (sp+65),r1
  867308:	b9 60 18 00 	mv r3,r11
  86730c:	37 84 00 42 	addi r4,sp,66
  867310:	40 61 00 00 	lbu r1,(r3+0)
  867314:	58 a1 00 00 	sw (r5+0),r1
  867318:	28 41 00 00 	lw r1,(r2+0)
  86731c:	20 21 00 01 	andi r1,r1,0x1
  867320:	5c 20 ff fe 	bne r1,r0,867318 <bd_init+0x4b4>
  867324:	34 63 00 01 	addi r3,r3,1
  867328:	5c 83 ff fa 	bne r4,r3,867310 <bd_init+0x4ac>
  86732c:	78 09 00 86 	mvhi r9,0x86
  867330:	78 08 00 86 	mvhi r8,0x86
  867334:	39 29 f0 70 	ori r9,r9,0xf070
  867338:	39 08 f0 74 	ori r8,r8,0xf074
  86733c:	29 21 00 00 	lw r1,(r9+0)
  867340:	29 02 00 00 	lw r2,(r8+0)
  867344:	34 03 00 ff 	mvi r3,255
  867348:	58 23 00 00 	sw (r1+0),r3
  86734c:	28 41 00 00 	lw r1,(r2+0)
  867350:	20 21 00 01 	andi r1,r1,0x1
  867354:	5c 20 ff fe 	bne r1,r0,86734c <bd_init+0x4e8>
  867358:	34 01 00 16 	mvi r1,22
  86735c:	3c 21 00 01 	sli r1,r1,1
  867360:	33 80 00 3d 	sb (sp+61),r0
  867364:	43 82 00 3d 	lbu r2,(sp+61)
  867368:	3c 21 00 01 	sli r1,r1,1
  86736c:	34 05 00 48 	mvi r5,72
  867370:	20 21 00 ff 	andi r1,r1,0xff
  867374:	33 85 00 3c 	sb (sp+60),r5
  867378:	34 05 00 01 	mvi r5,1
  86737c:	98 22 18 00 	xor r3,r1,r2
  867380:	33 85 00 3f 	sb (sp+63),r5
  867384:	34 05 ff aa 	mvi r5,-86
  867388:	33 85 00 40 	sb (sp+64),r5
  86738c:	33 80 00 3e 	sb (sp+62),r0
  867390:	20 63 00 80 	andi r3,r3,0x80
  867394:	18 25 00 09 	xori r5,r1,0x9
  867398:	44 60 00 02 	be r3,r0,8673a0 <bd_init+0x53c>
  86739c:	b8 a0 08 00 	mv r1,r5
  8673a0:	3c 42 00 01 	sli r2,r2,1
  8673a4:	3c 21 00 01 	sli r1,r1,1
  8673a8:	20 42 00 ff 	andi r2,r2,0xff
  8673ac:	20 21 00 ff 	andi r1,r1,0xff
  8673b0:	98 22 18 00 	xor r3,r1,r2
  8673b4:	20 63 00 80 	andi r3,r3,0x80
  8673b8:	18 25 00 09 	xori r5,r1,0x9
  8673bc:	44 60 00 02 	be r3,r0,8673c4 <bd_init+0x560>
  8673c0:	b8 a0 08 00 	mv r1,r5
  8673c4:	3c 42 00 01 	sli r2,r2,1
  8673c8:	3c 21 00 01 	sli r1,r1,1
  8673cc:	20 42 00 ff 	andi r2,r2,0xff
  8673d0:	20 21 00 ff 	andi r1,r1,0xff
  8673d4:	98 22 18 00 	xor r3,r1,r2
  8673d8:	20 63 00 80 	andi r3,r3,0x80
  8673dc:	18 25 00 09 	xori r5,r1,0x9
  8673e0:	44 60 00 02 	be r3,r0,8673e8 <bd_init+0x584>
  8673e4:	b8 a0 08 00 	mv r1,r5
  8673e8:	3c 42 00 01 	sli r2,r2,1
  8673ec:	3c 21 00 01 	sli r1,r1,1
  8673f0:	20 42 00 ff 	andi r2,r2,0xff
  8673f4:	20 21 00 ff 	andi r1,r1,0xff
  8673f8:	98 22 18 00 	xor r3,r1,r2
  8673fc:	20 63 00 80 	andi r3,r3,0x80
  867400:	18 25 00 09 	xori r5,r1,0x9
  867404:	44 60 00 02 	be r3,r0,86740c <bd_init+0x5a8>
  867408:	b8 a0 08 00 	mv r1,r5
  86740c:	3c 42 00 01 	sli r2,r2,1
  867410:	3c 21 00 01 	sli r1,r1,1
  867414:	20 42 00 ff 	andi r2,r2,0xff
  867418:	20 21 00 ff 	andi r1,r1,0xff
  86741c:	98 22 18 00 	xor r3,r1,r2
  867420:	20 63 00 80 	andi r3,r3,0x80
  867424:	18 25 00 09 	xori r5,r1,0x9
  867428:	44 60 00 02 	be r3,r0,867430 <bd_init+0x5cc>
  86742c:	b8 a0 08 00 	mv r1,r5
  867430:	3c 42 00 01 	sli r2,r2,1
  867434:	3c 21 00 01 	sli r1,r1,1
  867438:	20 42 00 ff 	andi r2,r2,0xff
  86743c:	20 21 00 ff 	andi r1,r1,0xff
  867440:	98 22 18 00 	xor r3,r1,r2
  867444:	20 63 00 80 	andi r3,r3,0x80
  867448:	18 25 00 09 	xori r5,r1,0x9
  86744c:	44 60 00 02 	be r3,r0,867454 <bd_init+0x5f0>
  867450:	b8 a0 08 00 	mv r1,r5
  867454:	3c 42 00 01 	sli r2,r2,1
  867458:	3c 21 00 01 	sli r1,r1,1
  86745c:	20 42 00 ff 	andi r2,r2,0xff
  867460:	20 21 00 ff 	andi r1,r1,0xff
  867464:	98 22 18 00 	xor r3,r1,r2
  867468:	20 63 00 80 	andi r3,r3,0x80
  86746c:	18 25 00 09 	xori r5,r1,0x9
  867470:	44 60 00 02 	be r3,r0,867478 <bd_init+0x614>
  867474:	b8 a0 08 00 	mv r1,r5
  867478:	3c 21 00 01 	sli r1,r1,1
  86747c:	3c 42 00 01 	sli r2,r2,1
  867480:	20 21 00 ff 	andi r1,r1,0xff
  867484:	98 22 10 00 	xor r2,r1,r2
  867488:	20 42 00 80 	andi r2,r2,0x80
  86748c:	18 23 00 09 	xori r3,r1,0x9
  867490:	44 40 00 02 	be r2,r0,867498 <bd_init+0x634>
  867494:	b8 60 08 00 	mv r1,r3
  867498:	43 82 00 3e 	lbu r2,(sp+62)
  86749c:	3c 21 00 01 	sli r1,r1,1
  8674a0:	20 21 00 ff 	andi r1,r1,0xff
  8674a4:	98 22 18 00 	xor r3,r1,r2
  8674a8:	20 63 00 80 	andi r3,r3,0x80
  8674ac:	18 25 00 09 	xori r5,r1,0x9
  8674b0:	44 60 00 02 	be r3,r0,8674b8 <bd_init+0x654>
  8674b4:	b8 a0 08 00 	mv r1,r5
  8674b8:	3c 42 00 01 	sli r2,r2,1
  8674bc:	3c 21 00 01 	sli r1,r1,1
  8674c0:	20 42 00 ff 	andi r2,r2,0xff
  8674c4:	20 21 00 ff 	andi r1,r1,0xff
  8674c8:	98 22 18 00 	xor r3,r1,r2
  8674cc:	20 63 00 80 	andi r3,r3,0x80
  8674d0:	18 25 00 09 	xori r5,r1,0x9
  8674d4:	44 60 00 02 	be r3,r0,8674dc <bd_init+0x678>
  8674d8:	b8 a0 08 00 	mv r1,r5
  8674dc:	3c 42 00 01 	sli r2,r2,1
  8674e0:	3c 21 00 01 	sli r1,r1,1
  8674e4:	20 42 00 ff 	andi r2,r2,0xff
  8674e8:	20 21 00 ff 	andi r1,r1,0xff
  8674ec:	98 22 18 00 	xor r3,r1,r2
  8674f0:	20 63 00 80 	andi r3,r3,0x80
  8674f4:	18 25 00 09 	xori r5,r1,0x9
  8674f8:	44 60 00 02 	be r3,r0,867500 <bd_init+0x69c>
  8674fc:	b8 a0 08 00 	mv r1,r5
  867500:	3c 42 00 01 	sli r2,r2,1
  867504:	3c 21 00 01 	sli r1,r1,1
  867508:	20 42 00 ff 	andi r2,r2,0xff
  86750c:	20 21 00 ff 	andi r1,r1,0xff
  867510:	98 22 18 00 	xor r3,r1,r2
  867514:	20 63 00 80 	andi r3,r3,0x80
  867518:	18 25 00 09 	xori r5,r1,0x9
  86751c:	44 60 00 02 	be r3,r0,867524 <bd_init+0x6c0>
  867520:	b8 a0 08 00 	mv r1,r5
  867524:	3c 42 00 01 	sli r2,r2,1
  867528:	3c 21 00 01 	sli r1,r1,1
  86752c:	20 42 00 ff 	andi r2,r2,0xff
  867530:	20 21 00 ff 	andi r1,r1,0xff
  867534:	98 22 18 00 	xor r3,r1,r2
  867538:	20 63 00 80 	andi r3,r3,0x80
  86753c:	18 25 00 09 	xori r5,r1,0x9
  867540:	44 60 00 02 	be r3,r0,867548 <bd_init+0x6e4>
  867544:	b8 a0 08 00 	mv r1,r5
  867548:	3c 42 00 01 	sli r2,r2,1
  86754c:	3c 21 00 01 	sli r1,r1,1
  867550:	20 42 00 ff 	andi r2,r2,0xff
  867554:	20 21 00 ff 	andi r1,r1,0xff
  867558:	98 22 18 00 	xor r3,r1,r2
  86755c:	20 63 00 80 	andi r3,r3,0x80
  867560:	18 25 00 09 	xori r5,r1,0x9
  867564:	44 60 00 02 	be r3,r0,86756c <bd_init+0x708>
  867568:	b8 a0 08 00 	mv r1,r5
  86756c:	3c 42 00 01 	sli r2,r2,1
  867570:	3c 21 00 01 	sli r1,r1,1
  867574:	20 42 00 ff 	andi r2,r2,0xff
  867578:	20 21 00 ff 	andi r1,r1,0xff
  86757c:	98 22 18 00 	xor r3,r1,r2
  867580:	20 63 00 80 	andi r3,r3,0x80
  867584:	18 25 00 09 	xori r5,r1,0x9
  867588:	44 60 00 02 	be r3,r0,867590 <bd_init+0x72c>
  86758c:	b8 a0 08 00 	mv r1,r5
  867590:	3c 21 00 01 	sli r1,r1,1
  867594:	3c 42 00 01 	sli r2,r2,1
  867598:	20 21 00 ff 	andi r1,r1,0xff
  86759c:	98 22 10 00 	xor r2,r1,r2
  8675a0:	20 42 00 80 	andi r2,r2,0x80
  8675a4:	18 23 00 09 	xori r3,r1,0x9
  8675a8:	44 40 00 02 	be r2,r0,8675b0 <bd_init+0x74c>
  8675ac:	b8 60 08 00 	mv r1,r3
  8675b0:	43 82 00 3f 	lbu r2,(sp+63)
  8675b4:	3c 21 00 01 	sli r1,r1,1
  8675b8:	20 21 00 ff 	andi r1,r1,0xff
  8675bc:	98 22 18 00 	xor r3,r1,r2
  8675c0:	20 63 00 80 	andi r3,r3,0x80
  8675c4:	18 25 00 09 	xori r5,r1,0x9
  8675c8:	44 60 00 02 	be r3,r0,8675d0 <bd_init+0x76c>
  8675cc:	b8 a0 08 00 	mv r1,r5
  8675d0:	3c 42 00 01 	sli r2,r2,1
  8675d4:	3c 21 00 01 	sli r1,r1,1
  8675d8:	20 42 00 ff 	andi r2,r2,0xff
  8675dc:	20 21 00 ff 	andi r1,r1,0xff
  8675e0:	98 22 18 00 	xor r3,r1,r2
  8675e4:	20 63 00 80 	andi r3,r3,0x80
  8675e8:	18 25 00 09 	xori r5,r1,0x9
  8675ec:	44 60 00 02 	be r3,r0,8675f4 <bd_init+0x790>
  8675f0:	b8 a0 08 00 	mv r1,r5
  8675f4:	3c 42 00 01 	sli r2,r2,1
  8675f8:	3c 21 00 01 	sli r1,r1,1
  8675fc:	20 42 00 ff 	andi r2,r2,0xff
  867600:	20 21 00 ff 	andi r1,r1,0xff
  867604:	98 22 18 00 	xor r3,r1,r2
  867608:	20 63 00 80 	andi r3,r3,0x80
  86760c:	18 25 00 09 	xori r5,r1,0x9
  867610:	44 60 00 02 	be r3,r0,867618 <bd_init+0x7b4>
  867614:	b8 a0 08 00 	mv r1,r5
  867618:	3c 42 00 01 	sli r2,r2,1
  86761c:	3c 21 00 01 	sli r1,r1,1
  867620:	20 42 00 ff 	andi r2,r2,0xff
  867624:	20 21 00 ff 	andi r1,r1,0xff
  867628:	98 22 18 00 	xor r3,r1,r2
  86762c:	20 63 00 80 	andi r3,r3,0x80
  867630:	18 25 00 09 	xori r5,r1,0x9
  867634:	44 60 00 02 	be r3,r0,86763c <bd_init+0x7d8>
  867638:	b8 a0 08 00 	mv r1,r5
  86763c:	3c 42 00 01 	sli r2,r2,1
  867640:	3c 21 00 01 	sli r1,r1,1
  867644:	20 42 00 ff 	andi r2,r2,0xff
  867648:	20 21 00 ff 	andi r1,r1,0xff
  86764c:	98 22 18 00 	xor r3,r1,r2
  867650:	20 63 00 80 	andi r3,r3,0x80
  867654:	18 25 00 09 	xori r5,r1,0x9
  867658:	44 60 00 02 	be r3,r0,867660 <bd_init+0x7fc>
  86765c:	b8 a0 08 00 	mv r1,r5
  867660:	3c 42 00 01 	sli r2,r2,1
  867664:	3c 21 00 01 	sli r1,r1,1
  867668:	20 42 00 ff 	andi r2,r2,0xff
  86766c:	20 21 00 ff 	andi r1,r1,0xff
  867670:	98 22 18 00 	xor r3,r1,r2
  867674:	20 63 00 80 	andi r3,r3,0x80
  867678:	18 25 00 09 	xori r5,r1,0x9
  86767c:	44 60 00 02 	be r3,r0,867684 <bd_init+0x820>
  867680:	b8 a0 08 00 	mv r1,r5
  867684:	3c 42 00 01 	sli r2,r2,1
  867688:	3c 21 00 01 	sli r1,r1,1
  86768c:	20 42 00 ff 	andi r2,r2,0xff
  867690:	20 21 00 ff 	andi r1,r1,0xff
  867694:	98 22 18 00 	xor r3,r1,r2
  867698:	20 63 00 80 	andi r3,r3,0x80
  86769c:	18 25 00 09 	xori r5,r1,0x9
  8676a0:	44 60 00 02 	be r3,r0,8676a8 <bd_init+0x844>
  8676a4:	b8 a0 08 00 	mv r1,r5
  8676a8:	3c 21 00 01 	sli r1,r1,1
  8676ac:	3c 42 00 01 	sli r2,r2,1
  8676b0:	20 21 00 ff 	andi r1,r1,0xff
  8676b4:	98 22 10 00 	xor r2,r1,r2
  8676b8:	20 42 00 80 	andi r2,r2,0x80
  8676bc:	18 23 00 09 	xori r3,r1,0x9
  8676c0:	44 40 00 02 	be r2,r0,8676c8 <bd_init+0x864>
  8676c4:	b8 60 08 00 	mv r1,r3
  8676c8:	3c 21 00 01 	sli r1,r1,1
  8676cc:	20 21 00 ff 	andi r1,r1,0xff
  8676d0:	18 22 00 aa 	xori r2,r1,0xaa
  8676d4:	20 42 00 80 	andi r2,r2,0x80
  8676d8:	18 23 00 09 	xori r3,r1,0x9
  8676dc:	44 40 00 02 	be r2,r0,8676e4 <bd_init+0x880>
  8676e0:	b8 60 08 00 	mv r1,r3
  8676e4:	3c 21 00 01 	sli r1,r1,1
  8676e8:	20 21 00 ff 	andi r1,r1,0xff
  8676ec:	20 22 00 80 	andi r2,r1,0x80
  8676f0:	18 23 00 09 	xori r3,r1,0x9
  8676f4:	44 40 00 02 	be r2,r0,8676fc <bd_init+0x898>
  8676f8:	b8 60 08 00 	mv r1,r3
  8676fc:	3c 21 00 01 	sli r1,r1,1
  867700:	20 21 00 ff 	andi r1,r1,0xff
  867704:	18 22 00 a8 	xori r2,r1,0xa8
  867708:	20 42 00 80 	andi r2,r2,0x80
  86770c:	18 23 00 09 	xori r3,r1,0x9
  867710:	44 40 00 02 	be r2,r0,867718 <bd_init+0x8b4>
  867714:	b8 60 08 00 	mv r1,r3
  867718:	3c 21 00 01 	sli r1,r1,1
  86771c:	20 21 00 ff 	andi r1,r1,0xff
  867720:	20 22 00 80 	andi r2,r1,0x80
  867724:	18 23 00 09 	xori r3,r1,0x9
  867728:	44 40 00 02 	be r2,r0,867730 <bd_init+0x8cc>
  86772c:	b8 60 08 00 	mv r1,r3
  867730:	3c 21 00 01 	sli r1,r1,1
  867734:	20 21 00 ff 	andi r1,r1,0xff
  867738:	18 22 00 a0 	xori r2,r1,0xa0
  86773c:	20 42 00 80 	andi r2,r2,0x80
  867740:	18 23 00 09 	xori r3,r1,0x9
  867744:	44 40 00 02 	be r2,r0,86774c <bd_init+0x8e8>
  867748:	b8 60 08 00 	mv r1,r3
  86774c:	3c 21 00 01 	sli r1,r1,1
  867750:	20 21 00 ff 	andi r1,r1,0xff
  867754:	20 22 00 80 	andi r2,r1,0x80
  867758:	18 23 00 09 	xori r3,r1,0x9
  86775c:	44 40 00 02 	be r2,r0,867764 <bd_init+0x900>
  867760:	b8 60 08 00 	mv r1,r3
  867764:	3c 21 00 01 	sli r1,r1,1
  867768:	20 21 00 ff 	andi r1,r1,0xff
  86776c:	18 22 00 80 	xori r2,r1,0x80
  867770:	20 42 00 80 	andi r2,r2,0x80
  867774:	18 23 00 09 	xori r3,r1,0x9
  867778:	44 40 00 02 	be r2,r0,867780 <bd_init+0x91c>
  86777c:	b8 60 08 00 	mv r1,r3
  867780:	3c 21 00 01 	sli r1,r1,1
  867784:	20 21 00 ff 	andi r1,r1,0xff
  867788:	20 22 00 80 	andi r2,r1,0x80
  86778c:	18 23 00 09 	xori r3,r1,0x9
  867790:	44 40 00 02 	be r2,r0,867798 <bd_init+0x934>
  867794:	b8 60 08 00 	mv r1,r3
  867798:	20 21 00 ff 	andi r1,r1,0xff
  86779c:	78 0a 00 86 	mvhi r10,0x86
  8677a0:	78 0c 00 86 	mvhi r12,0x86
  8677a4:	3c 21 00 01 	sli r1,r1,1
  8677a8:	39 4a f0 70 	ori r10,r10,0xf070
  8677ac:	39 8c f0 74 	ori r12,r12,0xf074
  8677b0:	29 46 00 00 	lw r6,(r10+0)
  8677b4:	29 82 00 00 	lw r2,(r12+0)
  8677b8:	38 21 00 01 	ori r1,r1,0x1
  8677bc:	33 81 00 41 	sb (sp+65),r1
  8677c0:	b9 60 18 00 	mv r3,r11
  8677c4:	40 61 00 00 	lbu r1,(r3+0)
  8677c8:	58 c1 00 00 	sw (r6+0),r1
  8677cc:	28 41 00 00 	lw r1,(r2+0)
  8677d0:	78 0d 00 86 	mvhi r13,0x86
  8677d4:	39 ad f0 74 	ori r13,r13,0xf074
  8677d8:	20 21 00 01 	andi r1,r1,0x1
  8677dc:	29 a5 00 00 	lw r5,(r13+0)
  8677e0:	5c 20 ff fb 	bne r1,r0,8677cc <bd_init+0x968>
  8677e4:	34 63 00 01 	addi r3,r3,1
  8677e8:	5c 83 ff f7 	bne r4,r3,8677c4 <bd_init+0x960>
  8677ec:	78 06 00 86 	mvhi r6,0x86
  8677f0:	38 c6 f0 78 	ori r6,r6,0xf078
  8677f4:	28 c2 00 00 	lw r2,(r6+0)
  8677f8:	34 01 00 02 	mvi r1,2
  8677fc:	78 07 00 86 	mvhi r7,0x86
  867800:	58 a1 00 00 	sw (r5+0),r1
  867804:	38 e7 f0 6c 	ori r7,r7,0xf06c
  867808:	34 03 00 01 	mvi r3,1
  86780c:	78 0c 00 86 	mvhi r12,0x86
  867810:	58 43 00 00 	sw (r2+0),r3
  867814:	39 8c f0 70 	ori r12,r12,0xf070
  867818:	28 e2 00 00 	lw r2,(r7+0)
  86781c:	29 8a 00 00 	lw r10,(r12+0)
  867820:	37 89 00 28 	addi r9,sp,40
  867824:	58 41 00 00 	sw (r2+0),r1
  867828:	37 88 00 2e 	addi r8,sp,46
  86782c:	b9 20 30 00 	mv r6,r9
  867830:	34 07 00 02 	mvi r7,2
  867834:	78 0d 00 86 	mvhi r13,0x86
  867838:	39 ad e5 8c 	ori r13,r13,0xe58c
  86783c:	29 a1 00 00 	lw r1,(r13+0)
  867840:	e0 00 00 02 	bi 867848 <bd_init+0x9e4>
  867844:	44 22 00 7b 	be r1,r2,867a30 <bd_init+0xbcc>
  867848:	28 a2 00 00 	lw r2,(r5+0)
  86784c:	78 0c 00 86 	mvhi r12,0x86
  867850:	39 8c f0 74 	ori r12,r12,0xf074
  867854:	20 42 00 02 	andi r2,r2,0x2
  867858:	34 21 ff ff 	addi r1,r1,-1
  86785c:	29 83 00 00 	lw r3,(r12+0)
  867860:	44 40 ff f9 	be r2,r0,867844 <bd_init+0x9e0>
  867864:	29 41 00 00 	lw r1,(r10+0)
  867868:	30 c1 00 00 	sb (r6+0),r1
  86786c:	58 67 00 00 	sw (r3+0),r7
  867870:	34 c6 00 01 	addi r6,r6,1
  867874:	5c c8 ff f0 	bne r6,r8,867834 <bd_init+0x9d0>
  867878:	28 61 00 00 	lw r1,(r3+0)
  86787c:	20 21 00 02 	andi r1,r1,0x2
  867880:	44 20 ff fe 	be r1,r0,867878 <bd_init+0xa14>
  867884:	78 0d 00 86 	mvhi r13,0x86
  867888:	78 01 00 86 	mvhi r1,0x86
  86788c:	78 02 00 86 	mvhi r2,0x86
  867890:	78 03 00 86 	mvhi r3,0x86
  867894:	39 ad f0 6c 	ori r13,r13,0xf06c
  867898:	38 21 f0 70 	ori r1,r1,0xf070
  86789c:	38 42 f0 74 	ori r2,r2,0xf074
  8678a0:	38 63 f0 78 	ori r3,r3,0xf078
  8678a4:	29 aa 00 00 	lw r10,(r13+0)
  8678a8:	28 25 00 00 	lw r5,(r1+0)
  8678ac:	28 6d 00 00 	lw r13,(r3+0)
  8678b0:	28 41 00 00 	lw r1,(r2+0)
  8678b4:	34 0c 00 01 	mvi r12,1
  8678b8:	34 10 00 01 	mvi r16,1
  8678bc:	34 0f 00 77 	mvi r15,119
  8678c0:	34 0e 00 65 	mvi r14,101
  8678c4:	34 07 00 02 	mvi r7,2
  8678c8:	34 13 00 69 	mvi r19,105
  8678cc:	34 12 00 30 	mvi r18,48
  8678d0:	34 11 00 39 	mvi r17,57
  8678d4:	59 50 00 00 	sw (r10+0),r16
  8678d8:	33 8f 00 3c 	sb (sp+60),r15
  8678dc:	33 80 00 3d 	sb (sp+61),r0
  8678e0:	33 80 00 3e 	sb (sp+62),r0
  8678e4:	33 80 00 3f 	sb (sp+63),r0
  8678e8:	33 80 00 40 	sb (sp+64),r0
  8678ec:	33 8e 00 41 	sb (sp+65),r14
  8678f0:	b9 60 18 00 	mv r3,r11
  8678f4:	40 62 00 00 	lbu r2,(r3+0)
  8678f8:	58 a2 00 00 	sw (r5+0),r2
  8678fc:	28 22 00 00 	lw r2,(r1+0)
  867900:	20 42 00 01 	andi r2,r2,0x1
  867904:	5c 40 ff fe 	bne r2,r0,8678fc <bd_init+0xa98>
  867908:	34 63 00 01 	addi r3,r3,1
  86790c:	5c 83 ff fa 	bne r4,r3,8678f4 <bd_init+0xa90>
  867910:	78 06 00 86 	mvhi r6,0x86
  867914:	38 c6 f0 74 	ori r6,r6,0xf074
  867918:	28 c2 00 00 	lw r2,(r6+0)
  86791c:	b9 20 30 00 	mv r6,r9
  867920:	58 47 00 00 	sw (r2+0),r7
  867924:	59 ac 00 00 	sw (r13+0),r12
  867928:	59 47 00 00 	sw (r10+0),r7
  86792c:	78 03 00 86 	mvhi r3,0x86
  867930:	38 63 e5 8c 	ori r3,r3,0xe58c
  867934:	28 62 00 00 	lw r2,(r3+0)
  867938:	e0 00 00 02 	bi 867940 <bd_init+0xadc>
  86793c:	44 43 00 3d 	be r2,r3,867a30 <bd_init+0xbcc>
  867940:	28 23 00 00 	lw r3,(r1+0)
  867944:	34 42 ff ff 	addi r2,r2,-1
  867948:	20 63 00 02 	andi r3,r3,0x2
  86794c:	44 60 ff fc 	be r3,r0,86793c <bd_init+0xad8>
  867950:	28 a2 00 00 	lw r2,(r5+0)
  867954:	78 03 00 86 	mvhi r3,0x86
  867958:	38 63 f0 74 	ori r3,r3,0xf074
  86795c:	30 c2 00 00 	sb (r6+0),r2
  867960:	28 62 00 00 	lw r2,(r3+0)
  867964:	34 c6 00 01 	addi r6,r6,1
  867968:	58 47 00 00 	sw (r2+0),r7
  86796c:	5c c8 ff f0 	bne r6,r8,86792c <bd_init+0xac8>
  867970:	28 22 00 00 	lw r2,(r1+0)
  867974:	20 42 00 02 	andi r2,r2,0x2
  867978:	44 40 ff fe 	be r2,r0,867970 <bd_init+0xb0c>
  86797c:	59 4c 00 00 	sw (r10+0),r12
  867980:	33 93 00 3c 	sb (sp+60),r19
  867984:	33 80 00 3d 	sb (sp+61),r0
  867988:	33 92 00 3e 	sb (sp+62),r18
  86798c:	33 80 00 3f 	sb (sp+63),r0
  867990:	33 80 00 40 	sb (sp+64),r0
  867994:	33 91 00 41 	sb (sp+65),r17
  867998:	b9 60 18 00 	mv r3,r11
  86799c:	40 62 00 00 	lbu r2,(r3+0)
  8679a0:	58 a2 00 00 	sw (r5+0),r2
  8679a4:	28 22 00 00 	lw r2,(r1+0)
  8679a8:	20 42 00 01 	andi r2,r2,0x1
  8679ac:	5c 40 ff fe 	bne r2,r0,8679a4 <bd_init+0xb40>
  8679b0:	34 63 00 01 	addi r3,r3,1
  8679b4:	5c 83 ff fa 	bne r4,r3,86799c <bd_init+0xb38>
  8679b8:	78 06 00 86 	mvhi r6,0x86
  8679bc:	38 c6 f0 74 	ori r6,r6,0xf074
  8679c0:	28 c2 00 00 	lw r2,(r6+0)
  8679c4:	b9 20 30 00 	mv r6,r9
  8679c8:	58 47 00 00 	sw (r2+0),r7
  8679cc:	59 ac 00 00 	sw (r13+0),r12
  8679d0:	59 47 00 00 	sw (r10+0),r7
  8679d4:	78 03 00 86 	mvhi r3,0x86
  8679d8:	38 63 e5 8c 	ori r3,r3,0xe58c
  8679dc:	28 62 00 00 	lw r2,(r3+0)
  8679e0:	e0 00 00 02 	bi 8679e8 <bd_init+0xb84>
  8679e4:	44 43 00 13 	be r2,r3,867a30 <bd_init+0xbcc>
  8679e8:	28 23 00 00 	lw r3,(r1+0)
  8679ec:	34 42 ff ff 	addi r2,r2,-1
  8679f0:	20 63 00 02 	andi r3,r3,0x2
  8679f4:	44 60 ff fc 	be r3,r0,8679e4 <bd_init+0xb80>
  8679f8:	28 a2 00 00 	lw r2,(r5+0)
  8679fc:	78 03 00 86 	mvhi r3,0x86
  867a00:	38 63 f0 74 	ori r3,r3,0xf074
  867a04:	30 c2 00 00 	sb (r6+0),r2
  867a08:	28 62 00 00 	lw r2,(r3+0)
  867a0c:	34 c6 00 01 	addi r6,r6,1
  867a10:	58 47 00 00 	sw (r2+0),r7
  867a14:	5c c8 ff f0 	bne r6,r8,8679d4 <bd_init+0xb70>
  867a18:	28 22 00 00 	lw r2,(r1+0)
  867a1c:	20 42 00 02 	andi r2,r2,0x2
  867a20:	44 40 ff fe 	be r2,r0,867a18 <bd_init+0xbb4>
  867a24:	13 82 00 29 	lb r2,(sp+41)
  867a28:	48 02 00 0e 	bg r0,r2,867a60 <bd_init+0xbfc>
  867a2c:	e3 ff ff aa 	bi 8678d4 <bd_init+0xa70>
  867a30:	34 01 00 00 	mvi r1,0
  867a34:	2b 8b 00 24 	lw r11,(sp+36)
  867a38:	2b 8c 00 20 	lw r12,(sp+32)
  867a3c:	2b 8d 00 1c 	lw r13,(sp+28)
  867a40:	2b 8e 00 18 	lw r14,(sp+24)
  867a44:	2b 8f 00 14 	lw r15,(sp+20)
  867a48:	2b 90 00 10 	lw r16,(sp+16)
  867a4c:	2b 91 00 0c 	lw r17,(sp+12)
  867a50:	2b 92 00 08 	lw r18,(sp+8)
  867a54:	2b 93 00 04 	lw r19,(sp+4)
  867a58:	37 9c 00 40 	addi sp,sp,64
  867a5c:	c3 a0 00 00 	ret
  867a60:	78 05 00 86 	mvhi r5,0x86
  867a64:	38 a5 f0 6c 	ori r5,r5,0xf06c
  867a68:	28 a2 00 00 	lw r2,(r5+0)
  867a6c:	34 01 00 32 	mvi r1,50
  867a70:	34 03 00 01 	mvi r3,1
  867a74:	38 21 00 09 	ori r1,r1,0x9
  867a78:	58 43 00 00 	sw (r2+0),r3
  867a7c:	3c 21 00 01 	sli r1,r1,1
  867a80:	33 80 00 3d 	sb (sp+61),r0
  867a84:	43 82 00 3d 	lbu r2,(sp+61)
  867a88:	3c 21 00 01 	sli r1,r1,1
  867a8c:	34 03 00 42 	mvi r3,66
  867a90:	20 21 00 ff 	andi r1,r1,0xff
  867a94:	98 22 28 00 	xor r5,r1,r2
  867a98:	33 83 00 3c 	sb (sp+60),r3
  867a9c:	33 80 00 3e 	sb (sp+62),r0
  867aa0:	33 80 00 3f 	sb (sp+63),r0
  867aa4:	33 80 00 40 	sb (sp+64),r0
  867aa8:	20 a5 00 80 	andi r5,r5,0x80
  867aac:	18 23 00 09 	xori r3,r1,0x9
  867ab0:	44 a0 00 02 	be r5,r0,867ab8 <bd_init+0xc54>
  867ab4:	b8 60 08 00 	mv r1,r3
  867ab8:	3c 42 00 01 	sli r2,r2,1
  867abc:	3c 21 00 01 	sli r1,r1,1
  867ac0:	20 42 00 ff 	andi r2,r2,0xff
  867ac4:	20 21 00 ff 	andi r1,r1,0xff
  867ac8:	98 22 28 00 	xor r5,r1,r2
  867acc:	20 a5 00 80 	andi r5,r5,0x80
  867ad0:	18 23 00 09 	xori r3,r1,0x9
  867ad4:	44 a0 00 02 	be r5,r0,867adc <bd_init+0xc78>
  867ad8:	b8 60 08 00 	mv r1,r3
  867adc:	3c 42 00 01 	sli r2,r2,1
  867ae0:	3c 21 00 01 	sli r1,r1,1
  867ae4:	20 42 00 ff 	andi r2,r2,0xff
  867ae8:	20 21 00 ff 	andi r1,r1,0xff
  867aec:	98 22 28 00 	xor r5,r1,r2
  867af0:	20 a5 00 80 	andi r5,r5,0x80
  867af4:	18 23 00 09 	xori r3,r1,0x9
  867af8:	44 a0 00 02 	be r5,r0,867b00 <bd_init+0xc9c>
  867afc:	b8 60 08 00 	mv r1,r3
  867b00:	3c 42 00 01 	sli r2,r2,1
  867b04:	3c 21 00 01 	sli r1,r1,1
  867b08:	20 42 00 ff 	andi r2,r2,0xff
  867b0c:	20 21 00 ff 	andi r1,r1,0xff
  867b10:	98 22 28 00 	xor r5,r1,r2
  867b14:	20 a5 00 80 	andi r5,r5,0x80
  867b18:	18 23 00 09 	xori r3,r1,0x9
  867b1c:	44 a0 00 02 	be r5,r0,867b24 <bd_init+0xcc0>
  867b20:	b8 60 08 00 	mv r1,r3
  867b24:	3c 42 00 01 	sli r2,r2,1
  867b28:	3c 21 00 01 	sli r1,r1,1
  867b2c:	20 42 00 ff 	andi r2,r2,0xff
  867b30:	20 21 00 ff 	andi r1,r1,0xff
  867b34:	98 22 28 00 	xor r5,r1,r2
  867b38:	20 a5 00 80 	andi r5,r5,0x80
  867b3c:	18 23 00 09 	xori r3,r1,0x9
  867b40:	44 a0 00 02 	be r5,r0,867b48 <bd_init+0xce4>
  867b44:	b8 60 08 00 	mv r1,r3
  867b48:	3c 42 00 01 	sli r2,r2,1
  867b4c:	3c 21 00 01 	sli r1,r1,1
  867b50:	20 42 00 ff 	andi r2,r2,0xff
  867b54:	20 21 00 ff 	andi r1,r1,0xff
  867b58:	98 22 28 00 	xor r5,r1,r2
  867b5c:	20 a5 00 80 	andi r5,r5,0x80
  867b60:	18 23 00 09 	xori r3,r1,0x9
  867b64:	44 a0 00 02 	be r5,r0,867b6c <bd_init+0xd08>
  867b68:	b8 60 08 00 	mv r1,r3
  867b6c:	3c 42 00 01 	sli r2,r2,1
  867b70:	3c 21 00 01 	sli r1,r1,1
  867b74:	20 42 00 ff 	andi r2,r2,0xff
  867b78:	20 21 00 ff 	andi r1,r1,0xff
  867b7c:	98 22 28 00 	xor r5,r1,r2
  867b80:	20 a5 00 80 	andi r5,r5,0x80
  867b84:	18 23 00 09 	xori r3,r1,0x9
  867b88:	44 a0 00 02 	be r5,r0,867b90 <bd_init+0xd2c>
  867b8c:	b8 60 08 00 	mv r1,r3
  867b90:	3c 21 00 01 	sli r1,r1,1
  867b94:	3c 42 00 01 	sli r2,r2,1
  867b98:	20 21 00 ff 	andi r1,r1,0xff
  867b9c:	98 22 18 00 	xor r3,r1,r2
  867ba0:	20 63 00 80 	andi r3,r3,0x80
  867ba4:	18 22 00 09 	xori r2,r1,0x9
  867ba8:	44 60 00 02 	be r3,r0,867bb0 <bd_init+0xd4c>
  867bac:	b8 40 08 00 	mv r1,r2
  867bb0:	43 82 00 3e 	lbu r2,(sp+62)
  867bb4:	3c 21 00 01 	sli r1,r1,1
  867bb8:	20 21 00 ff 	andi r1,r1,0xff
  867bbc:	98 22 28 00 	xor r5,r1,r2
  867bc0:	20 a5 00 80 	andi r5,r5,0x80
  867bc4:	18 23 00 09 	xori r3,r1,0x9
  867bc8:	44 a0 00 02 	be r5,r0,867bd0 <bd_init+0xd6c>
  867bcc:	b8 60 08 00 	mv r1,r3
  867bd0:	3c 42 00 01 	sli r2,r2,1
  867bd4:	3c 21 00 01 	sli r1,r1,1
  867bd8:	20 42 00 ff 	andi r2,r2,0xff
  867bdc:	20 21 00 ff 	andi r1,r1,0xff
  867be0:	98 22 28 00 	xor r5,r1,r2
  867be4:	20 a5 00 80 	andi r5,r5,0x80
  867be8:	18 23 00 09 	xori r3,r1,0x9
  867bec:	44 a0 00 02 	be r5,r0,867bf4 <bd_init+0xd90>
  867bf0:	b8 60 08 00 	mv r1,r3
  867bf4:	3c 42 00 01 	sli r2,r2,1
  867bf8:	3c 21 00 01 	sli r1,r1,1
  867bfc:	20 42 00 ff 	andi r2,r2,0xff
  867c00:	20 21 00 ff 	andi r1,r1,0xff
  867c04:	98 22 28 00 	xor r5,r1,r2
  867c08:	20 a5 00 80 	andi r5,r5,0x80
  867c0c:	18 23 00 09 	xori r3,r1,0x9
  867c10:	44 a0 00 02 	be r5,r0,867c18 <bd_init+0xdb4>
  867c14:	b8 60 08 00 	mv r1,r3
  867c18:	3c 42 00 01 	sli r2,r2,1
  867c1c:	3c 21 00 01 	sli r1,r1,1
  867c20:	20 42 00 ff 	andi r2,r2,0xff
  867c24:	20 21 00 ff 	andi r1,r1,0xff
  867c28:	98 22 28 00 	xor r5,r1,r2
  867c2c:	20 a5 00 80 	andi r5,r5,0x80
  867c30:	18 23 00 09 	xori r3,r1,0x9
  867c34:	44 a0 00 02 	be r5,r0,867c3c <bd_init+0xdd8>
  867c38:	b8 60 08 00 	mv r1,r3
  867c3c:	3c 42 00 01 	sli r2,r2,1
  867c40:	3c 21 00 01 	sli r1,r1,1
  867c44:	20 42 00 ff 	andi r2,r2,0xff
  867c48:	20 21 00 ff 	andi r1,r1,0xff
  867c4c:	98 22 28 00 	xor r5,r1,r2
  867c50:	20 a5 00 80 	andi r5,r5,0x80
  867c54:	18 23 00 09 	xori r3,r1,0x9
  867c58:	44 a0 00 02 	be r5,r0,867c60 <bd_init+0xdfc>
  867c5c:	b8 60 08 00 	mv r1,r3
  867c60:	3c 42 00 01 	sli r2,r2,1
  867c64:	3c 21 00 01 	sli r1,r1,1
  867c68:	20 42 00 ff 	andi r2,r2,0xff
  867c6c:	20 21 00 ff 	andi r1,r1,0xff
  867c70:	98 22 28 00 	xor r5,r1,r2
  867c74:	20 a5 00 80 	andi r5,r5,0x80
  867c78:	18 23 00 09 	xori r3,r1,0x9
  867c7c:	44 a0 00 02 	be r5,r0,867c84 <bd_init+0xe20>
  867c80:	b8 60 08 00 	mv r1,r3
  867c84:	3c 42 00 01 	sli r2,r2,1
  867c88:	3c 21 00 01 	sli r1,r1,1
  867c8c:	20 42 00 ff 	andi r2,r2,0xff
  867c90:	20 21 00 ff 	andi r1,r1,0xff
  867c94:	98 22 28 00 	xor r5,r1,r2
  867c98:	20 a5 00 80 	andi r5,r5,0x80
  867c9c:	18 23 00 09 	xori r3,r1,0x9
  867ca0:	44 a0 00 02 	be r5,r0,867ca8 <bd_init+0xe44>
  867ca4:	b8 60 08 00 	mv r1,r3
  867ca8:	3c 21 00 01 	sli r1,r1,1
  867cac:	3c 42 00 01 	sli r2,r2,1
  867cb0:	20 21 00 ff 	andi r1,r1,0xff
  867cb4:	98 22 18 00 	xor r3,r1,r2
  867cb8:	20 63 00 80 	andi r3,r3,0x80
  867cbc:	18 22 00 09 	xori r2,r1,0x9
  867cc0:	44 60 00 02 	be r3,r0,867cc8 <bd_init+0xe64>
  867cc4:	b8 40 08 00 	mv r1,r2
  867cc8:	43 82 00 3f 	lbu r2,(sp+63)
  867ccc:	3c 21 00 01 	sli r1,r1,1
  867cd0:	20 21 00 ff 	andi r1,r1,0xff
  867cd4:	98 22 28 00 	xor r5,r1,r2
  867cd8:	20 a5 00 80 	andi r5,r5,0x80
  867cdc:	18 23 00 09 	xori r3,r1,0x9
  867ce0:	44 a0 00 02 	be r5,r0,867ce8 <bd_init+0xe84>
  867ce4:	b8 60 08 00 	mv r1,r3
  867ce8:	3c 42 00 01 	sli r2,r2,1
  867cec:	3c 21 00 01 	sli r1,r1,1
  867cf0:	20 42 00 ff 	andi r2,r2,0xff
  867cf4:	20 21 00 ff 	andi r1,r1,0xff
  867cf8:	98 22 28 00 	xor r5,r1,r2
  867cfc:	20 a5 00 80 	andi r5,r5,0x80
  867d00:	18 23 00 09 	xori r3,r1,0x9
  867d04:	44 a0 00 02 	be r5,r0,867d0c <bd_init+0xea8>
  867d08:	b8 60 08 00 	mv r1,r3
  867d0c:	3c 42 00 01 	sli r2,r2,1
  867d10:	3c 21 00 01 	sli r1,r1,1
  867d14:	20 42 00 ff 	andi r2,r2,0xff
  867d18:	20 21 00 ff 	andi r1,r1,0xff
  867d1c:	98 22 28 00 	xor r5,r1,r2
  867d20:	20 a5 00 80 	andi r5,r5,0x80
  867d24:	18 23 00 09 	xori r3,r1,0x9
  867d28:	44 a0 00 02 	be r5,r0,867d30 <bd_init+0xecc>
  867d2c:	b8 60 08 00 	mv r1,r3
  867d30:	3c 42 00 01 	sli r2,r2,1
  867d34:	3c 21 00 01 	sli r1,r1,1
  867d38:	20 42 00 ff 	andi r2,r2,0xff
  867d3c:	20 21 00 ff 	andi r1,r1,0xff
  867d40:	98 22 28 00 	xor r5,r1,r2
  867d44:	20 a5 00 80 	andi r5,r5,0x80
  867d48:	18 23 00 09 	xori r3,r1,0x9
  867d4c:	44 a0 00 02 	be r5,r0,867d54 <bd_init+0xef0>
  867d50:	b8 60 08 00 	mv r1,r3
  867d54:	3c 42 00 01 	sli r2,r2,1
  867d58:	3c 21 00 01 	sli r1,r1,1
  867d5c:	20 42 00 ff 	andi r2,r2,0xff
  867d60:	20 21 00 ff 	andi r1,r1,0xff
  867d64:	98 22 28 00 	xor r5,r1,r2
  867d68:	20 a5 00 80 	andi r5,r5,0x80
  867d6c:	18 23 00 09 	xori r3,r1,0x9
  867d70:	44 a0 00 02 	be r5,r0,867d78 <bd_init+0xf14>
  867d74:	b8 60 08 00 	mv r1,r3
  867d78:	3c 42 00 01 	sli r2,r2,1
  867d7c:	3c 21 00 01 	sli r1,r1,1
  867d80:	20 42 00 ff 	andi r2,r2,0xff
  867d84:	20 21 00 ff 	andi r1,r1,0xff
  867d88:	98 22 28 00 	xor r5,r1,r2
  867d8c:	20 a5 00 80 	andi r5,r5,0x80
  867d90:	18 23 00 09 	xori r3,r1,0x9
  867d94:	44 a0 00 02 	be r5,r0,867d9c <bd_init+0xf38>
  867d98:	b8 60 08 00 	mv r1,r3
  867d9c:	3c 42 00 01 	sli r2,r2,1
  867da0:	3c 21 00 01 	sli r1,r1,1
  867da4:	20 42 00 ff 	andi r2,r2,0xff
  867da8:	20 21 00 ff 	andi r1,r1,0xff
  867dac:	98 22 28 00 	xor r5,r1,r2
  867db0:	20 a5 00 80 	andi r5,r5,0x80
  867db4:	18 23 00 09 	xori r3,r1,0x9
  867db8:	44 a0 00 02 	be r5,r0,867dc0 <bd_init+0xf5c>
  867dbc:	b8 60 08 00 	mv r1,r3
  867dc0:	3c 21 00 01 	sli r1,r1,1
  867dc4:	3c 42 00 01 	sli r2,r2,1
  867dc8:	20 21 00 ff 	andi r1,r1,0xff
  867dcc:	98 22 18 00 	xor r3,r1,r2
  867dd0:	20 63 00 80 	andi r3,r3,0x80
  867dd4:	18 22 00 09 	xori r2,r1,0x9
  867dd8:	44 60 00 02 	be r3,r0,867de0 <bd_init+0xf7c>
  867ddc:	b8 40 08 00 	mv r1,r2
  867de0:	3c 21 00 01 	sli r1,r1,1
  867de4:	20 21 00 ff 	andi r1,r1,0xff
  867de8:	20 23 00 80 	andi r3,r1,0x80
  867dec:	18 22 00 09 	xori r2,r1,0x9
  867df0:	44 60 00 02 	be r3,r0,867df8 <bd_init+0xf94>
  867df4:	b8 40 08 00 	mv r1,r2
  867df8:	3c 21 00 01 	sli r1,r1,1
  867dfc:	20 21 00 ff 	andi r1,r1,0xff
  867e00:	20 23 00 80 	andi r3,r1,0x80
  867e04:	18 22 00 09 	xori r2,r1,0x9
  867e08:	44 60 00 02 	be r3,r0,867e10 <bd_init+0xfac>
  867e0c:	b8 40 08 00 	mv r1,r2
  867e10:	3c 21 00 01 	sli r1,r1,1
  867e14:	20 21 00 ff 	andi r1,r1,0xff
  867e18:	20 23 00 80 	andi r3,r1,0x80
  867e1c:	18 22 00 09 	xori r2,r1,0x9
  867e20:	44 60 00 02 	be r3,r0,867e28 <bd_init+0xfc4>
  867e24:	b8 40 08 00 	mv r1,r2
  867e28:	3c 21 00 01 	sli r1,r1,1
  867e2c:	20 21 00 ff 	andi r1,r1,0xff
  867e30:	20 23 00 80 	andi r3,r1,0x80
  867e34:	18 22 00 09 	xori r2,r1,0x9
  867e38:	44 60 00 02 	be r3,r0,867e40 <bd_init+0xfdc>
  867e3c:	b8 40 08 00 	mv r1,r2
  867e40:	3c 21 00 01 	sli r1,r1,1
  867e44:	20 21 00 ff 	andi r1,r1,0xff
  867e48:	20 23 00 80 	andi r3,r1,0x80
  867e4c:	18 22 00 09 	xori r2,r1,0x9
  867e50:	44 60 00 02 	be r3,r0,867e58 <bd_init+0xff4>
  867e54:	b8 40 08 00 	mv r1,r2
  867e58:	3c 21 00 01 	sli r1,r1,1
  867e5c:	20 21 00 ff 	andi r1,r1,0xff
  867e60:	20 23 00 80 	andi r3,r1,0x80
  867e64:	18 22 00 09 	xori r2,r1,0x9
  867e68:	44 60 00 02 	be r3,r0,867e70 <bd_init+0x100c>
  867e6c:	b8 40 08 00 	mv r1,r2
  867e70:	3c 21 00 01 	sli r1,r1,1
  867e74:	20 21 00 ff 	andi r1,r1,0xff
  867e78:	20 23 00 80 	andi r3,r1,0x80
  867e7c:	18 22 00 09 	xori r2,r1,0x9
  867e80:	44 60 00 02 	be r3,r0,867e88 <bd_init+0x1024>
  867e84:	b8 40 08 00 	mv r1,r2
  867e88:	3c 21 00 01 	sli r1,r1,1
  867e8c:	20 21 00 ff 	andi r1,r1,0xff
  867e90:	20 23 00 80 	andi r3,r1,0x80
  867e94:	18 22 00 09 	xori r2,r1,0x9
  867e98:	44 60 00 02 	be r3,r0,867ea0 <bd_init+0x103c>
  867e9c:	b8 40 08 00 	mv r1,r2
  867ea0:	20 21 00 ff 	andi r1,r1,0xff
  867ea4:	78 07 00 86 	mvhi r7,0x86
  867ea8:	78 0a 00 86 	mvhi r10,0x86
  867eac:	3c 21 00 01 	sli r1,r1,1
  867eb0:	38 e7 f0 70 	ori r7,r7,0xf070
  867eb4:	39 4a f0 74 	ori r10,r10,0xf074
  867eb8:	28 e6 00 00 	lw r6,(r7+0)
  867ebc:	29 42 00 00 	lw r2,(r10+0)
  867ec0:	38 21 00 01 	ori r1,r1,0x1
  867ec4:	33 81 00 41 	sb (sp+65),r1
  867ec8:	b9 60 18 00 	mv r3,r11
  867ecc:	40 61 00 00 	lbu r1,(r3+0)
  867ed0:	58 c1 00 00 	sw (r6+0),r1
  867ed4:	28 41 00 00 	lw r1,(r2+0)
  867ed8:	78 0c 00 86 	mvhi r12,0x86
  867edc:	39 8c f0 74 	ori r12,r12,0xf074
  867ee0:	20 21 00 01 	andi r1,r1,0x1
  867ee4:	29 85 00 00 	lw r5,(r12+0)
  867ee8:	5c 20 ff fb 	bne r1,r0,867ed4 <bd_init+0x1070>
  867eec:	34 63 00 01 	addi r3,r3,1
  867ef0:	5c 83 ff f7 	bne r4,r3,867ecc <bd_init+0x1068>
  867ef4:	78 0d 00 86 	mvhi r13,0x86
  867ef8:	39 ad f0 78 	ori r13,r13,0xf078
  867efc:	29 a2 00 00 	lw r2,(r13+0)
  867f00:	34 01 00 02 	mvi r1,2
  867f04:	58 a1 00 00 	sw (r5+0),r1
  867f08:	34 03 00 01 	mvi r3,1
  867f0c:	58 43 00 00 	sw (r2+0),r3
  867f10:	78 03 00 86 	mvhi r3,0x86
  867f14:	38 63 f0 6c 	ori r3,r3,0xf06c
  867f18:	28 62 00 00 	lw r2,(r3+0)
  867f1c:	78 07 00 86 	mvhi r7,0x86
  867f20:	38 e7 f0 70 	ori r7,r7,0xf070
  867f24:	28 ea 00 00 	lw r10,(r7+0)
  867f28:	58 41 00 00 	sw (r2+0),r1
  867f2c:	35 2c 00 11 	addi r12,r9,17
  867f30:	b9 20 30 00 	mv r6,r9
  867f34:	34 07 00 02 	mvi r7,2
  867f38:	78 0d 00 86 	mvhi r13,0x86
  867f3c:	39 ad e5 8c 	ori r13,r13,0xe58c
  867f40:	29 a1 00 00 	lw r1,(r13+0)
  867f44:	e0 00 00 02 	bi 867f4c <bd_init+0x10e8>
  867f48:	44 22 fe ba 	be r1,r2,867a30 <bd_init+0xbcc>
  867f4c:	28 a2 00 00 	lw r2,(r5+0)
  867f50:	78 0d 00 86 	mvhi r13,0x86
  867f54:	39 ad f0 74 	ori r13,r13,0xf074
  867f58:	20 42 00 02 	andi r2,r2,0x2
  867f5c:	34 21 ff ff 	addi r1,r1,-1
  867f60:	29 a3 00 00 	lw r3,(r13+0)
  867f64:	44 40 ff f9 	be r2,r0,867f48 <bd_init+0x10e4>
  867f68:	29 41 00 00 	lw r1,(r10+0)
  867f6c:	30 c1 00 00 	sb (r6+0),r1
  867f70:	58 67 00 00 	sw (r3+0),r7
  867f74:	34 c6 00 01 	addi r6,r6,1
  867f78:	5c cc ff f0 	bne r6,r12,867f38 <bd_init+0x10d4>
  867f7c:	28 61 00 00 	lw r1,(r3+0)
  867f80:	20 21 00 02 	andi r1,r1,0x2
  867f84:	44 20 ff fe 	be r1,r0,867f7c <bd_init+0x1118>
  867f88:	78 0c 00 86 	mvhi r12,0x86
  867f8c:	39 8c f0 6c 	ori r12,r12,0xf06c
  867f90:	29 82 00 00 	lw r2,(r12+0)
  867f94:	34 01 00 32 	mvi r1,50
  867f98:	38 21 00 09 	ori r1,r1,0x9
  867f9c:	34 03 00 01 	mvi r3,1
  867fa0:	3c 21 00 01 	sli r1,r1,1
  867fa4:	58 43 00 00 	sw (r2+0),r3
  867fa8:	38 21 00 09 	ori r1,r1,0x9
  867fac:	33 80 00 3d 	sb (sp+61),r0
  867fb0:	43 82 00 3d 	lbu r2,(sp+61)
  867fb4:	3c 21 00 01 	sli r1,r1,1
  867fb8:	34 03 00 43 	mvi r3,67
  867fbc:	20 21 00 ff 	andi r1,r1,0xff
  867fc0:	98 22 28 00 	xor r5,r1,r2
  867fc4:	33 83 00 3c 	sb (sp+60),r3
  867fc8:	33 80 00 3e 	sb (sp+62),r0
  867fcc:	33 80 00 3f 	sb (sp+63),r0
  867fd0:	33 80 00 40 	sb (sp+64),r0
  867fd4:	20 a5 00 80 	andi r5,r5,0x80
  867fd8:	18 23 00 09 	xori r3,r1,0x9
  867fdc:	44 a0 00 02 	be r5,r0,867fe4 <bd_init+0x1180>
  867fe0:	b8 60 08 00 	mv r1,r3
  867fe4:	3c 42 00 01 	sli r2,r2,1
  867fe8:	3c 21 00 01 	sli r1,r1,1
  867fec:	20 42 00 ff 	andi r2,r2,0xff
  867ff0:	20 21 00 ff 	andi r1,r1,0xff
  867ff4:	98 22 28 00 	xor r5,r1,r2
  867ff8:	20 a5 00 80 	andi r5,r5,0x80
  867ffc:	18 23 00 09 	xori r3,r1,0x9
  868000:	44 a0 00 02 	be r5,r0,868008 <bd_init+0x11a4>
  868004:	b8 60 08 00 	mv r1,r3
  868008:	3c 42 00 01 	sli r2,r2,1
  86800c:	3c 21 00 01 	sli r1,r1,1
  868010:	20 42 00 ff 	andi r2,r2,0xff
  868014:	20 21 00 ff 	andi r1,r1,0xff
  868018:	98 22 28 00 	xor r5,r1,r2
  86801c:	20 a5 00 80 	andi r5,r5,0x80
  868020:	18 23 00 09 	xori r3,r1,0x9
  868024:	44 a0 00 02 	be r5,r0,86802c <bd_init+0x11c8>
  868028:	b8 60 08 00 	mv r1,r3
  86802c:	3c 42 00 01 	sli r2,r2,1
  868030:	3c 21 00 01 	sli r1,r1,1
  868034:	20 42 00 ff 	andi r2,r2,0xff
  868038:	20 21 00 ff 	andi r1,r1,0xff
  86803c:	98 22 28 00 	xor r5,r1,r2
  868040:	20 a5 00 80 	andi r5,r5,0x80
  868044:	18 23 00 09 	xori r3,r1,0x9
  868048:	44 a0 00 02 	be r5,r0,868050 <bd_init+0x11ec>
  86804c:	b8 60 08 00 	mv r1,r3
  868050:	3c 42 00 01 	sli r2,r2,1
  868054:	3c 21 00 01 	sli r1,r1,1
  868058:	20 42 00 ff 	andi r2,r2,0xff
  86805c:	20 21 00 ff 	andi r1,r1,0xff
  868060:	98 22 28 00 	xor r5,r1,r2
  868064:	20 a5 00 80 	andi r5,r5,0x80
  868068:	18 23 00 09 	xori r3,r1,0x9
  86806c:	44 a0 00 02 	be r5,r0,868074 <bd_init+0x1210>
  868070:	b8 60 08 00 	mv r1,r3
  868074:	3c 42 00 01 	sli r2,r2,1
  868078:	3c 21 00 01 	sli r1,r1,1
  86807c:	20 42 00 ff 	andi r2,r2,0xff
  868080:	20 21 00 ff 	andi r1,r1,0xff
  868084:	98 22 28 00 	xor r5,r1,r2
  868088:	20 a5 00 80 	andi r5,r5,0x80
  86808c:	18 23 00 09 	xori r3,r1,0x9
  868090:	44 a0 00 02 	be r5,r0,868098 <bd_init+0x1234>
  868094:	b8 60 08 00 	mv r1,r3
  868098:	3c 42 00 01 	sli r2,r2,1
  86809c:	3c 21 00 01 	sli r1,r1,1
  8680a0:	20 42 00 ff 	andi r2,r2,0xff
  8680a4:	20 21 00 ff 	andi r1,r1,0xff
  8680a8:	98 22 28 00 	xor r5,r1,r2
  8680ac:	20 a5 00 80 	andi r5,r5,0x80
  8680b0:	18 23 00 09 	xori r3,r1,0x9
  8680b4:	44 a0 00 02 	be r5,r0,8680bc <bd_init+0x1258>
  8680b8:	b8 60 08 00 	mv r1,r3
  8680bc:	3c 21 00 01 	sli r1,r1,1
  8680c0:	3c 42 00 01 	sli r2,r2,1
  8680c4:	20 21 00 ff 	andi r1,r1,0xff
  8680c8:	98 22 18 00 	xor r3,r1,r2
  8680cc:	20 63 00 80 	andi r3,r3,0x80
  8680d0:	18 22 00 09 	xori r2,r1,0x9
  8680d4:	44 60 00 02 	be r3,r0,8680dc <bd_init+0x1278>
  8680d8:	b8 40 08 00 	mv r1,r2
  8680dc:	43 82 00 3e 	lbu r2,(sp+62)
  8680e0:	3c 21 00 01 	sli r1,r1,1
  8680e4:	20 21 00 ff 	andi r1,r1,0xff
  8680e8:	98 22 28 00 	xor r5,r1,r2
  8680ec:	20 a5 00 80 	andi r5,r5,0x80
  8680f0:	18 23 00 09 	xori r3,r1,0x9
  8680f4:	44 a0 00 02 	be r5,r0,8680fc <bd_init+0x1298>
  8680f8:	b8 60 08 00 	mv r1,r3
  8680fc:	3c 42 00 01 	sli r2,r2,1
  868100:	3c 21 00 01 	sli r1,r1,1
  868104:	20 42 00 ff 	andi r2,r2,0xff
  868108:	20 21 00 ff 	andi r1,r1,0xff
  86810c:	98 22 28 00 	xor r5,r1,r2
  868110:	20 a5 00 80 	andi r5,r5,0x80
  868114:	18 23 00 09 	xori r3,r1,0x9
  868118:	44 a0 00 02 	be r5,r0,868120 <bd_init+0x12bc>
  86811c:	b8 60 08 00 	mv r1,r3
  868120:	3c 42 00 01 	sli r2,r2,1
  868124:	3c 21 00 01 	sli r1,r1,1
  868128:	20 42 00 ff 	andi r2,r2,0xff
  86812c:	20 21 00 ff 	andi r1,r1,0xff
  868130:	98 22 28 00 	xor r5,r1,r2
  868134:	20 a5 00 80 	andi r5,r5,0x80
  868138:	18 23 00 09 	xori r3,r1,0x9
  86813c:	44 a0 00 02 	be r5,r0,868144 <bd_init+0x12e0>
  868140:	b8 60 08 00 	mv r1,r3
  868144:	3c 42 00 01 	sli r2,r2,1
  868148:	3c 21 00 01 	sli r1,r1,1
  86814c:	20 42 00 ff 	andi r2,r2,0xff
  868150:	20 21 00 ff 	andi r1,r1,0xff
  868154:	98 22 28 00 	xor r5,r1,r2
  868158:	20 a5 00 80 	andi r5,r5,0x80
  86815c:	18 23 00 09 	xori r3,r1,0x9
  868160:	44 a0 00 02 	be r5,r0,868168 <bd_init+0x1304>
  868164:	b8 60 08 00 	mv r1,r3
  868168:	3c 42 00 01 	sli r2,r2,1
  86816c:	3c 21 00 01 	sli r1,r1,1
  868170:	20 42 00 ff 	andi r2,r2,0xff
  868174:	20 21 00 ff 	andi r1,r1,0xff
  868178:	98 22 28 00 	xor r5,r1,r2
  86817c:	20 a5 00 80 	andi r5,r5,0x80
  868180:	18 23 00 09 	xori r3,r1,0x9
  868184:	44 a0 00 02 	be r5,r0,86818c <bd_init+0x1328>
  868188:	b8 60 08 00 	mv r1,r3
  86818c:	3c 42 00 01 	sli r2,r2,1
  868190:	3c 21 00 01 	sli r1,r1,1
  868194:	20 42 00 ff 	andi r2,r2,0xff
  868198:	20 21 00 ff 	andi r1,r1,0xff
  86819c:	98 22 28 00 	xor r5,r1,r2
  8681a0:	20 a5 00 80 	andi r5,r5,0x80
  8681a4:	18 23 00 09 	xori r3,r1,0x9
  8681a8:	44 a0 00 02 	be r5,r0,8681b0 <bd_init+0x134c>
  8681ac:	b8 60 08 00 	mv r1,r3
  8681b0:	3c 42 00 01 	sli r2,r2,1
  8681b4:	3c 21 00 01 	sli r1,r1,1
  8681b8:	20 42 00 ff 	andi r2,r2,0xff
  8681bc:	20 21 00 ff 	andi r1,r1,0xff
  8681c0:	98 22 28 00 	xor r5,r1,r2
  8681c4:	20 a5 00 80 	andi r5,r5,0x80
  8681c8:	18 23 00 09 	xori r3,r1,0x9
  8681cc:	44 a0 00 02 	be r5,r0,8681d4 <bd_init+0x1370>
  8681d0:	b8 60 08 00 	mv r1,r3
  8681d4:	3c 21 00 01 	sli r1,r1,1
  8681d8:	3c 42 00 01 	sli r2,r2,1
  8681dc:	20 21 00 ff 	andi r1,r1,0xff
  8681e0:	98 22 18 00 	xor r3,r1,r2
  8681e4:	20 63 00 80 	andi r3,r3,0x80
  8681e8:	18 22 00 09 	xori r2,r1,0x9
  8681ec:	44 60 00 02 	be r3,r0,8681f4 <bd_init+0x1390>
  8681f0:	b8 40 08 00 	mv r1,r2
  8681f4:	43 82 00 3f 	lbu r2,(sp+63)
  8681f8:	3c 21 00 01 	sli r1,r1,1
  8681fc:	20 21 00 ff 	andi r1,r1,0xff
  868200:	98 22 28 00 	xor r5,r1,r2
  868204:	20 a5 00 80 	andi r5,r5,0x80
  868208:	18 23 00 09 	xori r3,r1,0x9
  86820c:	44 a0 00 02 	be r5,r0,868214 <bd_init+0x13b0>
  868210:	b8 60 08 00 	mv r1,r3
  868214:	3c 42 00 01 	sli r2,r2,1
  868218:	3c 21 00 01 	sli r1,r1,1
  86821c:	20 42 00 ff 	andi r2,r2,0xff
  868220:	20 21 00 ff 	andi r1,r1,0xff
  868224:	98 22 28 00 	xor r5,r1,r2
  868228:	20 a5 00 80 	andi r5,r5,0x80
  86822c:	18 23 00 09 	xori r3,r1,0x9
  868230:	44 a0 00 02 	be r5,r0,868238 <bd_init+0x13d4>
  868234:	b8 60 08 00 	mv r1,r3
  868238:	3c 42 00 01 	sli r2,r2,1
  86823c:	3c 21 00 01 	sli r1,r1,1
  868240:	20 42 00 ff 	andi r2,r2,0xff
  868244:	20 21 00 ff 	andi r1,r1,0xff
  868248:	98 22 28 00 	xor r5,r1,r2
  86824c:	20 a5 00 80 	andi r5,r5,0x80
  868250:	18 23 00 09 	xori r3,r1,0x9
  868254:	44 a0 00 02 	be r5,r0,86825c <bd_init+0x13f8>
  868258:	b8 60 08 00 	mv r1,r3
  86825c:	3c 42 00 01 	sli r2,r2,1
  868260:	3c 21 00 01 	sli r1,r1,1
  868264:	20 42 00 ff 	andi r2,r2,0xff
  868268:	20 21 00 ff 	andi r1,r1,0xff
  86826c:	98 22 28 00 	xor r5,r1,r2
  868270:	20 a5 00 80 	andi r5,r5,0x80
  868274:	18 23 00 09 	xori r3,r1,0x9
  868278:	44 a0 00 02 	be r5,r0,868280 <bd_init+0x141c>
  86827c:	b8 60 08 00 	mv r1,r3
  868280:	3c 42 00 01 	sli r2,r2,1
  868284:	3c 21 00 01 	sli r1,r1,1
  868288:	20 42 00 ff 	andi r2,r2,0xff
  86828c:	20 21 00 ff 	andi r1,r1,0xff
  868290:	98 22 28 00 	xor r5,r1,r2
  868294:	20 a5 00 80 	andi r5,r5,0x80
  868298:	18 23 00 09 	xori r3,r1,0x9
  86829c:	44 a0 00 02 	be r5,r0,8682a4 <bd_init+0x1440>
  8682a0:	b8 60 08 00 	mv r1,r3
  8682a4:	3c 42 00 01 	sli r2,r2,1
  8682a8:	3c 21 00 01 	sli r1,r1,1
  8682ac:	20 42 00 ff 	andi r2,r2,0xff
  8682b0:	20 21 00 ff 	andi r1,r1,0xff
  8682b4:	98 22 28 00 	xor r5,r1,r2
  8682b8:	20 a5 00 80 	andi r5,r5,0x80
  8682bc:	18 23 00 09 	xori r3,r1,0x9
  8682c0:	44 a0 00 02 	be r5,r0,8682c8 <bd_init+0x1464>
  8682c4:	b8 60 08 00 	mv r1,r3
  8682c8:	3c 42 00 01 	sli r2,r2,1
  8682cc:	3c 21 00 01 	sli r1,r1,1
  8682d0:	20 42 00 ff 	andi r2,r2,0xff
  8682d4:	20 21 00 ff 	andi r1,r1,0xff
  8682d8:	98 22 28 00 	xor r5,r1,r2
  8682dc:	20 a5 00 80 	andi r5,r5,0x80
  8682e0:	18 23 00 09 	xori r3,r1,0x9
  8682e4:	44 a0 00 02 	be r5,r0,8682ec <bd_init+0x1488>
  8682e8:	b8 60 08 00 	mv r1,r3
  8682ec:	3c 21 00 01 	sli r1,r1,1
  8682f0:	3c 42 00 01 	sli r2,r2,1
  8682f4:	20 21 00 ff 	andi r1,r1,0xff
  8682f8:	98 22 18 00 	xor r3,r1,r2
  8682fc:	20 63 00 80 	andi r3,r3,0x80
  868300:	18 22 00 09 	xori r2,r1,0x9
  868304:	44 60 00 02 	be r3,r0,86830c <bd_init+0x14a8>
  868308:	b8 40 08 00 	mv r1,r2
  86830c:	3c 21 00 01 	sli r1,r1,1
  868310:	20 21 00 ff 	andi r1,r1,0xff
  868314:	20 23 00 80 	andi r3,r1,0x80
  868318:	18 22 00 09 	xori r2,r1,0x9
  86831c:	44 60 00 02 	be r3,r0,868324 <bd_init+0x14c0>
  868320:	b8 40 08 00 	mv r1,r2
  868324:	3c 21 00 01 	sli r1,r1,1
  868328:	20 21 00 ff 	andi r1,r1,0xff
  86832c:	20 23 00 80 	andi r3,r1,0x80
  868330:	18 22 00 09 	xori r2,r1,0x9
  868334:	44 60 00 02 	be r3,r0,86833c <bd_init+0x14d8>
  868338:	b8 40 08 00 	mv r1,r2
  86833c:	3c 21 00 01 	sli r1,r1,1
  868340:	20 21 00 ff 	andi r1,r1,0xff
  868344:	20 23 00 80 	andi r3,r1,0x80
  868348:	18 22 00 09 	xori r2,r1,0x9
  86834c:	44 60 00 02 	be r3,r0,868354 <bd_init+0x14f0>
  868350:	b8 40 08 00 	mv r1,r2
  868354:	3c 21 00 01 	sli r1,r1,1
  868358:	20 21 00 ff 	andi r1,r1,0xff
  86835c:	20 23 00 80 	andi r3,r1,0x80
  868360:	18 22 00 09 	xori r2,r1,0x9
  868364:	44 60 00 02 	be r3,r0,86836c <bd_init+0x1508>
  868368:	b8 40 08 00 	mv r1,r2
  86836c:	3c 21 00 01 	sli r1,r1,1
  868370:	20 21 00 ff 	andi r1,r1,0xff
  868374:	20 23 00 80 	andi r3,r1,0x80
  868378:	18 22 00 09 	xori r2,r1,0x9
  86837c:	44 60 00 02 	be r3,r0,868384 <bd_init+0x1520>
  868380:	b8 40 08 00 	mv r1,r2
  868384:	3c 21 00 01 	sli r1,r1,1
  868388:	20 21 00 ff 	andi r1,r1,0xff
  86838c:	20 23 00 80 	andi r3,r1,0x80
  868390:	18 22 00 09 	xori r2,r1,0x9
  868394:	44 60 00 02 	be r3,r0,86839c <bd_init+0x1538>
  868398:	b8 40 08 00 	mv r1,r2
  86839c:	3c 21 00 01 	sli r1,r1,1
  8683a0:	20 21 00 ff 	andi r1,r1,0xff
  8683a4:	20 23 00 80 	andi r3,r1,0x80
  8683a8:	18 22 00 09 	xori r2,r1,0x9
  8683ac:	44 60 00 02 	be r3,r0,8683b4 <bd_init+0x1550>
  8683b0:	b8 40 08 00 	mv r1,r2
  8683b4:	3c 21 00 01 	sli r1,r1,1
  8683b8:	20 21 00 ff 	andi r1,r1,0xff
  8683bc:	20 23 00 80 	andi r3,r1,0x80
  8683c0:	18 22 00 09 	xori r2,r1,0x9
  8683c4:	44 60 00 02 	be r3,r0,8683cc <bd_init+0x1568>
  8683c8:	b8 40 08 00 	mv r1,r2
  8683cc:	20 21 00 ff 	andi r1,r1,0xff
  8683d0:	3c 21 00 01 	sli r1,r1,1
  8683d4:	78 0d 00 86 	mvhi r13,0x86
  8683d8:	38 21 00 01 	ori r1,r1,0x1
  8683dc:	33 81 00 41 	sb (sp+65),r1
  8683e0:	78 01 00 86 	mvhi r1,0x86
  8683e4:	39 ad f0 70 	ori r13,r13,0xf070
  8683e8:	38 21 f0 74 	ori r1,r1,0xf074
  8683ec:	29 a6 00 00 	lw r6,(r13+0)
  8683f0:	28 22 00 00 	lw r2,(r1+0)
  8683f4:	b9 60 18 00 	mv r3,r11
  8683f8:	40 61 00 00 	lbu r1,(r3+0)
  8683fc:	58 c1 00 00 	sw (r6+0),r1
  868400:	28 41 00 00 	lw r1,(r2+0)
  868404:	78 07 00 86 	mvhi r7,0x86
  868408:	38 e7 f0 74 	ori r7,r7,0xf074
  86840c:	20 21 00 01 	andi r1,r1,0x1
  868410:	28 e5 00 00 	lw r5,(r7+0)
  868414:	5c 20 ff fb 	bne r1,r0,868400 <bd_init+0x159c>
  868418:	34 63 00 01 	addi r3,r3,1
  86841c:	5c 83 ff f7 	bne r4,r3,8683f8 <bd_init+0x1594>
  868420:	78 0a 00 86 	mvhi r10,0x86
  868424:	39 4a f0 78 	ori r10,r10,0xf078
  868428:	29 42 00 00 	lw r2,(r10+0)
  86842c:	34 01 00 02 	mvi r1,2
  868430:	78 0c 00 86 	mvhi r12,0x86
  868434:	58 a1 00 00 	sw (r5+0),r1
  868438:	34 03 00 01 	mvi r3,1
  86843c:	39 8c f0 6c 	ori r12,r12,0xf06c
  868440:	78 0d 00 86 	mvhi r13,0x86
  868444:	58 43 00 00 	sw (r2+0),r3
  868448:	39 ad f0 70 	ori r13,r13,0xf070
  86844c:	29 82 00 00 	lw r2,(r12+0)
  868450:	29 a7 00 00 	lw r7,(r13+0)
  868454:	34 06 00 02 	mvi r6,2
  868458:	58 41 00 00 	sw (r2+0),r1
  86845c:	78 02 00 86 	mvhi r2,0x86
  868460:	38 42 e5 8c 	ori r2,r2,0xe58c
  868464:	28 41 00 00 	lw r1,(r2+0)
  868468:	e0 00 00 02 	bi 868470 <bd_init+0x160c>
  86846c:	44 22 fd 71 	be r1,r2,867a30 <bd_init+0xbcc>
  868470:	28 a2 00 00 	lw r2,(r5+0)
  868474:	78 0a 00 86 	mvhi r10,0x86
  868478:	39 4a f0 74 	ori r10,r10,0xf074
  86847c:	20 42 00 02 	andi r2,r2,0x2
  868480:	34 21 ff ff 	addi r1,r1,-1
  868484:	29 43 00 00 	lw r3,(r10+0)
  868488:	44 40 ff f9 	be r2,r0,86846c <bd_init+0x1608>
  86848c:	28 e1 00 00 	lw r1,(r7+0)
  868490:	31 21 00 00 	sb (r9+0),r1
  868494:	58 66 00 00 	sw (r3+0),r6
  868498:	35 29 00 01 	addi r9,r9,1
  86849c:	5d 28 ff f0 	bne r9,r8,86845c <bd_init+0x15f8>
  8684a0:	28 61 00 00 	lw r1,(r3+0)
  8684a4:	20 21 00 02 	andi r1,r1,0x2
  8684a8:	44 20 ff fe 	be r1,r0,8684a0 <bd_init+0x163c>
  8684ac:	43 83 00 29 	lbu r3,(sp+41)
  8684b0:	43 81 00 2a 	lbu r1,(sp+42)
  8684b4:	34 02 00 20 	mvi r2,32
  8684b8:	3c 63 00 08 	sli r3,r3,8
  8684bc:	38 42 00 09 	ori r2,r2,0x9
  8684c0:	b8 61 08 00 	or r1,r3,r1
  8684c4:	3c 42 00 01 	sli r2,r2,1
  8684c8:	78 06 00 86 	mvhi r6,0x86
  8684cc:	3c 21 00 10 	sli r1,r1,16
  8684d0:	38 c6 f0 6c 	ori r6,r6,0xf06c
  8684d4:	28 c3 00 00 	lw r3,(r6+0)
  8684d8:	38 42 00 09 	ori r2,r2,0x9
  8684dc:	00 29 00 18 	srui r9,r1,24
  8684e0:	3c 42 00 01 	sli r2,r2,1
  8684e4:	34 05 00 01 	mvi r5,1
  8684e8:	00 28 00 10 	srui r8,r1,16
  8684ec:	00 27 00 08 	srui r7,r1,8
  8684f0:	58 65 00 00 	sw (r3+0),r5
  8684f4:	20 42 00 ff 	andi r2,r2,0xff
  8684f8:	21 23 00 ff 	andi r3,r9,0xff
  8684fc:	20 26 00 ff 	andi r6,r1,0xff
  868500:	21 08 00 ff 	andi r8,r8,0xff
  868504:	34 01 00 47 	mvi r1,71
  868508:	20 e7 00 ff 	andi r7,r7,0xff
  86850c:	98 43 28 00 	xor r5,r2,r3
  868510:	33 81 00 3c 	sb (sp+60),r1
  868514:	33 89 00 3d 	sb (sp+61),r9
  868518:	33 88 00 3e 	sb (sp+62),r8
  86851c:	33 87 00 3f 	sb (sp+63),r7
  868520:	33 86 00 40 	sb (sp+64),r6
  868524:	20 a5 00 80 	andi r5,r5,0x80
  868528:	18 41 00 09 	xori r1,r2,0x9
  86852c:	44 a0 00 02 	be r5,r0,868534 <bd_init+0x16d0>
  868530:	b8 20 10 00 	mv r2,r1
  868534:	3c 61 00 01 	sli r1,r3,1
  868538:	3c 42 00 01 	sli r2,r2,1
  86853c:	20 21 00 ff 	andi r1,r1,0xff
  868540:	20 42 00 ff 	andi r2,r2,0xff
  868544:	98 41 28 00 	xor r5,r2,r1
  868548:	20 a5 00 80 	andi r5,r5,0x80
  86854c:	18 43 00 09 	xori r3,r2,0x9
  868550:	44 a0 00 02 	be r5,r0,868558 <bd_init+0x16f4>
  868554:	b8 60 10 00 	mv r2,r3
  868558:	3c 21 00 01 	sli r1,r1,1
  86855c:	3c 42 00 01 	sli r2,r2,1
  868560:	20 21 00 ff 	andi r1,r1,0xff
  868564:	20 42 00 ff 	andi r2,r2,0xff
  868568:	98 41 28 00 	xor r5,r2,r1
  86856c:	20 a5 00 80 	andi r5,r5,0x80
  868570:	18 43 00 09 	xori r3,r2,0x9
  868574:	44 a0 00 02 	be r5,r0,86857c <bd_init+0x1718>
  868578:	b8 60 10 00 	mv r2,r3
  86857c:	3c 21 00 01 	sli r1,r1,1
  868580:	3c 42 00 01 	sli r2,r2,1
  868584:	20 21 00 ff 	andi r1,r1,0xff
  868588:	20 42 00 ff 	andi r2,r2,0xff
  86858c:	98 41 28 00 	xor r5,r2,r1
  868590:	20 a5 00 80 	andi r5,r5,0x80
  868594:	18 43 00 09 	xori r3,r2,0x9
  868598:	44 a0 00 02 	be r5,r0,8685a0 <bd_init+0x173c>
  86859c:	b8 60 10 00 	mv r2,r3
  8685a0:	3c 21 00 01 	sli r1,r1,1
  8685a4:	3c 42 00 01 	sli r2,r2,1
  8685a8:	20 21 00 ff 	andi r1,r1,0xff
  8685ac:	20 42 00 ff 	andi r2,r2,0xff
  8685b0:	98 41 28 00 	xor r5,r2,r1
  8685b4:	20 a5 00 80 	andi r5,r5,0x80
  8685b8:	18 43 00 09 	xori r3,r2,0x9
  8685bc:	44 a0 00 02 	be r5,r0,8685c4 <bd_init+0x1760>
  8685c0:	b8 60 10 00 	mv r2,r3
  8685c4:	3c 21 00 01 	sli r1,r1,1
  8685c8:	3c 42 00 01 	sli r2,r2,1
  8685cc:	20 21 00 ff 	andi r1,r1,0xff
  8685d0:	20 42 00 ff 	andi r2,r2,0xff
  8685d4:	98 41 28 00 	xor r5,r2,r1
  8685d8:	20 a5 00 80 	andi r5,r5,0x80
  8685dc:	18 43 00 09 	xori r3,r2,0x9
  8685e0:	44 a0 00 02 	be r5,r0,8685e8 <bd_init+0x1784>
  8685e4:	b8 60 10 00 	mv r2,r3
  8685e8:	3c 21 00 01 	sli r1,r1,1
  8685ec:	3c 42 00 01 	sli r2,r2,1
  8685f0:	20 21 00 ff 	andi r1,r1,0xff
  8685f4:	20 42 00 ff 	andi r2,r2,0xff
  8685f8:	98 41 28 00 	xor r5,r2,r1
  8685fc:	20 a5 00 80 	andi r5,r5,0x80
  868600:	18 43 00 09 	xori r3,r2,0x9
  868604:	44 a0 00 02 	be r5,r0,86860c <bd_init+0x17a8>
  868608:	b8 60 10 00 	mv r2,r3
  86860c:	3c 42 00 01 	sli r2,r2,1
  868610:	3c 21 00 01 	sli r1,r1,1
  868614:	20 42 00 ff 	andi r2,r2,0xff
  868618:	98 41 18 00 	xor r3,r2,r1
  86861c:	20 63 00 80 	andi r3,r3,0x80
  868620:	18 41 00 09 	xori r1,r2,0x9
  868624:	44 60 00 02 	be r3,r0,86862c <bd_init+0x17c8>
  868628:	b8 20 10 00 	mv r2,r1
  86862c:	43 81 00 3e 	lbu r1,(sp+62)
  868630:	3c 42 00 01 	sli r2,r2,1
  868634:	20 42 00 ff 	andi r2,r2,0xff
  868638:	98 41 28 00 	xor r5,r2,r1
  86863c:	20 a5 00 80 	andi r5,r5,0x80
  868640:	18 43 00 09 	xori r3,r2,0x9
  868644:	44 a0 00 02 	be r5,r0,86864c <bd_init+0x17e8>
  868648:	b8 60 10 00 	mv r2,r3
  86864c:	3c 21 00 01 	sli r1,r1,1
  868650:	3c 42 00 01 	sli r2,r2,1
  868654:	20 21 00 ff 	andi r1,r1,0xff
  868658:	20 42 00 ff 	andi r2,r2,0xff
  86865c:	98 41 28 00 	xor r5,r2,r1
  868660:	20 a5 00 80 	andi r5,r5,0x80
  868664:	18 43 00 09 	xori r3,r2,0x9
  868668:	44 a0 00 02 	be r5,r0,868670 <bd_init+0x180c>
  86866c:	b8 60 10 00 	mv r2,r3
  868670:	3c 21 00 01 	sli r1,r1,1
  868674:	3c 42 00 01 	sli r2,r2,1
  868678:	20 21 00 ff 	andi r1,r1,0xff
  86867c:	20 42 00 ff 	andi r2,r2,0xff
  868680:	98 41 28 00 	xor r5,r2,r1
  868684:	20 a5 00 80 	andi r5,r5,0x80
  868688:	18 43 00 09 	xori r3,r2,0x9
  86868c:	44 a0 00 02 	be r5,r0,868694 <bd_init+0x1830>
  868690:	b8 60 10 00 	mv r2,r3
  868694:	3c 21 00 01 	sli r1,r1,1
  868698:	3c 42 00 01 	sli r2,r2,1
  86869c:	20 21 00 ff 	andi r1,r1,0xff
  8686a0:	20 42 00 ff 	andi r2,r2,0xff
  8686a4:	98 41 28 00 	xor r5,r2,r1
  8686a8:	20 a5 00 80 	andi r5,r5,0x80
  8686ac:	18 43 00 09 	xori r3,r2,0x9
  8686b0:	44 a0 00 02 	be r5,r0,8686b8 <bd_init+0x1854>
  8686b4:	b8 60 10 00 	mv r2,r3
  8686b8:	3c 21 00 01 	sli r1,r1,1
  8686bc:	3c 42 00 01 	sli r2,r2,1
  8686c0:	20 21 00 ff 	andi r1,r1,0xff
  8686c4:	20 42 00 ff 	andi r2,r2,0xff
  8686c8:	98 41 28 00 	xor r5,r2,r1
  8686cc:	20 a5 00 80 	andi r5,r5,0x80
  8686d0:	18 43 00 09 	xori r3,r2,0x9
  8686d4:	44 a0 00 02 	be r5,r0,8686dc <bd_init+0x1878>
  8686d8:	b8 60 10 00 	mv r2,r3
  8686dc:	3c 21 00 01 	sli r1,r1,1
  8686e0:	3c 42 00 01 	sli r2,r2,1
  8686e4:	20 21 00 ff 	andi r1,r1,0xff
  8686e8:	20 42 00 ff 	andi r2,r2,0xff
  8686ec:	98 41 28 00 	xor r5,r2,r1
  8686f0:	20 a5 00 80 	andi r5,r5,0x80
  8686f4:	18 43 00 09 	xori r3,r2,0x9
  8686f8:	44 a0 00 02 	be r5,r0,868700 <bd_init+0x189c>
  8686fc:	b8 60 10 00 	mv r2,r3
  868700:	3c 21 00 01 	sli r1,r1,1
  868704:	3c 42 00 01 	sli r2,r2,1
  868708:	20 21 00 ff 	andi r1,r1,0xff
  86870c:	20 42 00 ff 	andi r2,r2,0xff
  868710:	98 41 28 00 	xor r5,r2,r1
  868714:	20 a5 00 80 	andi r5,r5,0x80
  868718:	18 43 00 09 	xori r3,r2,0x9
  86871c:	44 a0 00 02 	be r5,r0,868724 <bd_init+0x18c0>
  868720:	b8 60 10 00 	mv r2,r3
  868724:	3c 42 00 01 	sli r2,r2,1
  868728:	3c 21 00 01 	sli r1,r1,1
  86872c:	20 42 00 ff 	andi r2,r2,0xff
  868730:	98 41 18 00 	xor r3,r2,r1
  868734:	20 63 00 80 	andi r3,r3,0x80
  868738:	18 41 00 09 	xori r1,r2,0x9
  86873c:	44 60 00 02 	be r3,r0,868744 <bd_init+0x18e0>
  868740:	b8 20 10 00 	mv r2,r1
  868744:	43 81 00 3f 	lbu r1,(sp+63)
  868748:	3c 42 00 01 	sli r2,r2,1
  86874c:	20 42 00 ff 	andi r2,r2,0xff
  868750:	98 41 28 00 	xor r5,r2,r1
  868754:	20 a5 00 80 	andi r5,r5,0x80
  868758:	18 43 00 09 	xori r3,r2,0x9
  86875c:	44 a0 00 02 	be r5,r0,868764 <bd_init+0x1900>
  868760:	b8 60 10 00 	mv r2,r3
  868764:	3c 21 00 01 	sli r1,r1,1
  868768:	3c 42 00 01 	sli r2,r2,1
  86876c:	20 21 00 ff 	andi r1,r1,0xff
  868770:	20 42 00 ff 	andi r2,r2,0xff
  868774:	98 41 28 00 	xor r5,r2,r1
  868778:	20 a5 00 80 	andi r5,r5,0x80
  86877c:	18 43 00 09 	xori r3,r2,0x9
  868780:	44 a0 00 02 	be r5,r0,868788 <bd_init+0x1924>
  868784:	b8 60 10 00 	mv r2,r3
  868788:	3c 21 00 01 	sli r1,r1,1
  86878c:	3c 42 00 01 	sli r2,r2,1
  868790:	20 21 00 ff 	andi r1,r1,0xff
  868794:	20 42 00 ff 	andi r2,r2,0xff
  868798:	98 41 28 00 	xor r5,r2,r1
  86879c:	20 a5 00 80 	andi r5,r5,0x80
  8687a0:	18 43 00 09 	xori r3,r2,0x9
  8687a4:	44 a0 00 02 	be r5,r0,8687ac <bd_init+0x1948>
  8687a8:	b8 60 10 00 	mv r2,r3
  8687ac:	3c 21 00 01 	sli r1,r1,1
  8687b0:	3c 42 00 01 	sli r2,r2,1
  8687b4:	20 21 00 ff 	andi r1,r1,0xff
  8687b8:	20 42 00 ff 	andi r2,r2,0xff
  8687bc:	98 41 28 00 	xor r5,r2,r1
  8687c0:	20 a5 00 80 	andi r5,r5,0x80
  8687c4:	18 43 00 09 	xori r3,r2,0x9
  8687c8:	44 a0 00 02 	be r5,r0,8687d0 <bd_init+0x196c>
  8687cc:	b8 60 10 00 	mv r2,r3
  8687d0:	3c 21 00 01 	sli r1,r1,1
  8687d4:	3c 42 00 01 	sli r2,r2,1
  8687d8:	20 21 00 ff 	andi r1,r1,0xff
  8687dc:	20 42 00 ff 	andi r2,r2,0xff
  8687e0:	98 41 28 00 	xor r5,r2,r1
  8687e4:	20 a5 00 80 	andi r5,r5,0x80
  8687e8:	18 43 00 09 	xori r3,r2,0x9
  8687ec:	44 a0 00 02 	be r5,r0,8687f4 <bd_init+0x1990>
  8687f0:	b8 60 10 00 	mv r2,r3
  8687f4:	3c 21 00 01 	sli r1,r1,1
  8687f8:	3c 42 00 01 	sli r2,r2,1
  8687fc:	20 21 00 ff 	andi r1,r1,0xff
  868800:	20 42 00 ff 	andi r2,r2,0xff
  868804:	98 41 28 00 	xor r5,r2,r1
  868808:	20 a5 00 80 	andi r5,r5,0x80
  86880c:	18 43 00 09 	xori r3,r2,0x9
  868810:	44 a0 00 02 	be r5,r0,868818 <bd_init+0x19b4>
  868814:	b8 60 10 00 	mv r2,r3
  868818:	3c 21 00 01 	sli r1,r1,1
  86881c:	3c 42 00 01 	sli r2,r2,1
  868820:	20 21 00 ff 	andi r1,r1,0xff
  868824:	20 42 00 ff 	andi r2,r2,0xff
  868828:	98 41 28 00 	xor r5,r2,r1
  86882c:	20 a5 00 80 	andi r5,r5,0x80
  868830:	18 43 00 09 	xori r3,r2,0x9
  868834:	44 a0 00 02 	be r5,r0,86883c <bd_init+0x19d8>
  868838:	b8 60 10 00 	mv r2,r3
  86883c:	3c 42 00 01 	sli r2,r2,1
  868840:	3c 21 00 01 	sli r1,r1,1
  868844:	20 42 00 ff 	andi r2,r2,0xff
  868848:	98 41 18 00 	xor r3,r2,r1
  86884c:	20 63 00 80 	andi r3,r3,0x80
  868850:	18 41 00 09 	xori r1,r2,0x9
  868854:	44 60 00 02 	be r3,r0,86885c <bd_init+0x19f8>
  868858:	b8 20 10 00 	mv r2,r1
  86885c:	3c 42 00 01 	sli r2,r2,1
  868860:	20 42 00 ff 	andi r2,r2,0xff
  868864:	20 43 00 80 	andi r3,r2,0x80
  868868:	18 41 00 09 	xori r1,r2,0x9
  86886c:	44 60 00 02 	be r3,r0,868874 <bd_init+0x1a10>
  868870:	b8 20 10 00 	mv r2,r1
  868874:	3c 42 00 01 	sli r2,r2,1
  868878:	20 42 00 ff 	andi r2,r2,0xff
  86887c:	20 43 00 80 	andi r3,r2,0x80
  868880:	18 41 00 09 	xori r1,r2,0x9
  868884:	44 60 00 02 	be r3,r0,86888c <bd_init+0x1a28>
  868888:	b8 20 10 00 	mv r2,r1
  86888c:	3c 42 00 01 	sli r2,r2,1
  868890:	20 42 00 ff 	andi r2,r2,0xff
  868894:	20 43 00 80 	andi r3,r2,0x80
  868898:	18 41 00 09 	xori r1,r2,0x9
  86889c:	44 60 00 02 	be r3,r0,8688a4 <bd_init+0x1a40>
  8688a0:	b8 20 10 00 	mv r2,r1
  8688a4:	3c 42 00 01 	sli r2,r2,1
  8688a8:	20 42 00 ff 	andi r2,r2,0xff
  8688ac:	20 43 00 80 	andi r3,r2,0x80
  8688b0:	18 41 00 09 	xori r1,r2,0x9
  8688b4:	44 60 00 02 	be r3,r0,8688bc <bd_init+0x1a58>
  8688b8:	b8 20 10 00 	mv r2,r1
  8688bc:	3c 42 00 01 	sli r2,r2,1
  8688c0:	20 42 00 ff 	andi r2,r2,0xff
  8688c4:	20 43 00 80 	andi r3,r2,0x80
  8688c8:	18 41 00 09 	xori r1,r2,0x9
  8688cc:	44 60 00 02 	be r3,r0,8688d4 <bd_init+0x1a70>
  8688d0:	b8 20 10 00 	mv r2,r1
  8688d4:	3c 42 00 01 	sli r2,r2,1
  8688d8:	20 42 00 ff 	andi r2,r2,0xff
  8688dc:	20 43 00 80 	andi r3,r2,0x80
  8688e0:	18 41 00 09 	xori r1,r2,0x9
  8688e4:	44 60 00 02 	be r3,r0,8688ec <bd_init+0x1a88>
  8688e8:	b8 20 10 00 	mv r2,r1
  8688ec:	3c 42 00 01 	sli r2,r2,1
  8688f0:	20 42 00 ff 	andi r2,r2,0xff
  8688f4:	20 43 00 80 	andi r3,r2,0x80
  8688f8:	18 41 00 09 	xori r1,r2,0x9
  8688fc:	44 60 00 02 	be r3,r0,868904 <bd_init+0x1aa0>
  868900:	b8 20 10 00 	mv r2,r1
  868904:	3c 42 00 01 	sli r2,r2,1
  868908:	20 42 00 ff 	andi r2,r2,0xff
  86890c:	20 43 00 80 	andi r3,r2,0x80
  868910:	18 41 00 09 	xori r1,r2,0x9
  868914:	44 60 00 02 	be r3,r0,86891c <bd_init+0x1ab8>
  868918:	b8 20 10 00 	mv r2,r1
  86891c:	20 41 00 ff 	andi r1,r2,0xff
  868920:	78 0c 00 86 	mvhi r12,0x86
  868924:	78 0d 00 86 	mvhi r13,0x86
  868928:	3c 21 00 01 	sli r1,r1,1
  86892c:	39 8c f0 70 	ori r12,r12,0xf070
  868930:	39 ad f0 74 	ori r13,r13,0xf074
  868934:	29 8a 00 00 	lw r10,(r12+0)
  868938:	29 a3 00 00 	lw r3,(r13+0)
  86893c:	38 21 00 01 	ori r1,r1,0x1
  868940:	b9 60 28 00 	mv r5,r11
  868944:	33 81 00 41 	sb (sp+65),r1
  868948:	40 a1 00 00 	lbu r1,(r5+0)
  86894c:	59 41 00 00 	sw (r10+0),r1
  868950:	28 61 00 00 	lw r1,(r3+0)
  868954:	78 0c 00 86 	mvhi r12,0x86
  868958:	39 8c f0 74 	ori r12,r12,0xf074
  86895c:	20 21 00 01 	andi r1,r1,0x1
  868960:	29 82 00 00 	lw r2,(r12+0)
  868964:	5c 20 ff fb 	bne r1,r0,868950 <bd_init+0x1aec>
  868968:	34 a5 00 01 	addi r5,r5,1
  86896c:	5c 85 ff f7 	bne r4,r5,868948 <bd_init+0x1ae4>
  868970:	78 0d 00 86 	mvhi r13,0x86
  868974:	39 ad f0 78 	ori r13,r13,0xf078
  868978:	29 a3 00 00 	lw r3,(r13+0)
  86897c:	34 01 00 02 	mvi r1,2
  868980:	58 41 00 00 	sw (r2+0),r1
  868984:	34 04 00 01 	mvi r4,1
  868988:	58 64 00 00 	sw (r3+0),r4
  86898c:	78 04 00 86 	mvhi r4,0x86
  868990:	38 84 f0 6c 	ori r4,r4,0xf06c
  868994:	28 83 00 00 	lw r3,(r4+0)
  868998:	78 0a 00 86 	mvhi r10,0x86
  86899c:	39 4a f0 70 	ori r10,r10,0xf070
  8689a0:	29 4c 00 00 	lw r12,(r10+0)
  8689a4:	58 61 00 00 	sw (r3+0),r1
  8689a8:	34 05 00 06 	mvi r5,6
  8689ac:	b8 40 20 00 	mv r4,r2
  8689b0:	34 0a 00 02 	mvi r10,2
  8689b4:	78 0d 00 86 	mvhi r13,0x86
  8689b8:	39 ad e5 8c 	ori r13,r13,0xe58c
  8689bc:	29 a1 00 00 	lw r1,(r13+0)
  8689c0:	e0 00 00 02 	bi 8689c8 <bd_init+0x1b64>
  8689c4:	44 22 fc 1b 	be r1,r2,867a30 <bd_init+0xbcc>
  8689c8:	28 82 00 00 	lw r2,(r4+0)
  8689cc:	78 0d 00 86 	mvhi r13,0x86
  8689d0:	39 ad f0 74 	ori r13,r13,0xf074
  8689d4:	20 42 00 02 	andi r2,r2,0x2
  8689d8:	34 21 ff ff 	addi r1,r1,-1
  8689dc:	29 a3 00 00 	lw r3,(r13+0)
  8689e0:	44 40 ff f9 	be r2,r0,8689c4 <bd_init+0x1b60>
  8689e4:	29 81 00 00 	lw r1,(r12+0)
  8689e8:	34 a5 ff ff 	addi r5,r5,-1
  8689ec:	58 6a 00 00 	sw (r3+0),r10
  8689f0:	5c a0 ff f1 	bne r5,r0,8689b4 <bd_init+0x1b50>
  8689f4:	28 61 00 00 	lw r1,(r3+0)
  8689f8:	20 21 00 02 	andi r1,r1,0x2
  8689fc:	44 20 ff fe 	be r1,r0,8689f4 <bd_init+0x1b90>
  868a00:	78 03 00 86 	mvhi r3,0x86
  868a04:	38 63 f0 6c 	ori r3,r3,0xf06c
  868a08:	28 61 00 00 	lw r1,(r3+0)
  868a0c:	34 02 00 01 	mvi r2,1
  868a10:	34 04 00 00 	mvi r4,0
  868a14:	58 22 00 00 	sw (r1+0),r2
  868a18:	34 01 00 77 	mvi r1,119
  868a1c:	33 81 00 3c 	sb (sp+60),r1
  868a20:	33 86 00 40 	sb (sp+64),r6
  868a24:	33 89 00 3d 	sb (sp+61),r9
  868a28:	33 88 00 3e 	sb (sp+62),r8
  868a2c:	33 87 00 3f 	sb (sp+63),r7
  868a30:	b9 60 10 00 	mv r2,r11
  868a34:	37 86 00 41 	addi r6,sp,65
  868a38:	b9 60 08 00 	mv r1,r11
  868a3c:	3c 83 00 01 	sli r3,r4,1
  868a40:	40 25 00 00 	lbu r5,(r1+0)
  868a44:	20 63 00 ff 	andi r3,r3,0xff
  868a48:	18 64 00 09 	xori r4,r3,0x9
  868a4c:	98 65 38 00 	xor r7,r3,r5
  868a50:	20 e7 00 80 	andi r7,r7,0x80
  868a54:	44 e0 00 02 	be r7,r0,868a5c <bd_init+0x1bf8>
  868a58:	b8 80 18 00 	mv r3,r4
  868a5c:	3c a4 00 01 	sli r4,r5,1
  868a60:	3c 63 00 01 	sli r3,r3,1
  868a64:	20 84 00 ff 	andi r4,r4,0xff
  868a68:	20 63 00 ff 	andi r3,r3,0xff
  868a6c:	98 64 38 00 	xor r7,r3,r4
  868a70:	20 e7 00 80 	andi r7,r7,0x80
  868a74:	18 65 00 09 	xori r5,r3,0x9
  868a78:	44 e0 00 02 	be r7,r0,868a80 <bd_init+0x1c1c>
  868a7c:	b8 a0 18 00 	mv r3,r5
  868a80:	3c 84 00 01 	sli r4,r4,1
  868a84:	3c 63 00 01 	sli r3,r3,1
  868a88:	20 84 00 ff 	andi r4,r4,0xff
  868a8c:	20 63 00 ff 	andi r3,r3,0xff
  868a90:	98 64 38 00 	xor r7,r3,r4
  868a94:	20 e7 00 80 	andi r7,r7,0x80
  868a98:	18 65 00 09 	xori r5,r3,0x9
  868a9c:	44 e0 00 02 	be r7,r0,868aa4 <bd_init+0x1c40>
  868aa0:	b8 a0 18 00 	mv r3,r5
  868aa4:	3c 84 00 01 	sli r4,r4,1
  868aa8:	3c 63 00 01 	sli r3,r3,1
  868aac:	20 84 00 ff 	andi r4,r4,0xff
  868ab0:	20 63 00 ff 	andi r3,r3,0xff
  868ab4:	98 64 38 00 	xor r7,r3,r4
  868ab8:	20 e7 00 80 	andi r7,r7,0x80
  868abc:	18 65 00 09 	xori r5,r3,0x9
  868ac0:	44 e0 00 02 	be r7,r0,868ac8 <bd_init+0x1c64>
  868ac4:	b8 a0 18 00 	mv r3,r5
  868ac8:	3c 84 00 01 	sli r4,r4,1
  868acc:	3c 63 00 01 	sli r3,r3,1
  868ad0:	20 84 00 ff 	andi r4,r4,0xff
  868ad4:	20 63 00 ff 	andi r3,r3,0xff
  868ad8:	98 64 38 00 	xor r7,r3,r4
  868adc:	20 e7 00 80 	andi r7,r7,0x80
  868ae0:	18 65 00 09 	xori r5,r3,0x9
  868ae4:	44 e0 00 02 	be r7,r0,868aec <bd_init+0x1c88>
  868ae8:	b8 a0 18 00 	mv r3,r5
  868aec:	3c 84 00 01 	sli r4,r4,1
  868af0:	3c 63 00 01 	sli r3,r3,1
  868af4:	20 84 00 ff 	andi r4,r4,0xff
  868af8:	20 63 00 ff 	andi r3,r3,0xff
  868afc:	98 64 38 00 	xor r7,r3,r4
  868b00:	20 e7 00 80 	andi r7,r7,0x80
  868b04:	18 65 00 09 	xori r5,r3,0x9
  868b08:	44 e0 00 02 	be r7,r0,868b10 <bd_init+0x1cac>
  868b0c:	b8 a0 18 00 	mv r3,r5
  868b10:	3c 84 00 01 	sli r4,r4,1
  868b14:	3c 63 00 01 	sli r3,r3,1
  868b18:	20 84 00 ff 	andi r4,r4,0xff
  868b1c:	20 63 00 ff 	andi r3,r3,0xff
  868b20:	98 64 38 00 	xor r7,r3,r4
  868b24:	20 e7 00 80 	andi r7,r7,0x80
  868b28:	18 65 00 09 	xori r5,r3,0x9
  868b2c:	44 e0 00 02 	be r7,r0,868b34 <bd_init+0x1cd0>
  868b30:	b8 a0 18 00 	mv r3,r5
  868b34:	3c 63 00 01 	sli r3,r3,1
  868b38:	3c 84 00 01 	sli r4,r4,1
  868b3c:	20 63 00 ff 	andi r3,r3,0xff
  868b40:	98 64 28 00 	xor r5,r3,r4
  868b44:	20 a5 00 80 	andi r5,r5,0x80
  868b48:	18 64 00 09 	xori r4,r3,0x9
  868b4c:	44 a0 00 02 	be r5,r0,868b54 <bd_init+0x1cf0>
  868b50:	b8 80 18 00 	mv r3,r4
  868b54:	34 21 00 01 	addi r1,r1,1
  868b58:	b8 60 20 00 	mv r4,r3
  868b5c:	5c c1 ff b8 	bne r6,r1,868a3c <bd_init+0x1bd8>
  868b60:	3c 61 00 01 	sli r1,r3,1
  868b64:	78 04 00 86 	mvhi r4,0x86
  868b68:	78 03 00 86 	mvhi r3,0x86
  868b6c:	38 63 f0 70 	ori r3,r3,0xf070
  868b70:	38 84 f0 74 	ori r4,r4,0xf074
  868b74:	28 67 00 00 	lw r7,(r3+0)
  868b78:	28 83 00 00 	lw r3,(r4+0)
  868b7c:	38 21 00 01 	ori r1,r1,0x1
  868b80:	33 81 00 41 	sb (sp+65),r1
  868b84:	35 65 00 06 	addi r5,r11,6
  868b88:	40 41 00 00 	lbu r1,(r2+0)
  868b8c:	58 e1 00 00 	sw (r7+0),r1
  868b90:	28 61 00 00 	lw r1,(r3+0)
  868b94:	78 08 00 86 	mvhi r8,0x86
  868b98:	39 08 f0 74 	ori r8,r8,0xf074
  868b9c:	20 21 00 01 	andi r1,r1,0x1
  868ba0:	29 04 00 00 	lw r4,(r8+0)
  868ba4:	5c 20 ff fb 	bne r1,r0,868b90 <bd_init+0x1d2c>
  868ba8:	34 42 00 01 	addi r2,r2,1
  868bac:	5c 45 ff f7 	bne r2,r5,868b88 <bd_init+0x1d24>
  868bb0:	78 09 00 86 	mvhi r9,0x86
  868bb4:	39 29 f0 78 	ori r9,r9,0xf078
  868bb8:	29 22 00 00 	lw r2,(r9+0)
  868bbc:	34 01 00 02 	mvi r1,2
  868bc0:	78 0a 00 86 	mvhi r10,0x86
  868bc4:	58 81 00 00 	sw (r4+0),r1
  868bc8:	34 03 00 01 	mvi r3,1
  868bcc:	39 4a f0 6c 	ori r10,r10,0xf06c
  868bd0:	78 0c 00 86 	mvhi r12,0x86
  868bd4:	58 43 00 00 	sw (r2+0),r3
  868bd8:	39 8c f0 70 	ori r12,r12,0xf070
  868bdc:	29 42 00 00 	lw r2,(r10+0)
  868be0:	29 88 00 00 	lw r8,(r12+0)
  868be4:	34 05 00 06 	mvi r5,6
  868be8:	58 41 00 00 	sw (r2+0),r1
  868bec:	34 07 00 02 	mvi r7,2
  868bf0:	78 0d 00 86 	mvhi r13,0x86
  868bf4:	39 ad e5 8c 	ori r13,r13,0xe58c
  868bf8:	29 a1 00 00 	lw r1,(r13+0)
  868bfc:	e0 00 00 02 	bi 868c04 <bd_init+0x1da0>
  868c00:	44 22 fb 8c 	be r1,r2,867a30 <bd_init+0xbcc>
  868c04:	28 82 00 00 	lw r2,(r4+0)
  868c08:	78 09 00 86 	mvhi r9,0x86
  868c0c:	39 29 f0 74 	ori r9,r9,0xf074
  868c10:	20 42 00 02 	andi r2,r2,0x2
  868c14:	34 21 ff ff 	addi r1,r1,-1
  868c18:	29 23 00 00 	lw r3,(r9+0)
  868c1c:	44 40 ff f9 	be r2,r0,868c00 <bd_init+0x1d9c>
  868c20:	29 01 00 00 	lw r1,(r8+0)
  868c24:	34 a5 ff ff 	addi r5,r5,-1
  868c28:	58 67 00 00 	sw (r3+0),r7
  868c2c:	5c a0 ff f1 	bne r5,r0,868bf0 <bd_init+0x1d8c>
  868c30:	28 61 00 00 	lw r1,(r3+0)
  868c34:	20 21 00 02 	andi r1,r1,0x2
  868c38:	44 20 ff fe 	be r1,r0,868c30 <bd_init+0x1dcc>
  868c3c:	78 04 00 86 	mvhi r4,0x86
  868c40:	38 84 f0 6c 	ori r4,r4,0xf06c
  868c44:	28 81 00 00 	lw r1,(r4+0)
  868c48:	34 02 00 01 	mvi r2,1
  868c4c:	34 04 00 00 	mvi r4,0
  868c50:	58 22 00 00 	sw (r1+0),r2
  868c54:	34 01 00 46 	mvi r1,70
  868c58:	33 81 00 3c 	sb (sp+60),r1
  868c5c:	34 01 00 02 	mvi r1,2
  868c60:	33 81 00 40 	sb (sp+64),r1
  868c64:	33 80 00 3d 	sb (sp+61),r0
  868c68:	33 80 00 3e 	sb (sp+62),r0
  868c6c:	33 80 00 3f 	sb (sp+63),r0
  868c70:	b9 60 10 00 	mv r2,r11
  868c74:	b9 60 08 00 	mv r1,r11
  868c78:	3c 83 00 01 	sli r3,r4,1
  868c7c:	40 25 00 00 	lbu r5,(r1+0)
  868c80:	20 63 00 ff 	andi r3,r3,0xff
  868c84:	18 64 00 09 	xori r4,r3,0x9
  868c88:	98 65 38 00 	xor r7,r3,r5
  868c8c:	20 e7 00 80 	andi r7,r7,0x80
  868c90:	44 e0 00 02 	be r7,r0,868c98 <bd_init+0x1e34>
  868c94:	b8 80 18 00 	mv r3,r4
  868c98:	3c a4 00 01 	sli r4,r5,1
  868c9c:	3c 63 00 01 	sli r3,r3,1
  868ca0:	20 84 00 ff 	andi r4,r4,0xff
  868ca4:	20 63 00 ff 	andi r3,r3,0xff
  868ca8:	98 64 38 00 	xor r7,r3,r4
  868cac:	20 e7 00 80 	andi r7,r7,0x80
  868cb0:	18 65 00 09 	xori r5,r3,0x9
  868cb4:	44 e0 00 02 	be r7,r0,868cbc <bd_init+0x1e58>
  868cb8:	b8 a0 18 00 	mv r3,r5
  868cbc:	3c 84 00 01 	sli r4,r4,1
  868cc0:	3c 63 00 01 	sli r3,r3,1
  868cc4:	20 84 00 ff 	andi r4,r4,0xff
  868cc8:	20 63 00 ff 	andi r3,r3,0xff
  868ccc:	98 64 38 00 	xor r7,r3,r4
  868cd0:	20 e7 00 80 	andi r7,r7,0x80
  868cd4:	18 65 00 09 	xori r5,r3,0x9
  868cd8:	44 e0 00 02 	be r7,r0,868ce0 <bd_init+0x1e7c>
  868cdc:	b8 a0 18 00 	mv r3,r5
  868ce0:	3c 84 00 01 	sli r4,r4,1
  868ce4:	3c 63 00 01 	sli r3,r3,1
  868ce8:	20 84 00 ff 	andi r4,r4,0xff
  868cec:	20 63 00 ff 	andi r3,r3,0xff
  868cf0:	98 64 38 00 	xor r7,r3,r4
  868cf4:	20 e7 00 80 	andi r7,r7,0x80
  868cf8:	18 65 00 09 	xori r5,r3,0x9
  868cfc:	44 e0 00 02 	be r7,r0,868d04 <bd_init+0x1ea0>
  868d00:	b8 a0 18 00 	mv r3,r5
  868d04:	3c 84 00 01 	sli r4,r4,1
  868d08:	3c 63 00 01 	sli r3,r3,1
  868d0c:	20 84 00 ff 	andi r4,r4,0xff
  868d10:	20 63 00 ff 	andi r3,r3,0xff
  868d14:	98 64 38 00 	xor r7,r3,r4
  868d18:	20 e7 00 80 	andi r7,r7,0x80
  868d1c:	18 65 00 09 	xori r5,r3,0x9
  868d20:	44 e0 00 02 	be r7,r0,868d28 <bd_init+0x1ec4>
  868d24:	b8 a0 18 00 	mv r3,r5
  868d28:	3c 84 00 01 	sli r4,r4,1
  868d2c:	3c 63 00 01 	sli r3,r3,1
  868d30:	20 84 00 ff 	andi r4,r4,0xff
  868d34:	20 63 00 ff 	andi r3,r3,0xff
  868d38:	98 64 38 00 	xor r7,r3,r4
  868d3c:	20 e7 00 80 	andi r7,r7,0x80
  868d40:	18 65 00 09 	xori r5,r3,0x9
  868d44:	44 e0 00 02 	be r7,r0,868d4c <bd_init+0x1ee8>
  868d48:	b8 a0 18 00 	mv r3,r5
  868d4c:	3c 84 00 01 	sli r4,r4,1
  868d50:	3c 63 00 01 	sli r3,r3,1
  868d54:	20 84 00 ff 	andi r4,r4,0xff
  868d58:	20 63 00 ff 	andi r3,r3,0xff
  868d5c:	98 64 38 00 	xor r7,r3,r4
  868d60:	20 e7 00 80 	andi r7,r7,0x80
  868d64:	18 65 00 09 	xori r5,r3,0x9
  868d68:	44 e0 00 02 	be r7,r0,868d70 <bd_init+0x1f0c>
  868d6c:	b8 a0 18 00 	mv r3,r5
  868d70:	3c 63 00 01 	sli r3,r3,1
  868d74:	3c 84 00 01 	sli r4,r4,1
  868d78:	20 63 00 ff 	andi r3,r3,0xff
  868d7c:	98 64 28 00 	xor r5,r3,r4
  868d80:	20 a5 00 80 	andi r5,r5,0x80
  868d84:	18 64 00 09 	xori r4,r3,0x9
  868d88:	44 a0 00 02 	be r5,r0,868d90 <bd_init+0x1f2c>
  868d8c:	b8 80 18 00 	mv r3,r4
  868d90:	34 21 00 01 	addi r1,r1,1
  868d94:	b8 60 20 00 	mv r4,r3
  868d98:	5c c1 ff b8 	bne r6,r1,868c78 <bd_init+0x1e14>
  868d9c:	78 0a 00 86 	mvhi r10,0x86
  868da0:	78 0c 00 86 	mvhi r12,0x86
  868da4:	3c 61 00 01 	sli r1,r3,1
  868da8:	39 4a f0 70 	ori r10,r10,0xf070
  868dac:	39 8c f0 74 	ori r12,r12,0xf074
  868db0:	29 43 00 00 	lw r3,(r10+0)
  868db4:	29 84 00 00 	lw r4,(r12+0)
  868db8:	38 21 00 01 	ori r1,r1,0x1
  868dbc:	33 81 00 41 	sb (sp+65),r1
  868dc0:	35 6b 00 06 	addi r11,r11,6
  868dc4:	40 41 00 00 	lbu r1,(r2+0)
  868dc8:	58 61 00 00 	sw (r3+0),r1
  868dcc:	28 81 00 00 	lw r1,(r4+0)
  868dd0:	78 0d 00 86 	mvhi r13,0x86
  868dd4:	39 ad f0 74 	ori r13,r13,0xf074
  868dd8:	20 21 00 01 	andi r1,r1,0x1
  868ddc:	29 a5 00 00 	lw r5,(r13+0)
  868de0:	5c 20 ff fb 	bne r1,r0,868dcc <bd_init+0x1f68>
  868de4:	34 42 00 01 	addi r2,r2,1
  868de8:	5c 4b ff f7 	bne r2,r11,868dc4 <bd_init+0x1f60>
  868dec:	78 04 00 86 	mvhi r4,0x86
  868df0:	38 84 f0 78 	ori r4,r4,0xf078
  868df4:	28 82 00 00 	lw r2,(r4+0)
  868df8:	34 01 00 02 	mvi r1,2
  868dfc:	78 06 00 86 	mvhi r6,0x86
  868e00:	58 a1 00 00 	sw (r5+0),r1
  868e04:	34 03 00 01 	mvi r3,1
  868e08:	38 c6 f0 6c 	ori r6,r6,0xf06c
  868e0c:	78 08 00 86 	mvhi r8,0x86
  868e10:	58 43 00 00 	sw (r2+0),r3
  868e14:	39 08 f0 70 	ori r8,r8,0xf070
  868e18:	28 c2 00 00 	lw r2,(r6+0)
  868e1c:	29 07 00 00 	lw r7,(r8+0)
  868e20:	34 03 00 06 	mvi r3,6
  868e24:	58 41 00 00 	sw (r2+0),r1
  868e28:	34 06 00 02 	mvi r6,2
  868e2c:	78 09 00 86 	mvhi r9,0x86
  868e30:	39 29 e5 8c 	ori r9,r9,0xe58c
  868e34:	29 21 00 00 	lw r1,(r9+0)
  868e38:	e0 00 00 02 	bi 868e40 <bd_init+0x1fdc>
  868e3c:	44 22 fa fd 	be r1,r2,867a30 <bd_init+0xbcc>
  868e40:	28 a2 00 00 	lw r2,(r5+0)
  868e44:	78 0a 00 86 	mvhi r10,0x86
  868e48:	39 4a f0 74 	ori r10,r10,0xf074
  868e4c:	20 42 00 02 	andi r2,r2,0x2
  868e50:	34 21 ff ff 	addi r1,r1,-1
  868e54:	29 44 00 00 	lw r4,(r10+0)
  868e58:	44 40 ff f9 	be r2,r0,868e3c <bd_init+0x1fd8>
  868e5c:	28 e1 00 00 	lw r1,(r7+0)
  868e60:	34 63 ff ff 	addi r3,r3,-1
  868e64:	58 86 00 00 	sw (r4+0),r6
  868e68:	5c 60 ff f1 	bne r3,r0,868e2c <bd_init+0x1fc8>
  868e6c:	28 81 00 00 	lw r1,(r4+0)
  868e70:	20 21 00 02 	andi r1,r1,0x2
  868e74:	44 20 ff fe 	be r1,r0,868e6c <bd_init+0x2008>
  868e78:	78 05 00 86 	mvhi r5,0x86
  868e7c:	38 a5 f0 68 	ori r5,r5,0xf068
  868e80:	28 a2 00 00 	lw r2,(r5+0)
  868e84:	34 03 00 03 	mvi r3,3
  868e88:	34 01 00 01 	mvi r1,1
  868e8c:	58 43 00 00 	sw (r2+0),r3
  868e90:	e3 ff fa e9 	bi 867a34 <bd_init+0xbd0>

00868e94 <bd_readblock>:
  868e94:	37 9c ff e4 	addi sp,sp,-28
  868e98:	5b 8b 00 14 	sw (sp+20),r11
  868e9c:	5b 8c 00 10 	sw (sp+16),r12
  868ea0:	5b 8d 00 0c 	sw (sp+12),r13
  868ea4:	5b 8e 00 08 	sw (sp+8),r14
  868ea8:	5b 8f 00 04 	sw (sp+4),r15
  868eac:	78 08 00 86 	mvhi r8,0x86
  868eb0:	3c 21 00 09 	sli r1,r1,9
  868eb4:	39 08 f0 6c 	ori r8,r8,0xf06c
  868eb8:	00 24 00 08 	srui r4,r1,8
  868ebc:	00 26 00 18 	srui r6,r1,24
  868ec0:	00 25 00 10 	srui r5,r1,16
  868ec4:	34 03 00 7a 	mvi r3,122
  868ec8:	29 01 00 00 	lw r1,(r8+0)
  868ecc:	3c 63 00 01 	sli r3,r3,1
  868ed0:	34 07 00 01 	mvi r7,1
  868ed4:	58 27 00 00 	sw (r1+0),r7
  868ed8:	18 61 00 80 	xori r1,r3,0x80
  868edc:	34 07 00 51 	mvi r7,81
  868ee0:	33 84 00 1b 	sb (sp+27),r4
  868ee4:	33 87 00 18 	sb (sp+24),r7
  868ee8:	33 86 00 19 	sb (sp+25),r6
  868eec:	33 85 00 1a 	sb (sp+26),r5
  868ef0:	33 80 00 1c 	sb (sp+28),r0
  868ef4:	20 21 00 80 	andi r1,r1,0x80
  868ef8:	38 64 00 09 	ori r4,r3,0x9
  868efc:	44 20 00 02 	be r1,r0,868f04 <bd_readblock+0x70>
  868f00:	b8 80 18 00 	mv r3,r4
  868f04:	3c 61 00 01 	sli r1,r3,1
  868f08:	43 84 00 19 	lbu r4,(sp+25)
  868f0c:	20 21 00 ff 	andi r1,r1,0xff
  868f10:	18 25 00 09 	xori r5,r1,0x9
  868f14:	98 24 18 00 	xor r3,r1,r4
  868f18:	20 63 00 80 	andi r3,r3,0x80
  868f1c:	44 60 00 02 	be r3,r0,868f24 <bd_readblock+0x90>
  868f20:	b8 a0 08 00 	mv r1,r5
  868f24:	3c 83 00 01 	sli r3,r4,1
  868f28:	3c 21 00 01 	sli r1,r1,1
  868f2c:	20 63 00 ff 	andi r3,r3,0xff
  868f30:	20 21 00 ff 	andi r1,r1,0xff
  868f34:	98 23 20 00 	xor r4,r1,r3
  868f38:	20 84 00 80 	andi r4,r4,0x80
  868f3c:	18 25 00 09 	xori r5,r1,0x9
  868f40:	44 80 00 02 	be r4,r0,868f48 <bd_readblock+0xb4>
  868f44:	b8 a0 08 00 	mv r1,r5
  868f48:	3c 63 00 01 	sli r3,r3,1
  868f4c:	3c 21 00 01 	sli r1,r1,1
  868f50:	20 63 00 ff 	andi r3,r3,0xff
  868f54:	20 21 00 ff 	andi r1,r1,0xff
  868f58:	98 23 20 00 	xor r4,r1,r3
  868f5c:	20 84 00 80 	andi r4,r4,0x80
  868f60:	18 25 00 09 	xori r5,r1,0x9
  868f64:	44 80 00 02 	be r4,r0,868f6c <bd_readblock+0xd8>
  868f68:	b8 a0 08 00 	mv r1,r5
  868f6c:	3c 63 00 01 	sli r3,r3,1
  868f70:	3c 21 00 01 	sli r1,r1,1
  868f74:	20 63 00 ff 	andi r3,r3,0xff
  868f78:	20 21 00 ff 	andi r1,r1,0xff
  868f7c:	98 23 20 00 	xor r4,r1,r3
  868f80:	20 84 00 80 	andi r4,r4,0x80
  868f84:	18 25 00 09 	xori r5,r1,0x9
  868f88:	44 80 00 02 	be r4,r0,868f90 <bd_readblock+0xfc>
  868f8c:	b8 a0 08 00 	mv r1,r5
  868f90:	3c 63 00 01 	sli r3,r3,1
  868f94:	3c 21 00 01 	sli r1,r1,1
  868f98:	20 63 00 ff 	andi r3,r3,0xff
  868f9c:	20 21 00 ff 	andi r1,r1,0xff
  868fa0:	98 23 20 00 	xor r4,r1,r3
  868fa4:	20 84 00 80 	andi r4,r4,0x80
  868fa8:	18 25 00 09 	xori r5,r1,0x9
  868fac:	44 80 00 02 	be r4,r0,868fb4 <bd_readblock+0x120>
  868fb0:	b8 a0 08 00 	mv r1,r5
  868fb4:	3c 63 00 01 	sli r3,r3,1
  868fb8:	3c 21 00 01 	sli r1,r1,1
  868fbc:	20 63 00 ff 	andi r3,r3,0xff
  868fc0:	20 21 00 ff 	andi r1,r1,0xff
  868fc4:	98 23 20 00 	xor r4,r1,r3
  868fc8:	20 84 00 80 	andi r4,r4,0x80
  868fcc:	18 25 00 09 	xori r5,r1,0x9
  868fd0:	44 80 00 02 	be r4,r0,868fd8 <bd_readblock+0x144>
  868fd4:	b8 a0 08 00 	mv r1,r5
  868fd8:	3c 63 00 01 	sli r3,r3,1
  868fdc:	3c 21 00 01 	sli r1,r1,1
  868fe0:	20 63 00 ff 	andi r3,r3,0xff
  868fe4:	20 21 00 ff 	andi r1,r1,0xff
  868fe8:	98 23 20 00 	xor r4,r1,r3
  868fec:	20 84 00 80 	andi r4,r4,0x80
  868ff0:	18 25 00 09 	xori r5,r1,0x9
  868ff4:	44 80 00 02 	be r4,r0,868ffc <bd_readblock+0x168>
  868ff8:	b8 a0 08 00 	mv r1,r5
  868ffc:	3c 21 00 01 	sli r1,r1,1
  869000:	3c 63 00 01 	sli r3,r3,1
  869004:	20 21 00 ff 	andi r1,r1,0xff
  869008:	98 23 18 00 	xor r3,r1,r3
  86900c:	20 63 00 80 	andi r3,r3,0x80
  869010:	18 24 00 09 	xori r4,r1,0x9
  869014:	44 60 00 02 	be r3,r0,86901c <bd_readblock+0x188>
  869018:	b8 80 08 00 	mv r1,r4
  86901c:	43 83 00 1a 	lbu r3,(sp+26)
  869020:	3c 21 00 01 	sli r1,r1,1
  869024:	20 21 00 ff 	andi r1,r1,0xff
  869028:	98 23 20 00 	xor r4,r1,r3
  86902c:	20 84 00 80 	andi r4,r4,0x80
  869030:	18 25 00 09 	xori r5,r1,0x9
  869034:	44 80 00 02 	be r4,r0,86903c <bd_readblock+0x1a8>
  869038:	b8 a0 08 00 	mv r1,r5
  86903c:	3c 63 00 01 	sli r3,r3,1
  869040:	3c 21 00 01 	sli r1,r1,1
  869044:	20 63 00 ff 	andi r3,r3,0xff
  869048:	20 21 00 ff 	andi r1,r1,0xff
  86904c:	98 23 20 00 	xor r4,r1,r3
  869050:	20 84 00 80 	andi r4,r4,0x80
  869054:	18 25 00 09 	xori r5,r1,0x9
  869058:	44 80 00 02 	be r4,r0,869060 <bd_readblock+0x1cc>
  86905c:	b8 a0 08 00 	mv r1,r5
  869060:	3c 63 00 01 	sli r3,r3,1
  869064:	3c 21 00 01 	sli r1,r1,1
  869068:	20 63 00 ff 	andi r3,r3,0xff
  86906c:	20 21 00 ff 	andi r1,r1,0xff
  869070:	98 23 20 00 	xor r4,r1,r3
  869074:	20 84 00 80 	andi r4,r4,0x80
  869078:	18 25 00 09 	xori r5,r1,0x9
  86907c:	44 80 00 02 	be r4,r0,869084 <bd_readblock+0x1f0>
  869080:	b8 a0 08 00 	mv r1,r5
  869084:	3c 63 00 01 	sli r3,r3,1
  869088:	3c 21 00 01 	sli r1,r1,1
  86908c:	20 63 00 ff 	andi r3,r3,0xff
  869090:	20 21 00 ff 	andi r1,r1,0xff
  869094:	98 23 20 00 	xor r4,r1,r3
  869098:	20 84 00 80 	andi r4,r4,0x80
  86909c:	18 25 00 09 	xori r5,r1,0x9
  8690a0:	44 80 00 02 	be r4,r0,8690a8 <bd_readblock+0x214>
  8690a4:	b8 a0 08 00 	mv r1,r5
  8690a8:	3c 63 00 01 	sli r3,r3,1
  8690ac:	3c 21 00 01 	sli r1,r1,1
  8690b0:	20 63 00 ff 	andi r3,r3,0xff
  8690b4:	20 21 00 ff 	andi r1,r1,0xff
  8690b8:	98 23 20 00 	xor r4,r1,r3
  8690bc:	20 84 00 80 	andi r4,r4,0x80
  8690c0:	18 25 00 09 	xori r5,r1,0x9
  8690c4:	44 80 00 02 	be r4,r0,8690cc <bd_readblock+0x238>
  8690c8:	b8 a0 08 00 	mv r1,r5
  8690cc:	3c 63 00 01 	sli r3,r3,1
  8690d0:	3c 21 00 01 	sli r1,r1,1
  8690d4:	20 63 00 ff 	andi r3,r3,0xff
  8690d8:	20 21 00 ff 	andi r1,r1,0xff
  8690dc:	98 23 20 00 	xor r4,r1,r3
  8690e0:	20 84 00 80 	andi r4,r4,0x80
  8690e4:	18 25 00 09 	xori r5,r1,0x9
  8690e8:	44 80 00 02 	be r4,r0,8690f0 <bd_readblock+0x25c>
  8690ec:	b8 a0 08 00 	mv r1,r5
  8690f0:	3c 63 00 01 	sli r3,r3,1
  8690f4:	3c 21 00 01 	sli r1,r1,1
  8690f8:	20 63 00 ff 	andi r3,r3,0xff
  8690fc:	20 21 00 ff 	andi r1,r1,0xff
  869100:	98 23 20 00 	xor r4,r1,r3
  869104:	20 84 00 80 	andi r4,r4,0x80
  869108:	18 25 00 09 	xori r5,r1,0x9
  86910c:	44 80 00 02 	be r4,r0,869114 <bd_readblock+0x280>
  869110:	b8 a0 08 00 	mv r1,r5
  869114:	3c 21 00 01 	sli r1,r1,1
  869118:	3c 63 00 01 	sli r3,r3,1
  86911c:	20 21 00 ff 	andi r1,r1,0xff
  869120:	98 23 18 00 	xor r3,r1,r3
  869124:	20 63 00 80 	andi r3,r3,0x80
  869128:	18 24 00 09 	xori r4,r1,0x9
  86912c:	44 60 00 02 	be r3,r0,869134 <bd_readblock+0x2a0>
  869130:	b8 80 08 00 	mv r1,r4
  869134:	43 83 00 1b 	lbu r3,(sp+27)
  869138:	3c 21 00 01 	sli r1,r1,1
  86913c:	20 21 00 ff 	andi r1,r1,0xff
  869140:	98 23 20 00 	xor r4,r1,r3
  869144:	20 84 00 80 	andi r4,r4,0x80
  869148:	18 25 00 09 	xori r5,r1,0x9
  86914c:	44 80 00 02 	be r4,r0,869154 <bd_readblock+0x2c0>
  869150:	b8 a0 08 00 	mv r1,r5
  869154:	3c 63 00 01 	sli r3,r3,1
  869158:	3c 21 00 01 	sli r1,r1,1
  86915c:	20 63 00 ff 	andi r3,r3,0xff
  869160:	20 21 00 ff 	andi r1,r1,0xff
  869164:	98 23 20 00 	xor r4,r1,r3
  869168:	20 84 00 80 	andi r4,r4,0x80
  86916c:	18 25 00 09 	xori r5,r1,0x9
  869170:	44 80 00 02 	be r4,r0,869178 <bd_readblock+0x2e4>
  869174:	b8 a0 08 00 	mv r1,r5
  869178:	3c 63 00 01 	sli r3,r3,1
  86917c:	3c 21 00 01 	sli r1,r1,1
  869180:	20 63 00 ff 	andi r3,r3,0xff
  869184:	20 21 00 ff 	andi r1,r1,0xff
  869188:	98 23 20 00 	xor r4,r1,r3
  86918c:	20 84 00 80 	andi r4,r4,0x80
  869190:	18 25 00 09 	xori r5,r1,0x9
  869194:	44 80 00 02 	be r4,r0,86919c <bd_readblock+0x308>
  869198:	b8 a0 08 00 	mv r1,r5
  86919c:	3c 63 00 01 	sli r3,r3,1
  8691a0:	3c 21 00 01 	sli r1,r1,1
  8691a4:	20 63 00 ff 	andi r3,r3,0xff
  8691a8:	20 21 00 ff 	andi r1,r1,0xff
  8691ac:	98 23 20 00 	xor r4,r1,r3
  8691b0:	20 84 00 80 	andi r4,r4,0x80
  8691b4:	18 25 00 09 	xori r5,r1,0x9
  8691b8:	44 80 00 02 	be r4,r0,8691c0 <bd_readblock+0x32c>
  8691bc:	b8 a0 08 00 	mv r1,r5
  8691c0:	3c 63 00 01 	sli r3,r3,1
  8691c4:	3c 21 00 01 	sli r1,r1,1
  8691c8:	20 63 00 ff 	andi r3,r3,0xff
  8691cc:	20 21 00 ff 	andi r1,r1,0xff
  8691d0:	98 23 20 00 	xor r4,r1,r3
  8691d4:	20 84 00 80 	andi r4,r4,0x80
  8691d8:	18 25 00 09 	xori r5,r1,0x9
  8691dc:	44 80 00 02 	be r4,r0,8691e4 <bd_readblock+0x350>
  8691e0:	b8 a0 08 00 	mv r1,r5
  8691e4:	3c 63 00 01 	sli r3,r3,1
  8691e8:	3c 21 00 01 	sli r1,r1,1
  8691ec:	20 63 00 ff 	andi r3,r3,0xff
  8691f0:	20 21 00 ff 	andi r1,r1,0xff
  8691f4:	98 23 20 00 	xor r4,r1,r3
  8691f8:	20 84 00 80 	andi r4,r4,0x80
  8691fc:	18 25 00 09 	xori r5,r1,0x9
  869200:	44 80 00 02 	be r4,r0,869208 <bd_readblock+0x374>
  869204:	b8 a0 08 00 	mv r1,r5
  869208:	3c 63 00 01 	sli r3,r3,1
  86920c:	3c 21 00 01 	sli r1,r1,1
  869210:	20 63 00 ff 	andi r3,r3,0xff
  869214:	20 21 00 ff 	andi r1,r1,0xff
  869218:	98 23 20 00 	xor r4,r1,r3
  86921c:	20 84 00 80 	andi r4,r4,0x80
  869220:	18 25 00 09 	xori r5,r1,0x9
  869224:	44 80 00 02 	be r4,r0,86922c <bd_readblock+0x398>
  869228:	b8 a0 08 00 	mv r1,r5
  86922c:	3c 21 00 01 	sli r1,r1,1
  869230:	3c 63 00 01 	sli r3,r3,1
  869234:	20 21 00 ff 	andi r1,r1,0xff
  869238:	98 23 18 00 	xor r3,r1,r3
  86923c:	20 63 00 80 	andi r3,r3,0x80
  869240:	18 24 00 09 	xori r4,r1,0x9
  869244:	44 60 00 02 	be r3,r0,86924c <bd_readblock+0x3b8>
  869248:	b8 80 08 00 	mv r1,r4
  86924c:	3c 21 00 01 	sli r1,r1,1
  869250:	20 21 00 ff 	andi r1,r1,0xff
  869254:	20 23 00 80 	andi r3,r1,0x80
  869258:	18 24 00 09 	xori r4,r1,0x9
  86925c:	44 60 00 02 	be r3,r0,869264 <bd_readblock+0x3d0>
  869260:	b8 80 08 00 	mv r1,r4
  869264:	3c 21 00 01 	sli r1,r1,1
  869268:	20 21 00 ff 	andi r1,r1,0xff
  86926c:	20 23 00 80 	andi r3,r1,0x80
  869270:	18 24 00 09 	xori r4,r1,0x9
  869274:	44 60 00 02 	be r3,r0,86927c <bd_readblock+0x3e8>
  869278:	b8 80 08 00 	mv r1,r4
  86927c:	3c 21 00 01 	sli r1,r1,1
  869280:	20 21 00 ff 	andi r1,r1,0xff
  869284:	20 23 00 80 	andi r3,r1,0x80
  869288:	18 24 00 09 	xori r4,r1,0x9
  86928c:	44 60 00 02 	be r3,r0,869294 <bd_readblock+0x400>
  869290:	b8 80 08 00 	mv r1,r4
  869294:	3c 21 00 01 	sli r1,r1,1
  869298:	20 21 00 ff 	andi r1,r1,0xff
  86929c:	20 23 00 80 	andi r3,r1,0x80
  8692a0:	18 24 00 09 	xori r4,r1,0x9
  8692a4:	44 60 00 02 	be r3,r0,8692ac <bd_readblock+0x418>
  8692a8:	b8 80 08 00 	mv r1,r4
  8692ac:	3c 21 00 01 	sli r1,r1,1
  8692b0:	20 21 00 ff 	andi r1,r1,0xff
  8692b4:	20 23 00 80 	andi r3,r1,0x80
  8692b8:	18 24 00 09 	xori r4,r1,0x9
  8692bc:	44 60 00 02 	be r3,r0,8692c4 <bd_readblock+0x430>
  8692c0:	b8 80 08 00 	mv r1,r4
  8692c4:	3c 21 00 01 	sli r1,r1,1
  8692c8:	20 21 00 ff 	andi r1,r1,0xff
  8692cc:	20 23 00 80 	andi r3,r1,0x80
  8692d0:	18 24 00 09 	xori r4,r1,0x9
  8692d4:	44 60 00 02 	be r3,r0,8692dc <bd_readblock+0x448>
  8692d8:	b8 80 08 00 	mv r1,r4
  8692dc:	3c 21 00 01 	sli r1,r1,1
  8692e0:	20 21 00 ff 	andi r1,r1,0xff
  8692e4:	20 23 00 80 	andi r3,r1,0x80
  8692e8:	18 24 00 09 	xori r4,r1,0x9
  8692ec:	44 60 00 02 	be r3,r0,8692f4 <bd_readblock+0x460>
  8692f0:	b8 80 08 00 	mv r1,r4
  8692f4:	3c 21 00 01 	sli r1,r1,1
  8692f8:	20 21 00 ff 	andi r1,r1,0xff
  8692fc:	20 23 00 80 	andi r3,r1,0x80
  869300:	18 24 00 09 	xori r4,r1,0x9
  869304:	44 60 00 02 	be r3,r0,86930c <bd_readblock+0x478>
  869308:	b8 80 08 00 	mv r1,r4
  86930c:	20 21 00 ff 	andi r1,r1,0xff
  869310:	78 0f 00 86 	mvhi r15,0x86
  869314:	78 04 00 86 	mvhi r4,0x86
  869318:	3c 21 00 01 	sli r1,r1,1
  86931c:	39 ef f0 70 	ori r15,r15,0xf070
  869320:	38 84 f0 74 	ori r4,r4,0xf074
  869324:	29 e7 00 00 	lw r7,(r15+0)
  869328:	28 83 00 00 	lw r3,(r4+0)
  86932c:	38 21 00 01 	ori r1,r1,0x1
  869330:	33 81 00 1d 	sb (sp+29),r1
  869334:	37 85 00 18 	addi r5,sp,24
  869338:	37 86 00 1e 	addi r6,sp,30
  86933c:	40 a1 00 00 	lbu r1,(r5+0)
  869340:	58 e1 00 00 	sw (r7+0),r1
  869344:	28 61 00 00 	lw r1,(r3+0)
  869348:	78 08 00 86 	mvhi r8,0x86
  86934c:	39 08 f0 74 	ori r8,r8,0xf074
  869350:	20 21 00 01 	andi r1,r1,0x1
  869354:	29 04 00 00 	lw r4,(r8+0)
  869358:	5c 20 ff fb 	bne r1,r0,869344 <bd_readblock+0x4b0>
  86935c:	34 a5 00 01 	addi r5,r5,1
  869360:	5c a6 ff f7 	bne r5,r6,86933c <bd_readblock+0x4a8>
  869364:	78 0f 00 86 	mvhi r15,0x86
  869368:	78 07 00 86 	mvhi r7,0x86
  86936c:	39 ef f0 6c 	ori r15,r15,0xf06c
  869370:	38 e7 f0 78 	ori r7,r7,0xf078
  869374:	29 e1 00 00 	lw r1,(r15+0)
  869378:	28 e5 00 00 	lw r5,(r7+0)
  86937c:	78 0f 00 86 	mvhi r15,0x86
  869380:	34 03 00 0a 	mvi r3,10
  869384:	39 ef f0 7c 	ori r15,r15,0xf07c
  869388:	58 83 00 00 	sw (r4+0),r3
  86938c:	34 06 00 03 	mvi r6,3
  869390:	78 08 00 86 	mvhi r8,0x86
  869394:	29 ea 00 00 	lw r10,(r15+0)
  869398:	58 a6 00 00 	sw (r5+0),r6
  86939c:	39 08 f0 70 	ori r8,r8,0xf070
  8693a0:	29 0d 00 00 	lw r13,(r8+0)
  8693a4:	58 23 00 00 	sw (r1+0),r3
  8693a8:	34 06 00 00 	mvi r6,0
  8693ac:	34 07 00 00 	mvi r7,0
  8693b0:	34 0c 00 02 	mvi r12,2
  8693b4:	34 0b 00 06 	mvi r11,6
  8693b8:	b8 20 70 00 	mv r14,r1
  8693bc:	34 09 00 08 	mvi r9,8
  8693c0:	34 08 00 7f 	mvi r8,127
  8693c4:	78 03 00 86 	mvhi r3,0x86
  8693c8:	38 63 e5 8c 	ori r3,r3,0xe58c
  8693cc:	28 61 00 00 	lw r1,(r3+0)
  8693d0:	e0 00 00 02 	bi 8693d8 <bd_readblock+0x544>
  8693d4:	44 23 00 32 	be r1,r3,86949c <bd_readblock+0x608>
  8693d8:	28 83 00 00 	lw r3,(r4+0)
  8693dc:	78 0f 00 86 	mvhi r15,0x86
  8693e0:	39 ef f0 74 	ori r15,r15,0xf074
  8693e4:	20 63 00 0a 	andi r3,r3,0xa
  8693e8:	34 21 ff ff 	addi r1,r1,-1
  8693ec:	29 e5 00 00 	lw r5,(r15+0)
  8693f0:	44 60 ff f9 	be r3,r0,8693d4 <bd_readblock+0x540>
  8693f4:	28 a1 00 00 	lw r1,(r5+0)
  8693f8:	20 21 00 02 	andi r1,r1,0x2
  8693fc:	44 20 00 05 	be r1,r0,869410 <bd_readblock+0x57c>
  869400:	29 a1 00 00 	lw r1,(r13+0)
  869404:	34 e7 00 01 	addi r7,r7,1
  869408:	58 ac 00 00 	sw (r5+0),r12
  86940c:	44 eb 00 2c 	be r7,r11,8694bc <bd_readblock+0x628>
  869410:	28 81 00 00 	lw r1,(r4+0)
  869414:	20 21 00 08 	andi r1,r1,0x8
  869418:	44 20 00 07 	be r1,r0,869434 <bd_readblock+0x5a0>
  86941c:	29 43 00 00 	lw r3,(r10+0)
  869420:	3c c1 00 02 	sli r1,r6,2
  869424:	34 c6 00 01 	addi r6,r6,1
  869428:	b4 41 08 00 	add r1,r2,r1
  86942c:	58 23 00 00 	sw (r1+0),r3
  869430:	58 89 00 00 	sw (r4+0),r9
  869434:	4d 06 ff e4 	bge r8,r6,8693c4 <bd_readblock+0x530>
  869438:	78 01 00 86 	mvhi r1,0x86
  86943c:	38 21 f0 74 	ori r1,r1,0xf074
  869440:	28 22 00 00 	lw r2,(r1+0)
  869444:	34 03 00 02 	mvi r3,2
  869448:	34 04 00 08 	mvi r4,8
  86944c:	28 41 00 00 	lw r1,(r2+0)
  869450:	20 21 00 08 	andi r1,r1,0x8
  869454:	44 20 ff fe 	be r1,r0,86944c <bd_readblock+0x5b8>
  869458:	58 44 00 00 	sw (r2+0),r4
  86945c:	34 63 ff ff 	addi r3,r3,-1
  869460:	5c 60 ff fb 	bne r3,r0,86944c <bd_readblock+0x5b8>
  869464:	78 03 00 86 	mvhi r3,0x86
  869468:	38 63 f0 74 	ori r3,r3,0xf074
  86946c:	28 62 00 00 	lw r2,(r3+0)
  869470:	28 41 00 00 	lw r1,(r2+0)
  869474:	20 21 00 08 	andi r1,r1,0x8
  869478:	44 20 ff fe 	be r1,r0,869470 <bd_readblock+0x5dc>
  86947c:	34 01 00 01 	mvi r1,1
  869480:	2b 8b 00 14 	lw r11,(sp+20)
  869484:	2b 8c 00 10 	lw r12,(sp+16)
  869488:	2b 8d 00 0c 	lw r13,(sp+12)
  86948c:	2b 8e 00 08 	lw r14,(sp+8)
  869490:	2b 8f 00 04 	lw r15,(sp+4)
  869494:	37 9c 00 1c 	addi sp,sp,28
  869498:	c3 a0 00 00 	ret
  86949c:	34 01 00 00 	mvi r1,0
  8694a0:	2b 8b 00 14 	lw r11,(sp+20)
  8694a4:	2b 8c 00 10 	lw r12,(sp+16)
  8694a8:	2b 8d 00 0c 	lw r13,(sp+12)
  8694ac:	2b 8e 00 08 	lw r14,(sp+8)
  8694b0:	2b 8f 00 04 	lw r15,(sp+4)
  8694b4:	37 9c 00 1c 	addi sp,sp,28
  8694b8:	c3 a0 00 00 	ret
  8694bc:	59 c9 00 00 	sw (r14+0),r9
  8694c0:	e3 ff ff d4 	bi 869410 <bd_readblock+0x57c>

008694c4 <bd_done>:
  8694c4:	c3 a0 00 00 	ret

008694c8 <bd_has_part_table>:
  8694c8:	34 01 00 01 	mvi r1,1
  8694cc:	c3 a0 00 00 	ret

008694d0 <brd_init>:
  8694d0:	37 9c ff e0 	addi sp,sp,-32
  8694d4:	5b 8b 00 10 	sw (sp+16),r11
  8694d8:	5b 8c 00 0c 	sw (sp+12),r12
  8694dc:	5b 8d 00 08 	sw (sp+8),r13
  8694e0:	5b 9d 00 04 	sw (sp+4),ra
  8694e4:	78 0b 40 66 	mvhi r11,0x4066
  8694e8:	f8 00 11 11 	calli 86d92c <get_board_desc>
  8694ec:	39 6b 16 6c 	ori r11,r11,0x166c
  8694f0:	59 61 00 00 	sw (r11+0),r1
  8694f4:	44 20 00 90 	be r1,r0,869734 <brd_init+0x264>
  8694f8:	f8 00 11 18 	calli 86d958 <get_pcb_revision>
  8694fc:	37 8c 00 14 	addi r12,sp,20
  869500:	b8 20 68 00 	mv r13,r1
  869504:	b9 80 08 00 	mv r1,r12
  869508:	f8 00 11 34 	calli 86d9d8 <get_soc_version_formatted>
  86950c:	29 63 00 00 	lw r3,(r11+0)
  869510:	78 01 00 86 	mvhi r1,0x86
  869514:	b9 80 10 00 	mv r2,r12
  869518:	38 21 f0 c0 	ori r1,r1,0xf0c0
  86951c:	34 63 00 02 	addi r3,r3,2
  869520:	b9 a0 20 00 	mv r4,r13
  869524:	fb ff f0 06 	calli 86553c <printf>
  869528:	78 02 00 86 	mvhi r2,0x86
  86952c:	b9 80 08 00 	mv r1,r12
  869530:	38 42 dd 14 	ori r2,r2,0xdd14
  869534:	fb ff ec 6c 	calli 8646e4 <strcmp>
  869538:	44 20 00 04 	be r1,r0,869548 <brd_init+0x78>
  86953c:	78 01 00 86 	mvhi r1,0x86
  869540:	38 21 f0 e8 	ori r1,r1,0xf0e8
  869544:	fb ff ef fe 	calli 86553c <printf>
  869548:	34 01 00 02 	mvi r1,2
  86954c:	4c 2d 00 04 	bge r1,r13,86955c <brd_init+0x8c>
  869550:	78 01 00 86 	mvhi r1,0x86
  869554:	38 21 f1 14 	ori r1,r1,0xf114
  869558:	fb ff ef f9 	calli 86553c <printf>
  86955c:	78 02 00 86 	mvhi r2,0x86
  869560:	38 42 f3 84 	ori r2,r2,0xf384
  869564:	28 41 00 00 	lw r1,(r2+0)
  869568:	28 2b 00 00 	lw r11,(r1+0)
  86956c:	21 61 00 01 	andi r1,r11,0x1
  869570:	44 20 00 41 	be r1,r0,869674 <brd_init+0x1a4>
  869574:	78 01 00 86 	mvhi r1,0x86
  869578:	38 21 f1 44 	ori r1,r1,0xf144
  86957c:	fb ff ef f0 	calli 86553c <printf>
  869580:	21 61 00 02 	andi r1,r11,0x2
  869584:	44 20 00 64 	be r1,r0,869714 <brd_init+0x244>
  869588:	78 01 00 86 	mvhi r1,0x86
  86958c:	38 21 f1 74 	ori r1,r1,0xf174
  869590:	fb ff ef eb 	calli 86553c <printf>
  869594:	21 61 00 04 	andi r1,r11,0x4
  869598:	44 20 00 5b 	be r1,r0,869704 <brd_init+0x234>
  86959c:	78 01 00 86 	mvhi r1,0x86
  8695a0:	38 21 f1 a4 	ori r1,r1,0xf1a4
  8695a4:	fb ff ef e6 	calli 86553c <printf>
  8695a8:	21 61 00 08 	andi r1,r11,0x8
  8695ac:	44 20 00 52 	be r1,r0,8696f4 <brd_init+0x224>
  8695b0:	78 01 00 86 	mvhi r1,0x86
  8695b4:	38 21 f1 d4 	ori r1,r1,0xf1d4
  8695b8:	fb ff ef e1 	calli 86553c <printf>
  8695bc:	21 61 00 10 	andi r1,r11,0x10
  8695c0:	44 20 00 49 	be r1,r0,8696e4 <brd_init+0x214>
  8695c4:	78 01 00 86 	mvhi r1,0x86
  8695c8:	38 21 f2 04 	ori r1,r1,0xf204
  8695cc:	fb ff ef dc 	calli 86553c <printf>
  8695d0:	21 61 00 20 	andi r1,r11,0x20
  8695d4:	44 20 00 40 	be r1,r0,8696d4 <brd_init+0x204>
  8695d8:	78 01 00 86 	mvhi r1,0x86
  8695dc:	38 21 f2 34 	ori r1,r1,0xf234
  8695e0:	fb ff ef d7 	calli 86553c <printf>
  8695e4:	21 61 00 40 	andi r1,r11,0x40
  8695e8:	44 20 00 37 	be r1,r0,8696c4 <brd_init+0x1f4>
  8695ec:	78 01 00 86 	mvhi r1,0x86
  8695f0:	38 21 f2 64 	ori r1,r1,0xf264
  8695f4:	fb ff ef d2 	calli 86553c <printf>
  8695f8:	21 61 00 80 	andi r1,r11,0x80
  8695fc:	44 20 00 2e 	be r1,r0,8696b4 <brd_init+0x1e4>
  869600:	78 01 00 86 	mvhi r1,0x86
  869604:	38 21 f2 94 	ori r1,r1,0xf294
  869608:	fb ff ef cd 	calli 86553c <printf>
  86960c:	21 61 01 00 	andi r1,r11,0x100
  869610:	44 20 00 25 	be r1,r0,8696a4 <brd_init+0x1d4>
  869614:	78 01 00 86 	mvhi r1,0x86
  869618:	38 21 f2 c4 	ori r1,r1,0xf2c4
  86961c:	fb ff ef c8 	calli 86553c <printf>
  869620:	21 61 02 00 	andi r1,r11,0x200
  869624:	44 20 00 1c 	be r1,r0,869694 <brd_init+0x1c4>
  869628:	78 01 00 86 	mvhi r1,0x86
  86962c:	38 21 f2 f4 	ori r1,r1,0xf2f4
  869630:	fb ff ef c3 	calli 86553c <printf>
  869634:	21 61 04 00 	andi r1,r11,0x400
  869638:	44 20 00 13 	be r1,r0,869684 <brd_init+0x1b4>
  86963c:	78 01 00 86 	mvhi r1,0x86
  869640:	38 21 f3 24 	ori r1,r1,0xf324
  869644:	fb ff ef be 	calli 86553c <printf>
  869648:	21 6b 08 00 	andi r11,r11,0x800
  86964c:	5d 60 00 36 	bne r11,r0,869724 <brd_init+0x254>
  869650:	78 01 00 86 	mvhi r1,0x86
  869654:	38 21 f3 6c 	ori r1,r1,0xf36c
  869658:	fb ff ef b9 	calli 86553c <printf>
  86965c:	2b 9d 00 04 	lw ra,(sp+4)
  869660:	2b 8b 00 10 	lw r11,(sp+16)
  869664:	2b 8c 00 0c 	lw r12,(sp+12)
  869668:	2b 8d 00 08 	lw r13,(sp+8)
  86966c:	37 9c 00 20 	addi sp,sp,32
  869670:	c3 a0 00 00 	ret
  869674:	78 01 00 86 	mvhi r1,0x86
  869678:	38 21 f1 5c 	ori r1,r1,0xf15c
  86967c:	fb ff ef b0 	calli 86553c <printf>
  869680:	e3 ff ff c0 	bi 869580 <brd_init+0xb0>
  869684:	78 01 00 86 	mvhi r1,0x86
  869688:	38 21 f3 3c 	ori r1,r1,0xf33c
  86968c:	fb ff ef ac 	calli 86553c <printf>
  869690:	e3 ff ff ee 	bi 869648 <brd_init+0x178>
  869694:	78 01 00 86 	mvhi r1,0x86
  869698:	38 21 f3 0c 	ori r1,r1,0xf30c
  86969c:	fb ff ef a8 	calli 86553c <printf>
  8696a0:	e3 ff ff e5 	bi 869634 <brd_init+0x164>
  8696a4:	78 01 00 86 	mvhi r1,0x86
  8696a8:	38 21 f2 dc 	ori r1,r1,0xf2dc
  8696ac:	fb ff ef a4 	calli 86553c <printf>
  8696b0:	e3 ff ff dc 	bi 869620 <brd_init+0x150>
  8696b4:	78 01 00 86 	mvhi r1,0x86
  8696b8:	38 21 f2 ac 	ori r1,r1,0xf2ac
  8696bc:	fb ff ef a0 	calli 86553c <printf>
  8696c0:	e3 ff ff d3 	bi 86960c <brd_init+0x13c>
  8696c4:	78 01 00 86 	mvhi r1,0x86
  8696c8:	38 21 f2 7c 	ori r1,r1,0xf27c
  8696cc:	fb ff ef 9c 	calli 86553c <printf>
  8696d0:	e3 ff ff ca 	bi 8695f8 <brd_init+0x128>
  8696d4:	78 01 00 86 	mvhi r1,0x86
  8696d8:	38 21 f2 4c 	ori r1,r1,0xf24c
  8696dc:	fb ff ef 98 	calli 86553c <printf>
  8696e0:	e3 ff ff c1 	bi 8695e4 <brd_init+0x114>
  8696e4:	78 01 00 86 	mvhi r1,0x86
  8696e8:	38 21 f2 1c 	ori r1,r1,0xf21c
  8696ec:	fb ff ef 94 	calli 86553c <printf>
  8696f0:	e3 ff ff b8 	bi 8695d0 <brd_init+0x100>
  8696f4:	78 01 00 86 	mvhi r1,0x86
  8696f8:	38 21 f1 ec 	ori r1,r1,0xf1ec
  8696fc:	fb ff ef 90 	calli 86553c <printf>
  869700:	e3 ff ff af 	bi 8695bc <brd_init+0xec>
  869704:	78 01 00 86 	mvhi r1,0x86
  869708:	38 21 f1 bc 	ori r1,r1,0xf1bc
  86970c:	fb ff ef 8c 	calli 86553c <printf>
  869710:	e3 ff ff a6 	bi 8695a8 <brd_init+0xd8>
  869714:	78 01 00 86 	mvhi r1,0x86
  869718:	38 21 f1 8c 	ori r1,r1,0xf18c
  86971c:	fb ff ef 88 	calli 86553c <printf>
  869720:	e3 ff ff 9d 	bi 869594 <brd_init+0xc4>
  869724:	78 01 00 86 	mvhi r1,0x86
  869728:	38 21 f3 54 	ori r1,r1,0xf354
  86972c:	fb ff ef 84 	calli 86553c <printf>
  869730:	e3 ff ff cb 	bi 86965c <brd_init+0x18c>
  869734:	78 03 00 86 	mvhi r3,0x86
  869738:	38 63 ee b8 	ori r3,r3,0xeeb8
  86973c:	28 62 00 00 	lw r2,(r3+0)
  869740:	78 01 00 86 	mvhi r1,0x86
  869744:	38 21 f0 80 	ori r1,r1,0xf080
  869748:	28 42 00 00 	lw r2,(r2+0)
  86974c:	fb ff ef 7c 	calli 86553c <printf>
  869750:	e0 00 00 00 	bi 869750 <brd_init+0x280>

00869754 <tmu_init>:
  869754:	37 9c ff fc 	addi sp,sp,-4
  869758:	5b 9d 00 04 	sw (sp+4),ra
  86975c:	78 02 00 86 	mvhi r2,0x86
  869760:	38 42 f3 84 	ori r2,r2,0xf384
  869764:	28 41 00 00 	lw r1,(r2+0)
  869768:	28 21 00 00 	lw r1,(r1+0)
  86976c:	20 21 00 08 	andi r1,r1,0x8
  869770:	44 20 00 21 	be r1,r0,8697f4 <tmu_init+0xa0>
  869774:	78 02 40 02 	mvhi r2,0x4002
  869778:	38 42 14 4c 	ori r2,r2,0x144c
  86977c:	78 01 40 02 	mvhi r1,0x4002
  869780:	58 40 00 00 	sw (r2+0),r0
  869784:	38 21 14 74 	ori r1,r1,0x1474
  869788:	34 02 00 01 	mvi r2,1
  86978c:	58 22 00 00 	sw (r1+0),r2
  869790:	78 02 00 86 	mvhi r2,0x86
  869794:	38 42 f3 f0 	ori r2,r2,0xf3f0
  869798:	28 41 00 00 	lw r1,(r2+0)
  86979c:	78 04 40 02 	mvhi r4,0x4002
  8697a0:	78 03 40 02 	mvhi r3,0x4002
  8697a4:	38 84 14 50 	ori r4,r4,0x1450
  8697a8:	38 63 14 78 	ori r3,r3,0x1478
  8697ac:	58 80 00 00 	sw (r4+0),r0
  8697b0:	58 60 00 00 	sw (r3+0),r0
  8697b4:	58 20 00 00 	sw (r1+0),r0
  8697b8:	34 01 04 00 	mvi r1,1024
  8697bc:	d0 41 00 00 	wcsr IP,r1
  8697c0:	90 20 08 00 	rcsr r1,IM
  8697c4:	38 21 04 00 	ori r1,r1,0x400
  8697c8:	d0 21 00 00 	wcsr IM,r1
  8697cc:	78 01 00 86 	mvhi r1,0x86
  8697d0:	38 21 f3 b0 	ori r1,r1,0xf3b0
  8697d4:	fb ff ef 5a 	calli 86553c <printf>
  8697d8:	78 01 40 66 	mvhi r1,0x4066
  8697dc:	38 21 16 64 	ori r1,r1,0x1664
  8697e0:	34 02 00 01 	mvi r2,1
  8697e4:	58 22 00 00 	sw (r1+0),r2
  8697e8:	2b 9d 00 04 	lw ra,(sp+4)
  8697ec:	37 9c 00 04 	addi sp,sp,4
  8697f0:	c3 a0 00 00 	ret
  8697f4:	78 01 00 86 	mvhi r1,0x86
  8697f8:	38 21 f3 88 	ori r1,r1,0xf388
  8697fc:	fb ff ef 50 	calli 86553c <printf>
  869800:	2b 9d 00 04 	lw ra,(sp+4)
  869804:	37 9c 00 04 	addi sp,sp,4
  869808:	c3 a0 00 00 	ret

0086980c <tmu_isr>:
  86980c:	37 9c ff f4 	addi sp,sp,-12
  869810:	5b 8b 00 0c 	sw (sp+12),r11
  869814:	5b 8c 00 08 	sw (sp+8),r12
  869818:	5b 9d 00 04 	sw (sp+4),ra
  86981c:	78 0b 40 02 	mvhi r11,0x4002
  869820:	39 6b 14 78 	ori r11,r11,0x1478
  869824:	29 62 00 00 	lw r2,(r11+0)
  869828:	78 0c 40 02 	mvhi r12,0x4002
  86982c:	39 8c 14 54 	ori r12,r12,0x1454
  869830:	3c 41 00 02 	sli r1,r2,2
  869834:	b5 81 08 00 	add r1,r12,r1
  869838:	28 21 00 00 	lw r1,(r1+0)
  86983c:	28 23 00 4c 	lw r3,(r1+76)
  869840:	44 60 00 03 	be r3,r0,86984c <tmu_isr+0x40>
  869844:	d8 60 00 00 	call r3
  869848:	29 62 00 00 	lw r2,(r11+0)
  86984c:	78 01 40 02 	mvhi r1,0x4002
  869850:	38 21 14 4c 	ori r1,r1,0x144c
  869854:	28 23 00 00 	lw r3,(r1+0)
  869858:	34 42 00 01 	addi r2,r2,1
  86985c:	20 42 00 07 	andi r2,r2,0x7
  869860:	34 63 ff ff 	addi r3,r3,-1
  869864:	58 23 00 00 	sw (r1+0),r3
  869868:	59 62 00 00 	sw (r11+0),r2
  86986c:	34 01 04 00 	mvi r1,1024
  869870:	d0 41 00 00 	wcsr IP,r1
  869874:	5c 60 00 0a 	bne r3,r0,86989c <tmu_isr+0x90>
  869878:	78 01 40 02 	mvhi r1,0x4002
  86987c:	38 21 14 74 	ori r1,r1,0x1474
  869880:	34 02 00 01 	mvi r2,1
  869884:	58 22 00 00 	sw (r1+0),r2
  869888:	2b 9d 00 04 	lw ra,(sp+4)
  86988c:	2b 8b 00 0c 	lw r11,(sp+12)
  869890:	2b 8c 00 08 	lw r12,(sp+8)
  869894:	37 9c 00 0c 	addi sp,sp,12
  869898:	c3 a0 00 00 	ret
  86989c:	3c 42 00 02 	sli r2,r2,2
  8698a0:	78 05 00 86 	mvhi r5,0x86
  8698a4:	b5 82 60 00 	add r12,r12,r2
  8698a8:	29 81 00 00 	lw r1,(r12+0)
  8698ac:	38 a5 f3 f4 	ori r5,r5,0xf3f4
  8698b0:	28 a2 00 00 	lw r2,(r5+0)
  8698b4:	28 24 00 04 	lw r4,(r1+4)
  8698b8:	78 06 00 86 	mvhi r6,0x86
  8698bc:	2c 23 00 10 	lhu r3,(r1+16)
  8698c0:	38 c6 f3 f8 	ori r6,r6,0xf3f8
  8698c4:	58 44 00 00 	sw (r2+0),r4
  8698c8:	28 24 00 08 	lw r4,(r1+8)
  8698cc:	28 c2 00 00 	lw r2,(r6+0)
  8698d0:	78 07 00 86 	mvhi r7,0x86
  8698d4:	28 25 00 14 	lw r5,(r1+20)
  8698d8:	38 e7 f3 fc 	ori r7,r7,0xf3fc
  8698dc:	58 44 00 00 	sw (r2+0),r4
  8698e0:	28 26 00 0c 	lw r6,(r1+12)
  8698e4:	28 e2 00 00 	lw r2,(r7+0)
  8698e8:	28 24 00 18 	lw r4,(r1+24)
  8698ec:	78 07 00 86 	mvhi r7,0x86
  8698f0:	58 46 00 00 	sw (r2+0),r6
  8698f4:	78 06 00 86 	mvhi r6,0x86
  8698f8:	38 c6 f4 00 	ori r6,r6,0xf400
  8698fc:	28 c2 00 00 	lw r2,(r6+0)
  869900:	38 e7 f4 04 	ori r7,r7,0xf404
  869904:	78 06 00 86 	mvhi r6,0x86
  869908:	58 43 00 00 	sw (r2+0),r3
  86990c:	28 e2 00 00 	lw r2,(r7+0)
  869910:	78 03 00 86 	mvhi r3,0x86
  869914:	38 63 f4 08 	ori r3,r3,0xf408
  869918:	58 45 00 00 	sw (r2+0),r5
  86991c:	28 62 00 00 	lw r2,(r3+0)
  869920:	78 05 00 86 	mvhi r5,0x86
  869924:	38 a5 f4 10 	ori r5,r5,0xf410
  869928:	58 44 00 00 	sw (r2+0),r4
  86992c:	78 04 00 86 	mvhi r4,0x86
  869930:	38 84 f4 0c 	ori r4,r4,0xf40c
  869934:	28 23 00 1c 	lw r3,(r1+28)
  869938:	28 82 00 00 	lw r2,(r4+0)
  86993c:	38 c6 f4 14 	ori r6,r6,0xf414
  869940:	78 07 00 86 	mvhi r7,0x86
  869944:	58 43 00 00 	sw (r2+0),r3
  869948:	28 24 00 20 	lw r4,(r1+32)
  86994c:	28 a2 00 00 	lw r2,(r5+0)
  869950:	28 23 00 2c 	lw r3,(r1+44)
  869954:	38 e7 f4 18 	ori r7,r7,0xf418
  869958:	58 44 00 00 	sw (r2+0),r4
  86995c:	28 24 00 24 	lw r4,(r1+36)
  869960:	28 c2 00 00 	lw r2,(r6+0)
  869964:	78 05 00 86 	mvhi r5,0x86
  869968:	38 a5 f4 20 	ori r5,r5,0xf420
  86996c:	58 44 00 00 	sw (r2+0),r4
  869970:	28 24 00 28 	lw r4,(r1+40)
  869974:	28 e2 00 00 	lw r2,(r7+0)
  869978:	78 06 00 86 	mvhi r6,0x86
  86997c:	38 c6 f4 24 	ori r6,r6,0xf424
  869980:	58 44 00 00 	sw (r2+0),r4
  869984:	78 04 00 86 	mvhi r4,0x86
  869988:	38 84 f4 1c 	ori r4,r4,0xf41c
  86998c:	28 82 00 00 	lw r2,(r4+0)
  869990:	78 07 00 86 	mvhi r7,0x86
  869994:	38 e7 f4 28 	ori r7,r7,0xf428
  869998:	58 43 00 00 	sw (r2+0),r3
  86999c:	28 23 00 30 	lw r3,(r1+48)
  8699a0:	28 a2 00 00 	lw r2,(r5+0)
  8699a4:	78 04 00 86 	mvhi r4,0x86
  8699a8:	38 84 f4 2c 	ori r4,r4,0xf42c
  8699ac:	58 43 00 00 	sw (r2+0),r3
  8699b0:	28 23 00 34 	lw r3,(r1+52)
  8699b4:	28 c2 00 00 	lw r2,(r6+0)
  8699b8:	78 05 00 86 	mvhi r5,0x86
  8699bc:	38 a5 f4 30 	ori r5,r5,0xf430
  8699c0:	58 43 00 00 	sw (r2+0),r3
  8699c4:	28 23 00 38 	lw r3,(r1+56)
  8699c8:	28 e2 00 00 	lw r2,(r7+0)
  8699cc:	78 06 00 86 	mvhi r6,0x86
  8699d0:	38 c6 f4 34 	ori r6,r6,0xf434
  8699d4:	58 43 00 00 	sw (r2+0),r3
  8699d8:	28 23 00 3c 	lw r3,(r1+60)
  8699dc:	28 82 00 00 	lw r2,(r4+0)
  8699e0:	78 07 00 86 	mvhi r7,0x86
  8699e4:	38 e7 f4 38 	ori r7,r7,0xf438
  8699e8:	58 43 00 00 	sw (r2+0),r3
  8699ec:	28 23 00 40 	lw r3,(r1+64)
  8699f0:	28 a2 00 00 	lw r2,(r5+0)
  8699f4:	58 43 00 00 	sw (r2+0),r3
  8699f8:	28 23 00 44 	lw r3,(r1+68)
  8699fc:	28 c2 00 00 	lw r2,(r6+0)
  869a00:	58 43 00 00 	sw (r2+0),r3
  869a04:	28 23 00 48 	lw r3,(r1+72)
  869a08:	28 e2 00 00 	lw r2,(r7+0)
  869a0c:	58 43 00 00 	sw (r2+0),r3
  869a10:	78 03 00 86 	mvhi r3,0x86
  869a14:	28 22 00 00 	lw r2,(r1+0)
  869a18:	38 63 f3 f0 	ori r3,r3,0xf3f0
  869a1c:	28 61 00 00 	lw r1,(r3+0)
  869a20:	38 42 00 01 	ori r2,r2,0x1
  869a24:	58 22 00 00 	sw (r1+0),r2
  869a28:	2b 9d 00 04 	lw ra,(sp+4)
  869a2c:	2b 8b 00 0c 	lw r11,(sp+12)
  869a30:	2b 8c 00 08 	lw r12,(sp+8)
  869a34:	37 9c 00 0c 	addi sp,sp,12
  869a38:	c3 a0 00 00 	ret

00869a3c <tmu_submit_task>:
  869a3c:	37 9c ff fc 	addi sp,sp,-4
  869a40:	5b 9d 00 04 	sw (sp+4),ra
  869a44:	90 20 38 00 	rcsr r7,IM
  869a48:	34 02 00 00 	mvi r2,0
  869a4c:	d0 22 00 00 	wcsr IM,r2
  869a50:	78 02 40 02 	mvhi r2,0x4002
  869a54:	38 42 14 4c 	ori r2,r2,0x144c
  869a58:	28 46 00 00 	lw r6,(r2+0)
  869a5c:	34 03 00 07 	mvi r3,7
  869a60:	50 66 00 09 	bgeu r3,r6,869a84 <tmu_submit_task+0x48>
  869a64:	d0 27 00 00 	wcsr IM,r7
  869a68:	78 01 00 86 	mvhi r1,0x86
  869a6c:	38 21 f3 d8 	ori r1,r1,0xf3d8
  869a70:	fb ff ee b3 	calli 86553c <printf>
  869a74:	34 01 00 00 	mvi r1,0
  869a78:	2b 9d 00 04 	lw ra,(sp+4)
  869a7c:	37 9c 00 04 	addi sp,sp,4
  869a80:	c3 a0 00 00 	ret
  869a84:	78 03 40 02 	mvhi r3,0x4002
  869a88:	38 63 14 50 	ori r3,r3,0x1450
  869a8c:	28 68 00 00 	lw r8,(r3+0)
  869a90:	78 04 40 02 	mvhi r4,0x4002
  869a94:	78 05 40 02 	mvhi r5,0x4002
  869a98:	3d 09 00 02 	sli r9,r8,2
  869a9c:	38 84 14 74 	ori r4,r4,0x1474
  869aa0:	38 a5 14 54 	ori r5,r5,0x1454
  869aa4:	35 08 00 01 	addi r8,r8,1
  869aa8:	28 8a 00 00 	lw r10,(r4+0)
  869aac:	b4 a9 28 00 	add r5,r5,r9
  869ab0:	21 08 00 07 	andi r8,r8,0x7
  869ab4:	34 c6 00 01 	addi r6,r6,1
  869ab8:	58 a1 00 00 	sw (r5+0),r1
  869abc:	58 68 00 00 	sw (r3+0),r8
  869ac0:	58 46 00 00 	sw (r2+0),r6
  869ac4:	5d 40 00 06 	bne r10,r0,869adc <tmu_submit_task+0xa0>
  869ac8:	d0 27 00 00 	wcsr IM,r7
  869acc:	34 01 00 01 	mvi r1,1
  869ad0:	2b 9d 00 04 	lw ra,(sp+4)
  869ad4:	37 9c 00 04 	addi sp,sp,4
  869ad8:	c3 a0 00 00 	ret
  869adc:	58 80 00 00 	sw (r4+0),r0
  869ae0:	78 04 00 86 	mvhi r4,0x86
  869ae4:	38 84 f3 f4 	ori r4,r4,0xf3f4
  869ae8:	28 23 00 04 	lw r3,(r1+4)
  869aec:	28 82 00 00 	lw r2,(r4+0)
  869af0:	78 05 00 86 	mvhi r5,0x86
  869af4:	38 a5 f3 f8 	ori r5,r5,0xf3f8
  869af8:	58 43 00 00 	sw (r2+0),r3
  869afc:	28 24 00 08 	lw r4,(r1+8)
  869b00:	28 a2 00 00 	lw r2,(r5+0)
  869b04:	78 06 00 86 	mvhi r6,0x86
  869b08:	2c 23 00 10 	lhu r3,(r1+16)
  869b0c:	38 c6 f3 fc 	ori r6,r6,0xf3fc
  869b10:	58 44 00 00 	sw (r2+0),r4
  869b14:	28 24 00 0c 	lw r4,(r1+12)
  869b18:	28 c2 00 00 	lw r2,(r6+0)
  869b1c:	78 06 00 86 	mvhi r6,0x86
  869b20:	38 c6 f4 00 	ori r6,r6,0xf400
  869b24:	28 25 00 14 	lw r5,(r1+20)
  869b28:	58 44 00 00 	sw (r2+0),r4
  869b2c:	28 c2 00 00 	lw r2,(r6+0)
  869b30:	28 24 00 18 	lw r4,(r1+24)
  869b34:	78 06 00 86 	mvhi r6,0x86
  869b38:	58 43 00 00 	sw (r2+0),r3
  869b3c:	78 03 00 86 	mvhi r3,0x86
  869b40:	38 63 f4 04 	ori r3,r3,0xf404
  869b44:	28 62 00 00 	lw r2,(r3+0)
  869b48:	38 c6 f4 0c 	ori r6,r6,0xf40c
  869b4c:	58 45 00 00 	sw (r2+0),r5
  869b50:	78 05 00 86 	mvhi r5,0x86
  869b54:	38 a5 f4 08 	ori r5,r5,0xf408
  869b58:	28 a2 00 00 	lw r2,(r5+0)
  869b5c:	78 05 00 86 	mvhi r5,0x86
  869b60:	38 a5 f4 10 	ori r5,r5,0xf410
  869b64:	58 44 00 00 	sw (r2+0),r4
  869b68:	28 23 00 1c 	lw r3,(r1+28)
  869b6c:	28 c2 00 00 	lw r2,(r6+0)
  869b70:	78 06 00 86 	mvhi r6,0x86
  869b74:	38 c6 f4 14 	ori r6,r6,0xf414
  869b78:	58 43 00 00 	sw (r2+0),r3
  869b7c:	28 24 00 20 	lw r4,(r1+32)
  869b80:	28 a2 00 00 	lw r2,(r5+0)
  869b84:	28 23 00 2c 	lw r3,(r1+44)
  869b88:	78 05 00 86 	mvhi r5,0x86
  869b8c:	58 44 00 00 	sw (r2+0),r4
  869b90:	28 24 00 24 	lw r4,(r1+36)
  869b94:	28 c2 00 00 	lw r2,(r6+0)
  869b98:	38 a5 f4 18 	ori r5,r5,0xf418
  869b9c:	78 06 00 86 	mvhi r6,0x86
  869ba0:	58 44 00 00 	sw (r2+0),r4
  869ba4:	28 24 00 28 	lw r4,(r1+40)
  869ba8:	28 a2 00 00 	lw r2,(r5+0)
  869bac:	38 c6 f4 1c 	ori r6,r6,0xf41c
  869bb0:	78 05 00 86 	mvhi r5,0x86
  869bb4:	58 44 00 00 	sw (r2+0),r4
  869bb8:	28 c2 00 00 	lw r2,(r6+0)
  869bbc:	78 04 00 86 	mvhi r4,0x86
  869bc0:	38 84 f4 20 	ori r4,r4,0xf420
  869bc4:	58 43 00 00 	sw (r2+0),r3
  869bc8:	28 23 00 30 	lw r3,(r1+48)
  869bcc:	28 82 00 00 	lw r2,(r4+0)
  869bd0:	38 a5 f4 24 	ori r5,r5,0xf424
  869bd4:	78 06 00 86 	mvhi r6,0x86
  869bd8:	58 43 00 00 	sw (r2+0),r3
  869bdc:	28 23 00 34 	lw r3,(r1+52)
  869be0:	28 a2 00 00 	lw r2,(r5+0)
  869be4:	38 c6 f4 28 	ori r6,r6,0xf428
  869be8:	78 04 00 86 	mvhi r4,0x86
  869bec:	58 43 00 00 	sw (r2+0),r3
  869bf0:	28 23 00 38 	lw r3,(r1+56)
  869bf4:	28 c2 00 00 	lw r2,(r6+0)
  869bf8:	38 84 f4 2c 	ori r4,r4,0xf42c
  869bfc:	78 05 00 86 	mvhi r5,0x86
  869c00:	58 43 00 00 	sw (r2+0),r3
  869c04:	28 23 00 3c 	lw r3,(r1+60)
  869c08:	28 82 00 00 	lw r2,(r4+0)
  869c0c:	38 a5 f4 30 	ori r5,r5,0xf430
  869c10:	78 06 00 86 	mvhi r6,0x86
  869c14:	58 43 00 00 	sw (r2+0),r3
  869c18:	28 23 00 40 	lw r3,(r1+64)
  869c1c:	28 a2 00 00 	lw r2,(r5+0)
  869c20:	38 c6 f4 34 	ori r6,r6,0xf434
  869c24:	78 04 00 86 	mvhi r4,0x86
  869c28:	58 43 00 00 	sw (r2+0),r3
  869c2c:	28 23 00 44 	lw r3,(r1+68)
  869c30:	28 c2 00 00 	lw r2,(r6+0)
  869c34:	38 84 f4 38 	ori r4,r4,0xf438
  869c38:	78 05 00 86 	mvhi r5,0x86
  869c3c:	58 43 00 00 	sw (r2+0),r3
  869c40:	28 23 00 48 	lw r3,(r1+72)
  869c44:	28 82 00 00 	lw r2,(r4+0)
  869c48:	38 a5 f3 f0 	ori r5,r5,0xf3f0
  869c4c:	58 43 00 00 	sw (r2+0),r3
  869c50:	28 22 00 00 	lw r2,(r1+0)
  869c54:	28 a1 00 00 	lw r1,(r5+0)
  869c58:	38 42 00 01 	ori r2,r2,0x1
  869c5c:	58 22 00 00 	sw (r1+0),r2
  869c60:	e3 ff ff 9a 	bi 869ac8 <tmu_submit_task+0x8c>

00869c64 <flush_debug_buffer>:
  869c64:	37 9c fe e8 	addi sp,sp,-280
  869c68:	5b 8b 00 0c 	sw (sp+12),r11
  869c6c:	5b 8c 00 08 	sw (sp+8),r12
  869c70:	5b 9d 00 04 	sw (sp+4),ra
  869c74:	78 01 40 02 	mvhi r1,0x4002
  869c78:	38 21 15 94 	ori r1,r1,0x1594
  869c7c:	28 21 00 00 	lw r1,(r1+0)
  869c80:	78 0c 40 02 	mvhi r12,0x4002
  869c84:	39 8c 14 80 	ori r12,r12,0x1480
  869c88:	5c 20 00 07 	bne r1,r0,869ca4 <flush_debug_buffer+0x40>
  869c8c:	59 80 00 00 	sw (r12+0),r0
  869c90:	2b 9d 00 04 	lw ra,(sp+4)
  869c94:	2b 8b 00 0c 	lw r11,(sp+12)
  869c98:	2b 8c 00 08 	lw r12,(sp+8)
  869c9c:	37 9c 01 18 	addi sp,sp,280
  869ca0:	c3 a0 00 00 	ret
  869ca4:	29 84 00 00 	lw r4,(r12+0)
  869ca8:	78 03 40 02 	mvhi r3,0x4002
  869cac:	38 63 14 84 	ori r3,r3,0x1484
  869cb0:	b4 64 20 00 	add r4,r3,r4
  869cb4:	78 02 00 86 	mvhi r2,0x86
  869cb8:	37 81 00 10 	addi r1,sp,16
  869cbc:	38 42 f4 3c 	ori r2,r2,0xf43c
  869cc0:	30 80 00 00 	sb (r4+0),r0
  869cc4:	fb ff ed 0d 	calli 8650f8 <sprintf>
  869cc8:	13 81 00 10 	lb r1,(sp+16)
  869ccc:	44 20 ff f0 	be r1,r0,869c8c <flush_debug_buffer+0x28>
  869cd0:	37 8b 00 11 	addi r11,sp,17
  869cd4:	fb ff f2 a4 	calli 866764 <uart_write>
  869cd8:	11 61 00 00 	lb r1,(r11+0)
  869cdc:	35 6b 00 01 	addi r11,r11,1
  869ce0:	5c 20 ff fd 	bne r1,r0,869cd4 <flush_debug_buffer+0x70>
  869ce4:	59 80 00 00 	sw (r12+0),r0
  869ce8:	2b 9d 00 04 	lw ra,(sp+4)
  869cec:	2b 8b 00 0c 	lw r11,(sp+12)
  869cf0:	2b 8c 00 08 	lw r12,(sp+8)
  869cf4:	37 9c 01 18 	addi sp,sp,280
  869cf8:	c3 a0 00 00 	ret

00869cfc <usb_init>:
  869cfc:	37 9c ff fc 	addi sp,sp,-4
  869d00:	5b 9d 00 04 	sw (sp+4),ra
  869d04:	78 02 00 86 	mvhi r2,0x86
  869d08:	38 42 f3 84 	ori r2,r2,0xf384
  869d0c:	28 41 00 00 	lw r1,(r2+0)
  869d10:	28 21 00 00 	lw r1,(r1+0)
  869d14:	20 21 04 00 	andi r1,r1,0x400
  869d18:	44 20 00 49 	be r1,r0,869e3c <usb_init+0x140>
  869d1c:	78 01 00 86 	mvhi r1,0x86
  869d20:	38 21 f4 74 	ori r1,r1,0xf474
  869d24:	fb ff ee 06 	calli 86553c <printf>
  869d28:	78 09 00 86 	mvhi r9,0x86
  869d2c:	78 04 00 86 	mvhi r4,0x86
  869d30:	39 29 f4 b8 	ori r9,r9,0xf4b8
  869d34:	29 21 00 00 	lw r1,(r9+0)
  869d38:	38 84 f4 b4 	ori r4,r4,0xf4b4
  869d3c:	28 82 00 00 	lw r2,(r4+0)
  869d40:	34 03 00 01 	mvi r3,1
  869d44:	58 23 00 00 	sw (r1+0),r3
  869d48:	78 01 a0 02 	mvhi r1,0xa002
  869d4c:	58 20 00 00 	sw (r1+0),r0
  869d50:	34 21 00 04 	addi r1,r1,4
  869d54:	5c 22 ff fe 	bne r1,r2,869d4c <usb_init+0x50>
  869d58:	78 01 00 86 	mvhi r1,0x86
  869d5c:	38 21 f4 bc 	ori r1,r1,0xf4bc
  869d60:	28 22 00 00 	lw r2,(r1+0)
  869d64:	78 01 a0 00 	mvhi r1,0xa000
  869d68:	58 20 00 00 	sw (r1+0),r0
  869d6c:	34 21 00 04 	addi r1,r1,4
  869d70:	5c 22 ff fe 	bne r1,r2,869d68 <usb_init+0x6c>
  869d74:	78 02 00 86 	mvhi r2,0x86
  869d78:	38 42 f4 c0 	ori r2,r2,0xf4c0
  869d7c:	78 01 00 86 	mvhi r1,0x86
  869d80:	28 45 00 00 	lw r5,(r2+0)
  869d84:	38 21 f4 f8 	ori r1,r1,0xf4f8
  869d88:	78 02 a0 00 	mvhi r2,0xa000
  869d8c:	40 23 00 01 	lbu r3,(r1+1)
  869d90:	40 24 00 00 	lbu r4,(r1+0)
  869d94:	34 21 00 02 	addi r1,r1,2
  869d98:	3c 63 00 08 	sli r3,r3,8
  869d9c:	b8 64 18 00 	or r3,r3,r4
  869da0:	58 43 00 00 	sw (r2+0),r3
  869da4:	34 42 00 04 	addi r2,r2,4
  869da8:	5c 45 ff f9 	bne r2,r5,869d8c <usb_init+0x90>
  869dac:	78 01 00 86 	mvhi r1,0x86
  869db0:	38 21 f4 94 	ori r1,r1,0xf494
  869db4:	fb ff ed e2 	calli 86553c <printf>
  869db8:	78 09 00 86 	mvhi r9,0x86
  869dbc:	39 29 f4 b8 	ori r9,r9,0xf4b8
  869dc0:	29 28 00 00 	lw r8,(r9+0)
  869dc4:	78 07 40 02 	mvhi r7,0x4002
  869dc8:	78 06 40 02 	mvhi r6,0x4002
  869dcc:	78 05 40 02 	mvhi r5,0x4002
  869dd0:	78 04 40 02 	mvhi r4,0x4002
  869dd4:	78 03 40 02 	mvhi r3,0x4002
  869dd8:	78 02 40 02 	mvhi r2,0x4002
  869ddc:	78 01 40 02 	mvhi r1,0x4002
  869de0:	59 00 00 00 	sw (r8+0),r0
  869de4:	38 e7 15 94 	ori r7,r7,0x1594
  869de8:	38 c6 14 80 	ori r6,r6,0x1480
  869dec:	38 a5 14 7c 	ori r5,r5,0x147c
  869df0:	38 84 15 88 	ori r4,r4,0x1588
  869df4:	38 63 15 84 	ori r3,r3,0x1584
  869df8:	38 42 15 90 	ori r2,r2,0x1590
  869dfc:	38 21 15 8c 	ori r1,r1,0x158c
  869e00:	34 08 00 01 	mvi r8,1
  869e04:	58 e8 00 00 	sw (r7+0),r8
  869e08:	58 c0 00 00 	sw (r6+0),r0
  869e0c:	58 a0 00 00 	sw (r5+0),r0
  869e10:	58 80 00 00 	sw (r4+0),r0
  869e14:	58 60 00 00 	sw (r3+0),r0
  869e18:	58 40 00 00 	sw (r2+0),r0
  869e1c:	58 20 00 00 	sw (r1+0),r0
  869e20:	90 20 10 00 	rcsr r2,IM
  869e24:	78 01 00 02 	mvhi r1,0x2
  869e28:	b8 41 08 00 	or r1,r2,r1
  869e2c:	d0 21 00 00 	wcsr IM,r1
  869e30:	2b 9d 00 04 	lw ra,(sp+4)
  869e34:	37 9c 00 04 	addi sp,sp,4
  869e38:	c3 a0 00 00 	ret
  869e3c:	78 01 00 86 	mvhi r1,0x86
  869e40:	38 21 f4 4c 	ori r1,r1,0xf44c
  869e44:	fb ff ed be 	calli 86553c <printf>
  869e48:	2b 9d 00 04 	lw ra,(sp+4)
  869e4c:	37 9c 00 04 	addi sp,sp,4
  869e50:	c3 a0 00 00 	ret

00869e54 <usb_debug_enable>:
  869e54:	78 02 40 02 	mvhi r2,0x4002
  869e58:	38 42 15 94 	ori r2,r2,0x1594
  869e5c:	58 41 00 00 	sw (r2+0),r1
  869e60:	c3 a0 00 00 	ret

00869e64 <usb_set_mouse_cb>:
  869e64:	78 02 40 02 	mvhi r2,0x4002
  869e68:	38 42 15 84 	ori r2,r2,0x1584
  869e6c:	58 41 00 00 	sw (r2+0),r1
  869e70:	c3 a0 00 00 	ret

00869e74 <usb_set_keyboard_cb>:
  869e74:	78 02 40 02 	mvhi r2,0x4002
  869e78:	38 42 15 8c 	ori r2,r2,0x158c
  869e7c:	58 41 00 00 	sw (r2+0),r1
  869e80:	c3 a0 00 00 	ret

00869e84 <usb_isr>:
  869e84:	37 9c ff bc 	addi sp,sp,-68
  869e88:	5b 8b 00 44 	sw (sp+68),r11
  869e8c:	5b 8c 00 40 	sw (sp+64),r12
  869e90:	5b 8d 00 3c 	sw (sp+60),r13
  869e94:	5b 8e 00 38 	sw (sp+56),r14
  869e98:	5b 8f 00 34 	sw (sp+52),r15
  869e9c:	5b 90 00 30 	sw (sp+48),r16
  869ea0:	5b 91 00 2c 	sw (sp+44),r17
  869ea4:	5b 92 00 28 	sw (sp+40),r18
  869ea8:	5b 93 00 24 	sw (sp+36),r19
  869eac:	5b 94 00 20 	sw (sp+32),r20
  869eb0:	5b 95 00 1c 	sw (sp+28),r21
  869eb4:	5b 96 00 18 	sw (sp+24),r22
  869eb8:	5b 97 00 14 	sw (sp+20),r23
  869ebc:	5b 98 00 10 	sw (sp+16),r24
  869ec0:	5b 99 00 0c 	sw (sp+12),r25
  869ec4:	5b 9b 00 08 	sw (sp+8),fp
  869ec8:	5b 9d 00 04 	sw (sp+4),ra
  869ecc:	78 01 00 02 	mvhi r1,0x2
  869ed0:	d0 41 00 00 	wcsr IP,r1
  869ed4:	78 01 00 86 	mvhi r1,0x86
  869ed8:	38 21 f4 c4 	ori r1,r1,0xf4c4
  869edc:	28 2e 00 00 	lw r14,(r1+0)
  869ee0:	78 0b 40 02 	mvhi r11,0x4002
  869ee4:	39 6b 14 7c 	ori r11,r11,0x147c
  869ee8:	41 c2 00 00 	lbu r2,(r14+0)
  869eec:	29 61 00 00 	lw r1,(r11+0)
  869ef0:	20 42 00 ff 	andi r2,r2,0xff
  869ef4:	44 41 00 24 	be r2,r1,869f84 <usb_isr+0x100>
  869ef8:	78 02 00 86 	mvhi r2,0x86
  869efc:	38 42 f4 c8 	ori r2,r2,0xf4c8
  869f00:	78 0c 40 02 	mvhi r12,0x4002
  869f04:	78 0d 40 02 	mvhi r13,0x4002
  869f08:	28 50 00 00 	lw r16,(r2+0)
  869f0c:	34 0f 00 0a 	mvi r15,10
  869f10:	39 8c 14 80 	ori r12,r12,0x1480
  869f14:	39 ad 14 84 	ori r13,r13,0x1484
  869f18:	34 11 00 ff 	mvi r17,255
  869f1c:	e0 00 00 0e 	bi 869f54 <usb_isr+0xd0>
  869f20:	29 82 00 00 	lw r2,(r12+0)
  869f24:	b5 a2 18 00 	add r3,r13,r2
  869f28:	34 42 00 01 	addi r2,r2,1
  869f2c:	30 61 00 00 	sb (r3+0),r1
  869f30:	59 82 00 00 	sw (r12+0),r2
  869f34:	44 51 00 0c 	be r2,r17,869f64 <usb_isr+0xe0>
  869f38:	29 61 00 00 	lw r1,(r11+0)
  869f3c:	34 21 00 01 	addi r1,r1,1
  869f40:	20 21 00 ff 	andi r1,r1,0xff
  869f44:	59 61 00 00 	sw (r11+0),r1
  869f48:	41 c2 00 00 	lbu r2,(r14+0)
  869f4c:	20 42 00 ff 	andi r2,r2,0xff
  869f50:	44 41 00 0d 	be r2,r1,869f84 <usb_isr+0x100>
  869f54:	b4 30 08 00 	add r1,r1,r16
  869f58:	40 21 00 00 	lbu r1,(r1+0)
  869f5c:	b0 20 08 00 	sextb r1,r1
  869f60:	5c 2f ff f0 	bne r1,r15,869f20 <usb_isr+0x9c>
  869f64:	fb ff ff 40 	calli 869c64 <flush_debug_buffer>
  869f68:	29 61 00 00 	lw r1,(r11+0)
  869f6c:	34 21 00 01 	addi r1,r1,1
  869f70:	20 21 00 ff 	andi r1,r1,0xff
  869f74:	59 61 00 00 	sw (r11+0),r1
  869f78:	41 c2 00 00 	lbu r2,(r14+0)
  869f7c:	20 42 00 ff 	andi r2,r2,0xff
  869f80:	5c 41 ff f5 	bne r2,r1,869f54 <usb_isr+0xd0>
  869f84:	78 03 00 86 	mvhi r3,0x86
  869f88:	38 63 f4 cc 	ori r3,r3,0xf4cc
  869f8c:	28 6d 00 00 	lw r13,(r3+0)
  869f90:	78 0b 40 02 	mvhi r11,0x4002
  869f94:	39 6b 15 88 	ori r11,r11,0x1588
  869f98:	41 a1 00 00 	lbu r1,(r13+0)
  869f9c:	29 62 00 00 	lw r2,(r11+0)
  869fa0:	20 21 00 ff 	andi r1,r1,0xff
  869fa4:	44 22 00 28 	be r1,r2,86a044 <usb_isr+0x1c0>
  869fa8:	78 06 00 86 	mvhi r6,0x86
  869fac:	78 03 00 86 	mvhi r3,0x86
  869fb0:	38 c6 f4 d0 	ori r6,r6,0xf4d0
  869fb4:	38 63 f4 d4 	ori r3,r3,0xf4d4
  869fb8:	28 d1 00 00 	lw r17,(r6+0)
  869fbc:	28 70 00 00 	lw r16,(r3+0)
  869fc0:	78 06 00 86 	mvhi r6,0x86
  869fc4:	78 03 00 86 	mvhi r3,0x86
  869fc8:	38 c6 f4 d8 	ori r6,r6,0xf4d8
  869fcc:	38 63 f4 dc 	ori r3,r3,0xf4dc
  869fd0:	28 cf 00 00 	lw r15,(r6+0)
  869fd4:	28 6e 00 00 	lw r14,(r3+0)
  869fd8:	78 0c 40 02 	mvhi r12,0x4002
  869fdc:	b8 40 08 00 	mv r1,r2
  869fe0:	39 8c 15 84 	ori r12,r12,0x1584
  869fe4:	29 85 00 00 	lw r5,(r12+0)
  869fe8:	3c 21 00 02 	sli r1,r1,2
  869fec:	b4 31 30 00 	add r6,r1,r17
  869ff0:	b4 30 20 00 	add r4,r1,r16
  869ff4:	b4 2f 18 00 	add r3,r1,r15
  869ff8:	b4 2e 08 00 	add r1,r1,r14
  869ffc:	44 a0 00 0b 	be r5,r0,86a028 <usb_isr+0x1a4>
  86a000:	40 c6 00 00 	lbu r6,(r6+0)
  86a004:	40 82 00 00 	lbu r2,(r4+0)
  86a008:	40 63 00 00 	lbu r3,(r3+0)
  86a00c:	40 24 00 00 	lbu r4,(r1+0)
  86a010:	b0 40 10 00 	sextb r2,r2
  86a014:	20 c1 00 ff 	andi r1,r6,0xff
  86a018:	b0 60 18 00 	sextb r3,r3
  86a01c:	20 84 00 ff 	andi r4,r4,0xff
  86a020:	d8 a0 00 00 	call r5
  86a024:	29 62 00 00 	lw r2,(r11+0)
  86a028:	34 41 00 01 	addi r1,r2,1
  86a02c:	20 21 00 0f 	andi r1,r1,0xf
  86a030:	59 61 00 00 	sw (r11+0),r1
  86a034:	41 a3 00 00 	lbu r3,(r13+0)
  86a038:	b8 20 10 00 	mv r2,r1
  86a03c:	20 63 00 ff 	andi r3,r3,0xff
  86a040:	5c 61 ff e9 	bne r3,r1,869fe4 <usb_isr+0x160>
  86a044:	78 06 00 86 	mvhi r6,0x86
  86a048:	38 c6 f4 e0 	ori r6,r6,0xf4e0
  86a04c:	28 d5 00 00 	lw r21,(r6+0)
  86a050:	78 13 40 02 	mvhi r19,0x4002
  86a054:	3a 73 15 90 	ori r19,r19,0x1590
  86a058:	42 a1 00 00 	lbu r1,(r21+0)
  86a05c:	2a 62 00 00 	lw r2,(r19+0)
  86a060:	20 21 00 ff 	andi r1,r1,0xff
  86a064:	44 22 00 92 	be r1,r2,86a2ac <usb_isr+0x428>
  86a068:	78 03 00 86 	mvhi r3,0x86
  86a06c:	38 63 f4 e4 	ori r3,r3,0xf4e4
  86a070:	28 76 00 00 	lw r22,(r3+0)
  86a074:	78 06 00 86 	mvhi r6,0x86
  86a078:	78 03 00 86 	mvhi r3,0x86
  86a07c:	38 c6 f4 e8 	ori r6,r6,0xf4e8
  86a080:	38 63 f4 ec 	ori r3,r3,0xf4ec
  86a084:	28 db 00 00 	lw fp,(r6+0)
  86a088:	28 79 00 00 	lw r25,(r3+0)
  86a08c:	78 06 00 86 	mvhi r6,0x86
  86a090:	78 03 00 86 	mvhi r3,0x86
  86a094:	78 0c 40 02 	mvhi r12,0x4002
  86a098:	78 12 40 66 	mvhi r18,0x4066
  86a09c:	38 c6 f4 f0 	ori r6,r6,0xf4f0
  86a0a0:	38 63 f4 f4 	ori r3,r3,0xf4f4
  86a0a4:	b8 40 08 00 	mv r1,r2
  86a0a8:	39 8c 15 8c 	ori r12,r12,0x158c
  86a0ac:	28 d8 00 00 	lw r24,(r6+0)
  86a0b0:	28 77 00 00 	lw r23,(r3+0)
  86a0b4:	3a 52 16 70 	ori r18,r18,0x1670
  86a0b8:	e0 00 00 09 	bi 86a0dc <usb_isr+0x258>
  86a0bc:	2a 61 00 00 	lw r1,(r19+0)
  86a0c0:	34 21 00 01 	addi r1,r1,1
  86a0c4:	20 21 00 07 	andi r1,r1,0x7
  86a0c8:	5a 61 00 00 	sw (r19+0),r1
  86a0cc:	42 a2 00 00 	lbu r2,(r21+0)
  86a0d0:	20 42 00 ff 	andi r2,r2,0xff
  86a0d4:	44 41 00 76 	be r2,r1,86a2ac <usb_isr+0x428>
  86a0d8:	b8 20 10 00 	mv r2,r1
  86a0dc:	29 83 00 00 	lw r3,(r12+0)
  86a0e0:	44 60 ff f8 	be r3,r0,86a0c0 <usb_isr+0x23c>
  86a0e4:	3c 42 00 03 	sli r2,r2,3
  86a0e8:	b4 56 08 00 	add r1,r2,r22
  86a0ec:	40 24 00 00 	lbu r4,(r1+0)
  86a0f0:	20 84 00 ff 	andi r4,r4,0xff
  86a0f4:	5c 80 ff f2 	bne r4,r0,86a0bc <usb_isr+0x238>
  86a0f8:	78 06 a0 02 	mvhi r6,0xa002
  86a0fc:	38 c6 11 43 	ori r6,r6,0x1143
  86a100:	b4 46 28 00 	add r5,r2,r6
  86a104:	78 06 a0 02 	mvhi r6,0xa002
  86a108:	38 c6 11 45 	ori r6,r6,0x1145
  86a10c:	b4 46 08 00 	add r1,r2,r6
  86a110:	40 b4 00 00 	lbu r20,(r5+0)
  86a114:	b4 5b 30 00 	add r6,r2,fp
  86a118:	40 2e 00 00 	lbu r14,(r1+0)
  86a11c:	b4 59 28 00 	add r5,r2,r25
  86a120:	b4 58 08 00 	add r1,r2,r24
  86a124:	b4 57 10 00 	add r2,r2,r23
  86a128:	40 cf 00 00 	lbu r15,(r6+0)
  86a12c:	40 b0 00 00 	lbu r16,(r5+0)
  86a130:	40 31 00 00 	lbu r17,(r1+0)
  86a134:	40 4d 00 00 	lbu r13,(r2+0)
  86a138:	21 ce 00 ff 	andi r14,r14,0xff
  86a13c:	22 94 00 ff 	andi r20,r20,0xff
  86a140:	21 ef 00 ff 	andi r15,r15,0xff
  86a144:	22 10 00 ff 	andi r16,r16,0xff
  86a148:	22 31 00 ff 	andi r17,r17,0xff
  86a14c:	21 ad 00 ff 	andi r13,r13,0xff
  86a150:	ba 40 58 00 	mv r11,r18
  86a154:	45 c4 00 0e 	be r14,r4,86a18c <usb_isr+0x308>
  86a158:	42 41 00 00 	lbu r1,(r18+0)
  86a15c:	44 2e 00 0c 	be r1,r14,86a18c <usb_isr+0x308>
  86a160:	42 41 00 01 	lbu r1,(r18+1)
  86a164:	44 2e 00 0a 	be r1,r14,86a18c <usb_isr+0x308>
  86a168:	42 41 00 02 	lbu r1,(r18+2)
  86a16c:	44 2e 00 08 	be r1,r14,86a18c <usb_isr+0x308>
  86a170:	42 41 00 03 	lbu r1,(r18+3)
  86a174:	44 2e 00 06 	be r1,r14,86a18c <usb_isr+0x308>
  86a178:	42 41 00 04 	lbu r1,(r18+4)
  86a17c:	44 2e 00 04 	be r1,r14,86a18c <usb_isr+0x308>
  86a180:	ba 80 08 00 	mv r1,r20
  86a184:	b9 c0 10 00 	mv r2,r14
  86a188:	d8 60 00 00 	call r3
  86a18c:	45 e0 00 0f 	be r15,r0,86a1c8 <usb_isr+0x344>
  86a190:	41 61 00 00 	lbu r1,(r11+0)
  86a194:	44 2f 00 0d 	be r1,r15,86a1c8 <usb_isr+0x344>
  86a198:	41 61 00 01 	lbu r1,(r11+1)
  86a19c:	44 2f 00 0b 	be r1,r15,86a1c8 <usb_isr+0x344>
  86a1a0:	41 61 00 02 	lbu r1,(r11+2)
  86a1a4:	44 2f 00 09 	be r1,r15,86a1c8 <usb_isr+0x344>
  86a1a8:	41 61 00 03 	lbu r1,(r11+3)
  86a1ac:	44 2f 00 07 	be r1,r15,86a1c8 <usb_isr+0x344>
  86a1b0:	41 61 00 04 	lbu r1,(r11+4)
  86a1b4:	44 2f 00 05 	be r1,r15,86a1c8 <usb_isr+0x344>
  86a1b8:	29 83 00 00 	lw r3,(r12+0)
  86a1bc:	ba 80 08 00 	mv r1,r20
  86a1c0:	b9 e0 10 00 	mv r2,r15
  86a1c4:	d8 60 00 00 	call r3
  86a1c8:	46 00 00 0f 	be r16,r0,86a204 <usb_isr+0x380>
  86a1cc:	41 61 00 00 	lbu r1,(r11+0)
  86a1d0:	44 30 00 0d 	be r1,r16,86a204 <usb_isr+0x380>
  86a1d4:	41 61 00 01 	lbu r1,(r11+1)
  86a1d8:	44 30 00 0b 	be r1,r16,86a204 <usb_isr+0x380>
  86a1dc:	41 61 00 02 	lbu r1,(r11+2)
  86a1e0:	44 30 00 09 	be r1,r16,86a204 <usb_isr+0x380>
  86a1e4:	41 61 00 03 	lbu r1,(r11+3)
  86a1e8:	44 30 00 07 	be r1,r16,86a204 <usb_isr+0x380>
  86a1ec:	41 61 00 04 	lbu r1,(r11+4)
  86a1f0:	44 30 00 05 	be r1,r16,86a204 <usb_isr+0x380>
  86a1f4:	29 83 00 00 	lw r3,(r12+0)
  86a1f8:	ba 80 08 00 	mv r1,r20
  86a1fc:	ba 00 10 00 	mv r2,r16
  86a200:	d8 60 00 00 	call r3
  86a204:	46 20 00 0f 	be r17,r0,86a240 <usb_isr+0x3bc>
  86a208:	41 61 00 00 	lbu r1,(r11+0)
  86a20c:	44 31 00 0d 	be r1,r17,86a240 <usb_isr+0x3bc>
  86a210:	41 61 00 01 	lbu r1,(r11+1)
  86a214:	44 31 00 0b 	be r1,r17,86a240 <usb_isr+0x3bc>
  86a218:	41 61 00 02 	lbu r1,(r11+2)
  86a21c:	44 31 00 09 	be r1,r17,86a240 <usb_isr+0x3bc>
  86a220:	41 61 00 03 	lbu r1,(r11+3)
  86a224:	44 31 00 07 	be r1,r17,86a240 <usb_isr+0x3bc>
  86a228:	41 61 00 04 	lbu r1,(r11+4)
  86a22c:	44 31 00 05 	be r1,r17,86a240 <usb_isr+0x3bc>
  86a230:	29 83 00 00 	lw r3,(r12+0)
  86a234:	ba 80 08 00 	mv r1,r20
  86a238:	ba 20 10 00 	mv r2,r17
  86a23c:	d8 60 00 00 	call r3
  86a240:	45 a0 00 0f 	be r13,r0,86a27c <usb_isr+0x3f8>
  86a244:	41 61 00 00 	lbu r1,(r11+0)
  86a248:	44 2d 00 0d 	be r1,r13,86a27c <usb_isr+0x3f8>
  86a24c:	41 61 00 01 	lbu r1,(r11+1)
  86a250:	44 2d 00 0b 	be r1,r13,86a27c <usb_isr+0x3f8>
  86a254:	41 61 00 02 	lbu r1,(r11+2)
  86a258:	44 2d 00 09 	be r1,r13,86a27c <usb_isr+0x3f8>
  86a25c:	41 61 00 03 	lbu r1,(r11+3)
  86a260:	44 2d 00 07 	be r1,r13,86a27c <usb_isr+0x3f8>
  86a264:	41 61 00 04 	lbu r1,(r11+4)
  86a268:	44 2d 00 05 	be r1,r13,86a27c <usb_isr+0x3f8>
  86a26c:	29 83 00 00 	lw r3,(r12+0)
  86a270:	ba 80 08 00 	mv r1,r20
  86a274:	b9 a0 10 00 	mv r2,r13
  86a278:	d8 60 00 00 	call r3
  86a27c:	2a 61 00 00 	lw r1,(r19+0)
  86a280:	31 6e 00 00 	sb (r11+0),r14
  86a284:	31 6f 00 01 	sb (r11+1),r15
  86a288:	34 21 00 01 	addi r1,r1,1
  86a28c:	20 21 00 07 	andi r1,r1,0x7
  86a290:	31 70 00 02 	sb (r11+2),r16
  86a294:	31 71 00 03 	sb (r11+3),r17
  86a298:	31 6d 00 04 	sb (r11+4),r13
  86a29c:	5a 61 00 00 	sw (r19+0),r1
  86a2a0:	42 a2 00 00 	lbu r2,(r21+0)
  86a2a4:	20 42 00 ff 	andi r2,r2,0xff
  86a2a8:	5c 41 ff 8c 	bne r2,r1,86a0d8 <usb_isr+0x254>
  86a2ac:	2b 9d 00 04 	lw ra,(sp+4)
  86a2b0:	2b 8b 00 44 	lw r11,(sp+68)
  86a2b4:	2b 8c 00 40 	lw r12,(sp+64)
  86a2b8:	2b 8d 00 3c 	lw r13,(sp+60)
  86a2bc:	2b 8e 00 38 	lw r14,(sp+56)
  86a2c0:	2b 8f 00 34 	lw r15,(sp+52)
  86a2c4:	2b 90 00 30 	lw r16,(sp+48)
  86a2c8:	2b 91 00 2c 	lw r17,(sp+44)
  86a2cc:	2b 92 00 28 	lw r18,(sp+40)
  86a2d0:	2b 93 00 24 	lw r19,(sp+36)
  86a2d4:	2b 94 00 20 	lw r20,(sp+32)
  86a2d8:	2b 95 00 1c 	lw r21,(sp+28)
  86a2dc:	2b 96 00 18 	lw r22,(sp+24)
  86a2e0:	2b 97 00 14 	lw r23,(sp+20)
  86a2e4:	2b 98 00 10 	lw r24,(sp+16)
  86a2e8:	2b 99 00 0c 	lw r25,(sp+12)
  86a2ec:	2b 9b 00 08 	lw fp,(sp+8)
  86a2f0:	37 9c 00 44 	addi sp,sp,68
  86a2f4:	c3 a0 00 00 	ret

0086a2f8 <scroll>:
  86a2f8:	37 9c ff f0 	addi sp,sp,-16
  86a2fc:	5b 8b 00 10 	sw (sp+16),r11
  86a300:	5b 8c 00 0c 	sw (sp+12),r12
  86a304:	5b 8d 00 08 	sw (sp+8),r13
  86a308:	5b 9d 00 04 	sw (sp+4),ra
  86a30c:	78 01 40 66 	mvhi r1,0x4066
  86a310:	38 21 16 64 	ori r1,r1,0x1664
  86a314:	28 21 00 00 	lw r1,(r1+0)
  86a318:	5c 20 00 22 	bne r1,r0,86a3a0 <scroll+0xa8>
  86a31c:	78 0c 40 66 	mvhi r12,0x4066
  86a320:	39 8c 16 78 	ori r12,r12,0x1678
  86a324:	78 0d 40 66 	mvhi r13,0x4066
  86a328:	29 82 00 00 	lw r2,(r12+0)
  86a32c:	39 ad 16 8c 	ori r13,r13,0x168c
  86a330:	29 a1 00 00 	lw r1,(r13+0)
  86a334:	3c 43 00 01 	sli r3,r2,1
  86a338:	78 0b 40 4a 	mvhi r11,0x404a
  86a33c:	34 21 ff f0 	addi r1,r1,-16
  86a340:	88 61 18 00 	mul r3,r3,r1
  86a344:	3c 42 00 05 	sli r2,r2,5
  86a348:	39 6b 15 a0 	ori r11,r11,0x15a0
  86a34c:	b4 4b 10 00 	add r2,r2,r11
  86a350:	b9 60 08 00 	mv r1,r11
  86a354:	fb ff e9 6b 	calli 864900 <memcpy>
  86a358:	29 a1 00 00 	lw r1,(r13+0)
  86a35c:	29 83 00 00 	lw r3,(r12+0)
  86a360:	34 02 00 00 	mvi r2,0
  86a364:	34 21 ff f0 	addi r1,r1,-16
  86a368:	88 23 08 00 	mul r1,r1,r3
  86a36c:	3c 63 00 05 	sli r3,r3,5
  86a370:	3c 21 00 01 	sli r1,r1,1
  86a374:	b4 2b 08 00 	add r1,r1,r11
  86a378:	fb ff e9 30 	calli 864838 <memset>
  86a37c:	78 01 40 62 	mvhi r1,0x4062
  86a380:	38 21 15 a0 	ori r1,r1,0x15a0
  86a384:	58 20 00 00 	sw (r1+0),r0
  86a388:	2b 9d 00 04 	lw ra,(sp+4)
  86a38c:	2b 8b 00 10 	lw r11,(sp+16)
  86a390:	2b 8c 00 0c 	lw r12,(sp+12)
  86a394:	2b 8d 00 08 	lw r13,(sp+8)
  86a398:	37 9c 00 10 	addi sp,sp,16
  86a39c:	c3 a0 00 00 	ret
  86a3a0:	78 02 40 66 	mvhi r2,0x4066
  86a3a4:	78 01 40 66 	mvhi r1,0x4066
  86a3a8:	38 21 16 8c 	ori r1,r1,0x168c
  86a3ac:	38 42 16 78 	ori r2,r2,0x1678
  86a3b0:	28 23 00 00 	lw r3,(r1+0)
  86a3b4:	28 42 00 00 	lw r2,(r2+0)
  86a3b8:	78 01 00 87 	mvhi r1,0x87
  86a3bc:	38 21 04 08 	ori r1,r1,0x408
  86a3c0:	28 27 00 00 	lw r7,(r1+0)
  86a3c4:	3c 49 00 06 	sli r9,r2,6
  86a3c8:	3c 68 00 06 	sli r8,r3,6
  86a3cc:	78 01 40 64 	mvhi r1,0x4064
  86a3d0:	78 0b 40 66 	mvhi r11,0x4066
  86a3d4:	78 04 40 4a 	mvhi r4,0x404a
  86a3d8:	78 05 00 86 	mvhi r5,0x86
  86a3dc:	39 6b 15 c0 	ori r11,r11,0x15c0
  86a3e0:	38 21 15 c0 	ori r1,r1,0x15c0
  86a3e4:	38 84 15 a0 	ori r4,r4,0x15a0
  86a3e8:	34 0a 04 00 	mvi r10,1024
  86a3ec:	34 06 00 3f 	mvi r6,63
  86a3f0:	34 0c 00 01 	mvi r12,1
  86a3f4:	34 6d ff f0 	addi r13,r3,-16
  86a3f8:	38 a5 aa 20 	ori r5,r5,0xaa20
  86a3fc:	58 2a 00 04 	sw (r1+4),r10
  86a400:	58 29 00 08 	sw (r1+8),r9
  86a404:	58 2a 00 0c 	sw (r1+12),r10
  86a408:	58 28 04 04 	sw (r1+1028),r8
  86a40c:	58 29 04 08 	sw (r1+1032),r9
  86a410:	58 28 04 0c 	sw (r1+1036),r8
  86a414:	59 66 00 0c 	sw (r11+12),r6
  86a418:	59 61 00 14 	sw (r11+20),r1
  86a41c:	59 64 00 18 	sw (r11+24),r4
  86a420:	59 62 00 1c 	sw (r11+28),r2
  86a424:	59 63 00 20 	sw (r11+32),r3
  86a428:	59 67 00 24 	sw (r11+36),r7
  86a42c:	59 67 00 28 	sw (r11+40),r7
  86a430:	59 64 00 2c 	sw (r11+44),r4
  86a434:	59 62 00 30 	sw (r11+48),r2
  86a438:	59 63 00 34 	sw (r11+52),r3
  86a43c:	59 62 00 40 	sw (r11+64),r2
  86a440:	59 66 00 48 	sw (r11+72),r6
  86a444:	59 65 00 4c 	sw (r11+76),r5
  86a448:	58 20 00 00 	sw (r1+0),r0
  86a44c:	58 20 04 00 	sw (r1+1024),r0
  86a450:	59 60 00 00 	sw (r11+0),r0
  86a454:	59 6c 00 04 	sw (r11+4),r12
  86a458:	59 6c 00 08 	sw (r11+8),r12
  86a45c:	0d 60 00 10 	sh (r11+16),r0
  86a460:	59 60 00 38 	sw (r11+56),r0
  86a464:	59 60 00 3c 	sw (r11+60),r0
  86a468:	59 6d 00 44 	sw (r11+68),r13
  86a46c:	59 60 00 50 	sw (r11+80),r0
  86a470:	fb ff ef bf 	calli 86636c <flush_bridge_cache>
  86a474:	b9 60 08 00 	mv r1,r11
  86a478:	fb ff fd 71 	calli 869a3c <tmu_submit_task>
  86a47c:	78 01 40 62 	mvhi r1,0x4062
  86a480:	38 21 15 ac 	ori r1,r1,0x15ac
  86a484:	58 2c 00 00 	sw (r1+0),r12
  86a488:	2b 9d 00 04 	lw ra,(sp+4)
  86a48c:	2b 8b 00 10 	lw r11,(sp+16)
  86a490:	2b 8c 00 0c 	lw r12,(sp+12)
  86a494:	2b 8d 00 08 	lw r13,(sp+8)
  86a498:	37 9c 00 10 	addi sp,sp,16
  86a49c:	c3 a0 00 00 	ret

0086a4a0 <write_hook>:
  86a4a0:	37 9c ff c8 	addi sp,sp,-56
  86a4a4:	5b 8b 00 38 	sw (sp+56),r11
  86a4a8:	5b 8c 00 34 	sw (sp+52),r12
  86a4ac:	5b 8d 00 30 	sw (sp+48),r13
  86a4b0:	5b 8e 00 2c 	sw (sp+44),r14
  86a4b4:	5b 8f 00 28 	sw (sp+40),r15
  86a4b8:	5b 90 00 24 	sw (sp+36),r16
  86a4bc:	5b 91 00 20 	sw (sp+32),r17
  86a4c0:	5b 92 00 1c 	sw (sp+28),r18
  86a4c4:	5b 93 00 18 	sw (sp+24),r19
  86a4c8:	5b 94 00 14 	sw (sp+20),r20
  86a4cc:	5b 95 00 10 	sw (sp+16),r21
  86a4d0:	5b 96 00 0c 	sw (sp+12),r22
  86a4d4:	5b 97 00 08 	sw (sp+8),r23
  86a4d8:	5b 9d 00 04 	sw (sp+4),ra
  86a4dc:	78 0b 40 62 	mvhi r11,0x4062
  86a4e0:	39 6b 15 ac 	ori r11,r11,0x15ac
  86a4e4:	29 63 00 00 	lw r3,(r11+0)
  86a4e8:	b0 20 08 00 	sextb r1,r1
  86a4ec:	5c 60 00 97 	bne r3,r0,86a748 <write_hook+0x2a8>
  86a4f0:	78 02 40 64 	mvhi r2,0x4064
  86a4f4:	38 42 15 b4 	ori r2,r2,0x15b4
  86a4f8:	28 44 00 00 	lw r4,(r2+0)
  86a4fc:	44 83 00 0c 	be r4,r3,86a52c <write_hook+0x8c>
  86a500:	34 03 00 31 	mvi r3,49
  86a504:	44 23 00 c0 	be r1,r3,86a804 <write_hook+0x364>
  86a508:	48 23 00 ad 	bg r1,r3,86a7bc <write_hook+0x31c>
  86a50c:	34 03 00 0a 	mvi r3,10
  86a510:	44 23 00 ad 	be r1,r3,86a7c4 <write_hook+0x324>
  86a514:	34 02 00 30 	mvi r2,48
  86a518:	5c 22 00 99 	bne r1,r2,86a77c <write_hook+0x2dc>
  86a51c:	78 01 40 64 	mvhi r1,0x4064
  86a520:	38 21 15 b8 	ori r1,r1,0x15b8
  86a524:	58 20 00 00 	sw (r1+0),r0
  86a528:	e0 00 00 95 	bi 86a77c <write_hook+0x2dc>
  86a52c:	34 03 00 0a 	mvi r3,10
  86a530:	44 23 00 c7 	be r1,r3,86a84c <write_hook+0x3ac>
  86a534:	34 03 00 08 	mvi r3,8
  86a538:	44 23 00 a5 	be r1,r3,86a7cc <write_hook+0x32c>
  86a53c:	34 03 00 1b 	mvi r3,27
  86a540:	44 23 00 b6 	be r1,r3,86a818 <write_hook+0x378>
  86a544:	78 10 40 66 	mvhi r16,0x4066
  86a548:	78 0f 40 66 	mvhi r15,0x4066
  86a54c:	3a 10 16 8c 	ori r16,r16,0x168c
  86a550:	78 11 40 62 	mvhi r17,0x4062
  86a554:	39 ef 16 78 	ori r15,r15,0x1678
  86a558:	2a 05 00 00 	lw r5,(r16+0)
  86a55c:	29 f6 00 00 	lw r22,(r15+0)
  86a560:	3a 31 15 a0 	ori r17,r17,0x15a0
  86a564:	78 02 40 64 	mvhi r2,0x4064
  86a568:	2a 37 00 00 	lw r23,(r17+0)
  86a56c:	38 42 15 b8 	ori r2,r2,0x15b8
  86a570:	34 a5 ff f0 	addi r5,r5,-16
  86a574:	28 43 00 00 	lw r3,(r2+0)
  86a578:	88 b6 10 00 	mul r2,r5,r22
  86a57c:	3e e5 00 03 	sli r5,r23,3
  86a580:	e4 64 18 00 	cmpe r3,r3,r4
  86a584:	b4 a2 10 00 	add r2,r5,r2
  86a588:	20 35 00 ff 	andi r21,r1,0xff
  86a58c:	34 41 00 07 	addi r1,r2,7
  86a590:	c8 03 18 00 	sub r3,r0,r3
  86a594:	3e b5 00 04 	sli r21,r21,4
  86a598:	78 12 00 87 	mvhi r18,0x87
  86a59c:	3c 21 00 01 	sli r1,r1,1
  86a5a0:	78 13 40 4a 	mvhi r19,0x404a
  86a5a4:	34 02 c6 19 	mvi r2,-14823
  86a5a8:	a0 62 10 00 	and r2,r3,r2
  86a5ac:	3a 52 05 34 	ori r18,r18,0x534
  86a5b0:	38 03 ff ff 	mvu r3,0xffff
  86a5b4:	3a 73 15 a0 	ori r19,r19,0x15a0
  86a5b8:	3e d6 00 01 	sli r22,r22,1
  86a5bc:	b4 43 10 00 	add r2,r2,r3
  86a5c0:	b6 b2 a8 00 	add r21,r21,r18
  86a5c4:	b4 33 08 00 	add r1,r1,r19
  86a5c8:	34 03 00 00 	mvi r3,0
  86a5cc:	34 14 00 10 	mvi r20,16
  86a5d0:	b6 a3 20 00 	add r4,r21,r3
  86a5d4:	40 84 00 00 	lbu r4,(r4+0)
  86a5d8:	34 63 00 01 	addi r3,r3,1
  86a5dc:	00 85 00 01 	srui r5,r4,1
  86a5e0:	20 8e 00 01 	andi r14,r4,0x1
  86a5e4:	00 a4 00 01 	srui r4,r5,1
  86a5e8:	20 ad 00 01 	andi r13,r5,0x1
  86a5ec:	00 85 00 01 	srui r5,r4,1
  86a5f0:	20 8c 00 01 	andi r12,r4,0x1
  86a5f4:	00 a4 00 01 	srui r4,r5,1
  86a5f8:	20 aa 00 01 	andi r10,r5,0x1
  86a5fc:	00 85 00 01 	srui r5,r4,1
  86a600:	20 89 00 01 	andi r9,r4,0x1
  86a604:	00 a4 00 01 	srui r4,r5,1
  86a608:	20 a8 00 01 	andi r8,r5,0x1
  86a60c:	00 86 00 01 	srui r6,r4,1
  86a610:	20 87 00 01 	andi r7,r4,0x1
  86a614:	88 4e 70 00 	mul r14,r2,r14
  86a618:	88 4d 68 00 	mul r13,r2,r13
  86a61c:	88 4c 60 00 	mul r12,r2,r12
  86a620:	88 4a 50 00 	mul r10,r2,r10
  86a624:	88 49 48 00 	mul r9,r2,r9
  86a628:	88 48 40 00 	mul r8,r2,r8
  86a62c:	88 47 38 00 	mul r7,r2,r7
  86a630:	88 46 30 00 	mul r6,r2,r6
  86a634:	0c 2e 00 00 	sh (r1+0),r14
  86a638:	0c 2d ff fe 	sh (r1+-2),r13
  86a63c:	0c 2c ff fc 	sh (r1+-4),r12
  86a640:	0c 2a ff fa 	sh (r1+-6),r10
  86a644:	0c 29 ff f8 	sh (r1+-8),r9
  86a648:	0c 28 ff f6 	sh (r1+-10),r8
  86a64c:	0c 27 ff f4 	sh (r1+-12),r7
  86a650:	0c 26 ff f2 	sh (r1+-14),r6
  86a654:	b4 36 08 00 	add r1,r1,r22
  86a658:	5c 74 ff de 	bne r3,r20,86a5d0 <write_hook+0x130>
  86a65c:	78 01 40 62 	mvhi r1,0x4062
  86a660:	38 21 15 a4 	ori r1,r1,0x15a4
  86a664:	28 22 00 00 	lw r2,(r1+0)
  86a668:	36 e1 00 01 	addi r1,r23,1
  86a66c:	5a 21 00 00 	sw (r17+0),r1
  86a670:	34 42 ff ff 	addi r2,r2,-1
  86a674:	54 41 00 04 	bgu r2,r1,86a684 <write_hook+0x1e4>
  86a678:	fb ff ff 20 	calli 86a2f8 <scroll>
  86a67c:	29 61 00 00 	lw r1,(r11+0)
  86a680:	5c 20 00 3f 	bne r1,r0,86a77c <write_hook+0x2dc>
  86a684:	2a 23 00 00 	lw r3,(r17+0)
  86a688:	2a 01 00 00 	lw r1,(r16+0)
  86a68c:	29 ed 00 00 	lw r13,(r15+0)
  86a690:	3c 63 00 03 	sli r3,r3,3
  86a694:	34 21 ff f0 	addi r1,r1,-16
  86a698:	88 2d 08 00 	mul r1,r1,r13
  86a69c:	78 02 00 87 	mvhi r2,0x87
  86a6a0:	3d ad 00 01 	sli r13,r13,1
  86a6a4:	34 21 00 07 	addi r1,r1,7
  86a6a8:	b4 61 08 00 	add r1,r3,r1
  86a6ac:	3c 21 00 01 	sli r1,r1,1
  86a6b0:	38 42 12 e4 	ori r2,r2,0x12e4
  86a6b4:	b4 33 08 00 	add r1,r1,r19
  86a6b8:	36 52 0d c0 	addi r18,r18,3520
  86a6bc:	40 43 00 00 	lbu r3,(r2+0)
  86a6c0:	34 42 00 01 	addi r2,r2,1
  86a6c4:	00 64 00 01 	srui r4,r3,1
  86a6c8:	20 6c 00 01 	andi r12,r3,0x1
  86a6cc:	00 83 00 01 	srui r3,r4,1
  86a6d0:	20 8b 00 01 	andi r11,r4,0x1
  86a6d4:	00 64 00 01 	srui r4,r3,1
  86a6d8:	20 6a 00 01 	andi r10,r3,0x1
  86a6dc:	00 83 00 01 	srui r3,r4,1
  86a6e0:	20 89 00 01 	andi r9,r4,0x1
  86a6e4:	00 64 00 01 	srui r4,r3,1
  86a6e8:	20 68 00 01 	andi r8,r3,0x1
  86a6ec:	00 83 00 01 	srui r3,r4,1
  86a6f0:	20 87 00 01 	andi r7,r4,0x1
  86a6f4:	00 65 00 01 	srui r5,r3,1
  86a6f8:	20 66 00 01 	andi r6,r3,0x1
  86a6fc:	09 8c c6 18 	muli r12,r12,-14824
  86a700:	09 6b c6 18 	muli r11,r11,-14824
  86a704:	09 4a c6 18 	muli r10,r10,-14824
  86a708:	09 29 c6 18 	muli r9,r9,-14824
  86a70c:	09 08 c6 18 	muli r8,r8,-14824
  86a710:	08 e7 c6 18 	muli r7,r7,-14824
  86a714:	08 c6 c6 18 	muli r6,r6,-14824
  86a718:	08 a5 c6 18 	muli r5,r5,-14824
  86a71c:	0c 2c 00 00 	sh (r1+0),r12
  86a720:	0c 2b ff fe 	sh (r1+-2),r11
  86a724:	0c 2a ff fc 	sh (r1+-4),r10
  86a728:	0c 29 ff fa 	sh (r1+-6),r9
  86a72c:	0c 28 ff f8 	sh (r1+-8),r8
  86a730:	0c 27 ff f6 	sh (r1+-10),r7
  86a734:	0c 26 ff f4 	sh (r1+-12),r6
  86a738:	0c 25 ff f2 	sh (r1+-14),r5
  86a73c:	b4 2d 08 00 	add r1,r1,r13
  86a740:	5c 52 ff df 	bne r2,r18,86a6bc <write_hook+0x21c>
  86a744:	e0 00 00 0e 	bi 86a77c <write_hook+0x2dc>
  86a748:	78 02 40 62 	mvhi r2,0x4062
  86a74c:	38 42 15 b0 	ori r2,r2,0x15b0
  86a750:	28 44 00 00 	lw r4,(r2+0)
  86a754:	78 03 40 62 	mvhi r3,0x4062
  86a758:	78 06 00 86 	mvhi r6,0x86
  86a75c:	38 63 15 b4 	ori r3,r3,0x15b4
  86a760:	38 c6 ee c8 	ori r6,r6,0xeec8
  86a764:	34 85 00 01 	addi r5,r4,1
  86a768:	b4 64 18 00 	add r3,r3,r4
  86a76c:	28 c4 00 00 	lw r4,(r6+0)
  86a770:	30 61 00 00 	sb (r3+0),r1
  86a774:	a0 a4 20 00 	and r4,r5,r4
  86a778:	58 44 00 00 	sw (r2+0),r4
  86a77c:	2b 9d 00 04 	lw ra,(sp+4)
  86a780:	2b 8b 00 38 	lw r11,(sp+56)
  86a784:	2b 8c 00 34 	lw r12,(sp+52)
  86a788:	2b 8d 00 30 	lw r13,(sp+48)
  86a78c:	2b 8e 00 2c 	lw r14,(sp+44)
  86a790:	2b 8f 00 28 	lw r15,(sp+40)
  86a794:	2b 90 00 24 	lw r16,(sp+36)
  86a798:	2b 91 00 20 	lw r17,(sp+32)
  86a79c:	2b 92 00 1c 	lw r18,(sp+28)
  86a7a0:	2b 93 00 18 	lw r19,(sp+24)
  86a7a4:	2b 94 00 14 	lw r20,(sp+20)
  86a7a8:	2b 95 00 10 	lw r21,(sp+16)
  86a7ac:	2b 96 00 0c 	lw r22,(sp+12)
  86a7b0:	2b 97 00 08 	lw r23,(sp+8)
  86a7b4:	37 9c 00 38 	addi sp,sp,56
  86a7b8:	c3 a0 00 00 	ret
  86a7bc:	34 03 00 6d 	mvi r3,109
  86a7c0:	5c 23 ff ef 	bne r1,r3,86a77c <write_hook+0x2dc>
  86a7c4:	58 40 00 00 	sw (r2+0),r0
  86a7c8:	e3 ff ff ed 	bi 86a77c <write_hook+0x2dc>
  86a7cc:	78 11 40 62 	mvhi r17,0x4062
  86a7d0:	3a 31 15 a0 	ori r17,r17,0x15a0
  86a7d4:	2a 34 00 00 	lw r20,(r17+0)
  86a7d8:	5e 84 00 58 	bne r20,r4,86a938 <write_hook+0x498>
  86a7dc:	78 0f 40 66 	mvhi r15,0x4066
  86a7e0:	78 10 40 66 	mvhi r16,0x4066
  86a7e4:	78 13 40 4a 	mvhi r19,0x404a
  86a7e8:	78 12 00 87 	mvhi r18,0x87
  86a7ec:	34 03 00 00 	mvi r3,0
  86a7f0:	39 ef 16 78 	ori r15,r15,0x1678
  86a7f4:	3a 10 16 8c 	ori r16,r16,0x168c
  86a7f8:	3a 73 15 a0 	ori r19,r19,0x15a0
  86a7fc:	3a 52 05 34 	ori r18,r18,0x534
  86a800:	e3 ff ff a2 	bi 86a688 <write_hook+0x1e8>
  86a804:	78 01 40 64 	mvhi r1,0x4064
  86a808:	38 21 15 b8 	ori r1,r1,0x15b8
  86a80c:	34 02 00 01 	mvi r2,1
  86a810:	58 22 00 00 	sw (r1+0),r2
  86a814:	e3 ff ff da 	bi 86a77c <write_hook+0x2dc>
  86a818:	78 0f 40 66 	mvhi r15,0x4066
  86a81c:	78 11 40 62 	mvhi r17,0x4062
  86a820:	78 10 40 66 	mvhi r16,0x4066
  86a824:	78 13 40 4a 	mvhi r19,0x404a
  86a828:	78 12 00 87 	mvhi r18,0x87
  86a82c:	34 01 00 01 	mvi r1,1
  86a830:	58 41 00 00 	sw (r2+0),r1
  86a834:	39 ef 16 78 	ori r15,r15,0x1678
  86a838:	3a 31 15 a0 	ori r17,r17,0x15a0
  86a83c:	3a 10 16 8c 	ori r16,r16,0x168c
  86a840:	3a 73 15 a0 	ori r19,r19,0x15a0
  86a844:	3a 52 05 34 	ori r18,r18,0x534
  86a848:	e3 ff ff 8f 	bi 86a684 <write_hook+0x1e4>
  86a84c:	78 10 40 66 	mvhi r16,0x4066
  86a850:	78 0f 40 66 	mvhi r15,0x4066
  86a854:	3a 10 16 8c 	ori r16,r16,0x168c
  86a858:	39 ef 16 78 	ori r15,r15,0x1678
  86a85c:	78 11 40 62 	mvhi r17,0x4062
  86a860:	2a 01 00 00 	lw r1,(r16+0)
  86a864:	29 f4 00 00 	lw r20,(r15+0)
  86a868:	3a 31 15 a0 	ori r17,r17,0x15a0
  86a86c:	2a 22 00 00 	lw r2,(r17+0)
  86a870:	34 21 ff f0 	addi r1,r1,-16
  86a874:	88 34 08 00 	mul r1,r1,r20
  86a878:	3c 42 00 03 	sli r2,r2,3
  86a87c:	78 13 40 4a 	mvhi r19,0x404a
  86a880:	b4 41 10 00 	add r2,r2,r1
  86a884:	34 42 00 07 	addi r2,r2,7
  86a888:	3c 42 00 01 	sli r2,r2,1
  86a88c:	78 12 00 87 	mvhi r18,0x87
  86a890:	78 03 00 87 	mvhi r3,0x87
  86a894:	3a 73 15 a0 	ori r19,r19,0x15a0
  86a898:	3a 52 05 34 	ori r18,r18,0x534
  86a89c:	3e 94 00 01 	sli r20,r20,1
  86a8a0:	38 63 07 34 	ori r3,r3,0x734
  86a8a4:	b4 53 10 00 	add r2,r2,r19
  86a8a8:	36 4e 02 10 	addi r14,r18,528
  86a8ac:	40 61 00 00 	lbu r1,(r3+0)
  86a8b0:	34 63 00 01 	addi r3,r3,1
  86a8b4:	00 24 00 01 	srui r4,r1,1
  86a8b8:	20 2d 00 01 	andi r13,r1,0x1
  86a8bc:	00 81 00 01 	srui r1,r4,1
  86a8c0:	20 8c 00 01 	andi r12,r4,0x1
  86a8c4:	00 24 00 01 	srui r4,r1,1
  86a8c8:	20 2a 00 01 	andi r10,r1,0x1
  86a8cc:	00 81 00 01 	srui r1,r4,1
  86a8d0:	20 89 00 01 	andi r9,r4,0x1
  86a8d4:	00 24 00 01 	srui r4,r1,1
  86a8d8:	20 28 00 01 	andi r8,r1,0x1
  86a8dc:	00 81 00 01 	srui r1,r4,1
  86a8e0:	20 87 00 01 	andi r7,r4,0x1
  86a8e4:	00 25 00 01 	srui r5,r1,1
  86a8e8:	20 26 00 01 	andi r6,r1,0x1
  86a8ec:	09 ad c6 18 	muli r13,r13,-14824
  86a8f0:	09 8c c6 18 	muli r12,r12,-14824
  86a8f4:	09 4a c6 18 	muli r10,r10,-14824
  86a8f8:	09 29 c6 18 	muli r9,r9,-14824
  86a8fc:	09 08 c6 18 	muli r8,r8,-14824
  86a900:	08 e7 c6 18 	muli r7,r7,-14824
  86a904:	08 c6 c6 18 	muli r6,r6,-14824
  86a908:	08 a5 c6 18 	muli r5,r5,-14824
  86a90c:	0c 4d 00 00 	sh (r2+0),r13
  86a910:	0c 4c ff fe 	sh (r2+-2),r12
  86a914:	0c 4a ff fc 	sh (r2+-4),r10
  86a918:	0c 49 ff fa 	sh (r2+-6),r9
  86a91c:	0c 48 ff f8 	sh (r2+-8),r8
  86a920:	0c 47 ff f6 	sh (r2+-10),r7
  86a924:	0c 46 ff f4 	sh (r2+-12),r6
  86a928:	0c 45 ff f2 	sh (r2+-14),r5
  86a92c:	b4 54 10 00 	add r2,r2,r20
  86a930:	5c 6e ff df 	bne r3,r14,86a8ac <write_hook+0x40c>
  86a934:	e3 ff ff 51 	bi 86a678 <write_hook+0x1d8>
  86a938:	78 10 40 66 	mvhi r16,0x4066
  86a93c:	78 0f 40 66 	mvhi r15,0x4066
  86a940:	3a 10 16 8c 	ori r16,r16,0x168c
  86a944:	39 ef 16 78 	ori r15,r15,0x1678
  86a948:	2a 01 00 00 	lw r1,(r16+0)
  86a94c:	29 ee 00 00 	lw r14,(r15+0)
  86a950:	3e 82 00 03 	sli r2,r20,3
  86a954:	34 21 ff f0 	addi r1,r1,-16
  86a958:	88 2e 08 00 	mul r1,r1,r14
  86a95c:	78 13 40 4a 	mvhi r19,0x404a
  86a960:	78 12 00 87 	mvhi r18,0x87
  86a964:	b4 41 10 00 	add r2,r2,r1
  86a968:	34 42 00 07 	addi r2,r2,7
  86a96c:	3c 42 00 01 	sli r2,r2,1
  86a970:	78 01 00 87 	mvhi r1,0x87
  86a974:	3a 73 15 a0 	ori r19,r19,0x15a0
  86a978:	3a 52 05 34 	ori r18,r18,0x534
  86a97c:	3d ce 00 01 	sli r14,r14,1
  86a980:	38 21 07 34 	ori r1,r1,0x734
  86a984:	b4 53 10 00 	add r2,r2,r19
  86a988:	36 4d 02 10 	addi r13,r18,528
  86a98c:	40 23 00 00 	lbu r3,(r1+0)
  86a990:	34 21 00 01 	addi r1,r1,1
  86a994:	00 64 00 01 	srui r4,r3,1
  86a998:	20 6c 00 01 	andi r12,r3,0x1
  86a99c:	00 83 00 01 	srui r3,r4,1
  86a9a0:	20 8b 00 01 	andi r11,r4,0x1
  86a9a4:	00 64 00 01 	srui r4,r3,1
  86a9a8:	20 6a 00 01 	andi r10,r3,0x1
  86a9ac:	00 83 00 01 	srui r3,r4,1
  86a9b0:	20 89 00 01 	andi r9,r4,0x1
  86a9b4:	00 64 00 01 	srui r4,r3,1
  86a9b8:	20 68 00 01 	andi r8,r3,0x1
  86a9bc:	00 83 00 01 	srui r3,r4,1
  86a9c0:	20 87 00 01 	andi r7,r4,0x1
  86a9c4:	00 65 00 01 	srui r5,r3,1
  86a9c8:	20 66 00 01 	andi r6,r3,0x1
  86a9cc:	09 8c c6 18 	muli r12,r12,-14824
  86a9d0:	09 6b c6 18 	muli r11,r11,-14824
  86a9d4:	09 4a c6 18 	muli r10,r10,-14824
  86a9d8:	09 29 c6 18 	muli r9,r9,-14824
  86a9dc:	09 08 c6 18 	muli r8,r8,-14824
  86a9e0:	08 e7 c6 18 	muli r7,r7,-14824
  86a9e4:	08 c6 c6 18 	muli r6,r6,-14824
  86a9e8:	08 a5 c6 18 	muli r5,r5,-14824
  86a9ec:	0c 4c 00 00 	sh (r2+0),r12
  86a9f0:	0c 4b ff fe 	sh (r2+-2),r11
  86a9f4:	0c 4a ff fc 	sh (r2+-4),r10
  86a9f8:	0c 49 ff fa 	sh (r2+-6),r9
  86a9fc:	0c 48 ff f8 	sh (r2+-8),r8
  86aa00:	0c 47 ff f6 	sh (r2+-10),r7
  86aa04:	0c 46 ff f4 	sh (r2+-12),r6
  86aa08:	0c 45 ff f2 	sh (r2+-14),r5
  86aa0c:	b4 4e 10 00 	add r2,r2,r14
  86aa10:	5c 2d ff df 	bne r1,r13,86a98c <write_hook+0x4ec>
  86aa14:	36 94 ff ff 	addi r20,r20,-1
  86aa18:	5a 34 00 00 	sw (r17+0),r20
  86aa1c:	e3 ff ff 1a 	bi 86a684 <write_hook+0x1e4>

0086aa20 <scroll_callback>:
  86aa20:	37 9c ff e0 	addi sp,sp,-32
  86aa24:	5b 8b 00 20 	sw (sp+32),r11
  86aa28:	5b 8c 00 1c 	sw (sp+28),r12
  86aa2c:	5b 8d 00 18 	sw (sp+24),r13
  86aa30:	5b 8e 00 14 	sw (sp+20),r14
  86aa34:	5b 8f 00 10 	sw (sp+16),r15
  86aa38:	5b 90 00 0c 	sw (sp+12),r16
  86aa3c:	5b 91 00 08 	sw (sp+8),r17
  86aa40:	5b 9d 00 04 	sw (sp+4),ra
  86aa44:	90 00 88 00 	rcsr r17,IE
  86aa48:	90 20 80 00 	rcsr r16,IM
  86aa4c:	34 01 00 01 	mvi r1,1
  86aa50:	d0 21 00 00 	wcsr IM,r1
  86aa54:	d0 01 00 00 	wcsr IE,r1
  86aa58:	78 0c 40 66 	mvhi r12,0x4066
  86aa5c:	fb ff ee 41 	calli 866360 <flush_cpu_dcache>
  86aa60:	39 8c 16 8c 	ori r12,r12,0x168c
  86aa64:	78 0b 40 66 	mvhi r11,0x4066
  86aa68:	39 6b 16 78 	ori r11,r11,0x1678
  86aa6c:	29 81 00 00 	lw r1,(r12+0)
  86aa70:	29 63 00 00 	lw r3,(r11+0)
  86aa74:	78 0e 40 4a 	mvhi r14,0x404a
  86aa78:	34 21 ff f0 	addi r1,r1,-16
  86aa7c:	88 23 08 00 	mul r1,r1,r3
  86aa80:	39 ce 15 a0 	ori r14,r14,0x15a0
  86aa84:	3c 63 00 05 	sli r3,r3,5
  86aa88:	3c 21 00 01 	sli r1,r1,1
  86aa8c:	34 02 00 00 	mvi r2,0
  86aa90:	b4 2e 08 00 	add r1,r1,r14
  86aa94:	fb ff e7 69 	calli 864838 <memset>
  86aa98:	29 81 00 00 	lw r1,(r12+0)
  86aa9c:	29 6f 00 00 	lw r15,(r11+0)
  86aaa0:	78 04 40 62 	mvhi r4,0x4062
  86aaa4:	34 21 ff f0 	addi r1,r1,-16
  86aaa8:	88 2f 08 00 	mul r1,r1,r15
  86aaac:	78 0d 40 62 	mvhi r13,0x4062
  86aab0:	78 03 00 87 	mvhi r3,0x87
  86aab4:	34 21 00 07 	addi r1,r1,7
  86aab8:	3c 21 00 01 	sli r1,r1,1
  86aabc:	38 84 15 a0 	ori r4,r4,0x15a0
  86aac0:	39 ad 15 ac 	ori r13,r13,0x15ac
  86aac4:	78 02 00 87 	mvhi r2,0x87
  86aac8:	38 63 05 34 	ori r3,r3,0x534
  86aacc:	3d ef 00 01 	sli r15,r15,1
  86aad0:	b4 2e 08 00 	add r1,r1,r14
  86aad4:	58 80 00 00 	sw (r4+0),r0
  86aad8:	59 a0 00 00 	sw (r13+0),r0
  86aadc:	38 42 12 e4 	ori r2,r2,0x12e4
  86aae0:	34 6e 0d c0 	addi r14,r3,3520
  86aae4:	40 43 00 00 	lbu r3,(r2+0)
  86aae8:	34 42 00 01 	addi r2,r2,1
  86aaec:	00 64 00 01 	srui r4,r3,1
  86aaf0:	20 6c 00 01 	andi r12,r3,0x1
  86aaf4:	00 83 00 01 	srui r3,r4,1
  86aaf8:	20 8b 00 01 	andi r11,r4,0x1
  86aafc:	00 64 00 01 	srui r4,r3,1
  86ab00:	20 6a 00 01 	andi r10,r3,0x1
  86ab04:	00 83 00 01 	srui r3,r4,1
  86ab08:	20 89 00 01 	andi r9,r4,0x1
  86ab0c:	00 64 00 01 	srui r4,r3,1
  86ab10:	20 68 00 01 	andi r8,r3,0x1
  86ab14:	00 83 00 01 	srui r3,r4,1
  86ab18:	20 87 00 01 	andi r7,r4,0x1
  86ab1c:	00 65 00 01 	srui r5,r3,1
  86ab20:	20 66 00 01 	andi r6,r3,0x1
  86ab24:	09 8c c6 18 	muli r12,r12,-14824
  86ab28:	09 6b c6 18 	muli r11,r11,-14824
  86ab2c:	09 4a c6 18 	muli r10,r10,-14824
  86ab30:	09 29 c6 18 	muli r9,r9,-14824
  86ab34:	09 08 c6 18 	muli r8,r8,-14824
  86ab38:	08 e7 c6 18 	muli r7,r7,-14824
  86ab3c:	08 c6 c6 18 	muli r6,r6,-14824
  86ab40:	08 a5 c6 18 	muli r5,r5,-14824
  86ab44:	0c 2c 00 00 	sh (r1+0),r12
  86ab48:	0c 2b ff fe 	sh (r1+-2),r11
  86ab4c:	0c 2a ff fc 	sh (r1+-4),r10
  86ab50:	0c 29 ff fa 	sh (r1+-6),r9
  86ab54:	0c 28 ff f8 	sh (r1+-8),r8
  86ab58:	0c 27 ff f6 	sh (r1+-10),r7
  86ab5c:	0c 26 ff f4 	sh (r1+-12),r6
  86ab60:	0c 25 ff f2 	sh (r1+-14),r5
  86ab64:	b4 2f 08 00 	add r1,r1,r15
  86ab68:	5c 4e ff df 	bne r2,r14,86aae4 <scroll_callback+0xc4>
  86ab6c:	78 0b 40 66 	mvhi r11,0x4066
  86ab70:	78 02 00 86 	mvhi r2,0x86
  86ab74:	39 6b 16 14 	ori r11,r11,0x1614
  86ab78:	38 42 ee c8 	ori r2,r2,0xeec8
  86ab7c:	29 61 00 00 	lw r1,(r11+0)
  86ab80:	28 4f 00 00 	lw r15,(r2+0)
  86ab84:	78 0c 40 62 	mvhi r12,0x4062
  86ab88:	78 0e 40 62 	mvhi r14,0x4062
  86ab8c:	39 8c 15 b0 	ori r12,r12,0x15b0
  86ab90:	39 ce 15 b4 	ori r14,r14,0x15b4
  86ab94:	29 83 00 00 	lw r3,(r12+0)
  86ab98:	b5 c1 10 00 	add r2,r14,r1
  86ab9c:	44 61 00 09 	be r3,r1,86abc0 <scroll_callback+0x1a0>
  86aba0:	10 41 00 00 	lb r1,(r2+0)
  86aba4:	fb ff fe 3f 	calli 86a4a0 <write_hook>
  86aba8:	29 61 00 00 	lw r1,(r11+0)
  86abac:	29 a2 00 00 	lw r2,(r13+0)
  86abb0:	34 21 00 01 	addi r1,r1,1
  86abb4:	a0 2f 08 00 	and r1,r1,r15
  86abb8:	59 61 00 00 	sw (r11+0),r1
  86abbc:	44 40 ff f6 	be r2,r0,86ab94 <scroll_callback+0x174>
  86abc0:	d0 11 00 00 	wcsr IE,r17
  86abc4:	d0 30 00 00 	wcsr IM,r16
  86abc8:	2b 9d 00 04 	lw ra,(sp+4)
  86abcc:	2b 8b 00 20 	lw r11,(sp+32)
  86abd0:	2b 8c 00 1c 	lw r12,(sp+28)
  86abd4:	2b 8d 00 18 	lw r13,(sp+24)
  86abd8:	2b 8e 00 14 	lw r14,(sp+20)
  86abdc:	2b 8f 00 10 	lw r15,(sp+16)
  86abe0:	2b 90 00 0c 	lw r16,(sp+12)
  86abe4:	2b 91 00 08 	lw r17,(sp+8)
  86abe8:	37 9c 00 20 	addi sp,sp,32
  86abec:	c3 a0 00 00 	ret

0086abf0 <vga_init>:
  86abf0:	37 9c ff e0 	addi sp,sp,-32
  86abf4:	5b 8b 00 20 	sw (sp+32),r11
  86abf8:	5b 8c 00 1c 	sw (sp+28),r12
  86abfc:	5b 8d 00 18 	sw (sp+24),r13
  86ac00:	5b 8e 00 14 	sw (sp+20),r14
  86ac04:	5b 8f 00 10 	sw (sp+16),r15
  86ac08:	5b 90 00 0c 	sw (sp+12),r16
  86ac0c:	5b 91 00 08 	sw (sp+8),r17
  86ac10:	5b 9d 00 04 	sw (sp+4),ra
  86ac14:	78 06 00 87 	mvhi r6,0x87
  86ac18:	38 c6 04 0c 	ori r6,r6,0x40c
  86ac1c:	28 c5 00 00 	lw r5,(r6+0)
  86ac20:	78 10 40 66 	mvhi r16,0x4066
  86ac24:	78 04 40 66 	mvhi r4,0x4066
  86ac28:	78 0d 40 02 	mvhi r13,0x4002
  86ac2c:	78 03 40 66 	mvhi r3,0x4066
  86ac30:	78 0e 40 1a 	mvhi r14,0x401a
  86ac34:	78 02 40 66 	mvhi r2,0x4066
  86ac38:	78 0f 40 32 	mvhi r15,0x4032
  86ac3c:	39 ad 15 a0 	ori r13,r13,0x15a0
  86ac40:	38 84 16 80 	ori r4,r4,0x1680
  86ac44:	38 63 16 88 	ori r3,r3,0x1688
  86ac48:	39 ce 15 a0 	ori r14,r14,0x15a0
  86ac4c:	38 42 16 90 	ori r2,r2,0x1690
  86ac50:	39 ef 15 a0 	ori r15,r15,0x15a0
  86ac54:	3a 10 16 7c 	ori r16,r16,0x167c
  86ac58:	5a 01 00 00 	sw (r16+0),r1
  86ac5c:	58 8d 00 00 	sw (r4+0),r13
  86ac60:	58 6e 00 00 	sw (r3+0),r14
  86ac64:	58 4f 00 00 	sw (r2+0),r15
  86ac68:	78 01 00 87 	mvhi r1,0x87
  86ac6c:	58 ad 00 00 	sw (r5+0),r13
  86ac70:	38 21 04 44 	ori r1,r1,0x444
  86ac74:	b9 a0 10 00 	mv r2,r13
  86ac78:	b9 c0 18 00 	mv r3,r14
  86ac7c:	b9 e0 20 00 	mv r4,r15
  86ac80:	fb ff ea 2f 	calli 86553c <printf>
  86ac84:	78 01 00 87 	mvhi r1,0x87
  86ac88:	38 21 04 10 	ori r1,r1,0x410
  86ac8c:	28 27 00 00 	lw r7,(r1+0)
  86ac90:	78 01 40 66 	mvhi r1,0x4066
  86ac94:	38 21 16 84 	ori r1,r1,0x1684
  86ac98:	58 20 00 00 	sw (r1+0),r0
  86ac9c:	34 01 00 08 	mvi r1,8
  86aca0:	58 e1 00 00 	sw (r7+0),r1
  86aca4:	34 05 03 e8 	mvi r5,1000
  86aca8:	e0 00 00 02 	bi 86acb0 <vga_init+0xc0>
  86acac:	44 a6 00 84 	be r5,r6,86aebc <vga_init+0x2cc>
  86acb0:	28 e6 00 00 	lw r6,(r7+0)
  86acb4:	34 a5 ff ff 	addi r5,r5,-1
  86acb8:	20 c6 00 01 	andi r6,r6,0x1
  86acbc:	44 c0 ff fc 	be r6,r0,86acac <vga_init+0xbc>
  86acc0:	78 01 00 87 	mvhi r1,0x87
  86acc4:	38 21 04 b4 	ori r1,r1,0x4b4
  86acc8:	fb ff ea 1d 	calli 86553c <printf>
  86accc:	78 02 00 87 	mvhi r2,0x87
  86acd0:	38 42 04 14 	ori r2,r2,0x414
  86acd4:	28 51 00 00 	lw r17,(r2+0)
  86acd8:	78 04 00 87 	mvhi r4,0x87
  86acdc:	38 84 04 18 	ori r4,r4,0x418
  86ace0:	28 83 00 00 	lw r3,(r4+0)
  86ace4:	34 01 00 01 	mvi r1,1
  86ace8:	78 0c 40 66 	mvhi r12,0x4066
  86acec:	78 0b 40 66 	mvhi r11,0x4066
  86acf0:	5a 21 00 00 	sw (r17+0),r1
  86acf4:	39 8c 16 78 	ori r12,r12,0x1678
  86acf8:	39 6b 16 8c 	ori r11,r11,0x168c
  86acfc:	34 01 01 e0 	mvi r1,480
  86ad00:	34 02 02 80 	mvi r2,640
  86ad04:	78 05 00 87 	mvhi r5,0x87
  86ad08:	59 82 00 00 	sw (r12+0),r2
  86ad0c:	59 61 00 00 	sw (r11+0),r1
  86ad10:	38 a5 04 1c 	ori r5,r5,0x41c
  86ad14:	58 62 00 00 	sw (r3+0),r2
  86ad18:	28 a3 00 00 	lw r3,(r5+0)
  86ad1c:	78 06 00 87 	mvhi r6,0x87
  86ad20:	34 04 02 90 	mvi r4,656
  86ad24:	38 c6 04 20 	ori r6,r6,0x420
  86ad28:	58 64 00 00 	sw (r3+0),r4
  86ad2c:	28 c3 00 00 	lw r3,(r6+0)
  86ad30:	78 05 00 87 	mvhi r5,0x87
  86ad34:	34 04 02 f0 	mvi r4,752
  86ad38:	38 a5 04 24 	ori r5,r5,0x424
  86ad3c:	58 64 00 00 	sw (r3+0),r4
  86ad40:	28 a3 00 00 	lw r3,(r5+0)
  86ad44:	78 06 00 87 	mvhi r6,0x87
  86ad48:	34 04 03 1f 	mvi r4,799
  86ad4c:	38 c6 04 28 	ori r6,r6,0x428
  86ad50:	58 64 00 00 	sw (r3+0),r4
  86ad54:	28 c3 00 00 	lw r3,(r6+0)
  86ad58:	78 04 00 87 	mvhi r4,0x87
  86ad5c:	38 84 04 2c 	ori r4,r4,0x42c
  86ad60:	58 61 00 00 	sw (r3+0),r1
  86ad64:	88 41 10 00 	mul r2,r2,r1
  86ad68:	28 81 00 00 	lw r1,(r4+0)
  86ad6c:	78 05 00 87 	mvhi r5,0x87
  86ad70:	34 03 01 eb 	mvi r3,491
  86ad74:	38 a5 04 30 	ori r5,r5,0x430
  86ad78:	58 23 00 00 	sw (r1+0),r3
  86ad7c:	28 a1 00 00 	lw r1,(r5+0)
  86ad80:	78 06 00 87 	mvhi r6,0x87
  86ad84:	38 c6 04 34 	ori r6,r6,0x434
  86ad88:	34 03 01 ed 	mvi r3,493
  86ad8c:	78 05 00 87 	mvhi r5,0x87
  86ad90:	38 a5 04 38 	ori r5,r5,0x438
  86ad94:	58 23 00 00 	sw (r1+0),r3
  86ad98:	28 c1 00 00 	lw r1,(r6+0)
  86ad9c:	28 a4 00 00 	lw r4,(r5+0)
  86ada0:	3c 43 00 01 	sli r3,r2,1
  86ada4:	34 02 02 0b 	mvi r2,523
  86ada8:	58 22 00 00 	sw (r1+0),r2
  86adac:	58 80 00 00 	sw (r4+0),r0
  86adb0:	34 02 00 00 	mvi r2,0
  86adb4:	b9 a0 08 00 	mv r1,r13
  86adb8:	fb ff e6 a0 	calli 864838 <memset>
  86adbc:	29 84 00 00 	lw r4,(r12+0)
  86adc0:	29 63 00 00 	lw r3,(r11+0)
  86adc4:	34 02 00 00 	mvi r2,0
  86adc8:	b9 c0 08 00 	mv r1,r14
  86adcc:	88 83 18 00 	mul r3,r4,r3
  86add0:	3c 63 00 01 	sli r3,r3,1
  86add4:	fb ff e6 99 	calli 864838 <memset>
  86add8:	29 84 00 00 	lw r4,(r12+0)
  86addc:	29 63 00 00 	lw r3,(r11+0)
  86ade0:	34 02 00 00 	mvi r2,0
  86ade4:	b9 e0 08 00 	mv r1,r15
  86ade8:	88 83 18 00 	mul r3,r4,r3
  86adec:	3c 63 00 01 	sli r3,r3,1
  86adf0:	fb ff e6 92 	calli 864838 <memset>
  86adf4:	29 61 00 00 	lw r1,(r11+0)
  86adf8:	29 83 00 00 	lw r3,(r12+0)
  86adfc:	34 02 00 00 	mvi r2,0
  86ae00:	88 61 18 00 	mul r3,r3,r1
  86ae04:	78 01 40 4a 	mvhi r1,0x404a
  86ae08:	38 21 15 a0 	ori r1,r1,0x15a0
  86ae0c:	3c 63 00 01 	sli r3,r3,1
  86ae10:	fb ff e6 8a 	calli 864838 <memset>
  86ae14:	29 83 00 00 	lw r3,(r12+0)
  86ae18:	29 64 00 00 	lw r4,(r11+0)
  86ae1c:	78 01 40 62 	mvhi r1,0x4062
  86ae20:	14 66 00 1f 	sri r6,r3,31
  86ae24:	88 64 20 00 	mul r4,r3,r4
  86ae28:	00 c6 00 1d 	srui r6,r6,29
  86ae2c:	38 21 15 a4 	ori r1,r1,0x15a4
  86ae30:	14 85 00 1f 	sri r5,r4,31
  86ae34:	b4 c3 18 00 	add r3,r6,r3
  86ae38:	00 a5 00 1c 	srui r5,r5,28
  86ae3c:	14 63 00 03 	sri r3,r3,3
  86ae40:	78 06 00 87 	mvhi r6,0x87
  86ae44:	38 c6 04 3c 	ori r6,r6,0x43c
  86ae48:	58 23 00 00 	sw (r1+0),r3
  86ae4c:	b4 a4 20 00 	add r4,r5,r4
  86ae50:	28 c1 00 00 	lw r1,(r6+0)
  86ae54:	78 02 40 62 	mvhi r2,0x4062
  86ae58:	38 42 15 a0 	ori r2,r2,0x15a0
  86ae5c:	14 84 00 04 	sri r4,r4,4
  86ae60:	58 40 00 00 	sw (r2+0),r0
  86ae64:	58 24 00 00 	sw (r1+0),r4
  86ae68:	29 82 00 00 	lw r2,(r12+0)
  86ae6c:	29 63 00 00 	lw r3,(r11+0)
  86ae70:	78 01 00 87 	mvhi r1,0x87
  86ae74:	38 21 04 9c 	ori r1,r1,0x49c
  86ae78:	fb ff e9 b1 	calli 86553c <printf>
  86ae7c:	2a 01 00 00 	lw r1,(r16+0)
  86ae80:	5c 20 00 02 	bne r1,r0,86ae88 <vga_init+0x298>
  86ae84:	5a 20 00 00 	sw (r17+0),r0
  86ae88:	78 01 00 86 	mvhi r1,0x86
  86ae8c:	38 21 a4 a0 	ori r1,r1,0xa4a0
  86ae90:	fb ff e9 35 	calli 865364 <console_set_write_hook>
  86ae94:	2b 9d 00 04 	lw ra,(sp+4)
  86ae98:	2b 8b 00 20 	lw r11,(sp+32)
  86ae9c:	2b 8c 00 1c 	lw r12,(sp+28)
  86aea0:	2b 8d 00 18 	lw r13,(sp+24)
  86aea4:	2b 8e 00 14 	lw r14,(sp+20)
  86aea8:	2b 8f 00 10 	lw r15,(sp+16)
  86aeac:	2b 90 00 0c 	lw r16,(sp+12)
  86aeb0:	2b 91 00 08 	lw r17,(sp+8)
  86aeb4:	37 9c 00 20 	addi sp,sp,32
  86aeb8:	c3 a0 00 00 	ret
  86aebc:	78 01 00 87 	mvhi r1,0x87
  86aec0:	38 21 04 70 	ori r1,r1,0x470
  86aec4:	fb ff e9 9e 	calli 86553c <printf>
  86aec8:	e3 ff ff 81 	bi 86accc <vga_init+0xdc>

0086aecc <vga_blank>:
  86aecc:	78 01 40 66 	mvhi r1,0x4066
  86aed0:	38 21 16 7c 	ori r1,r1,0x167c
  86aed4:	28 22 00 00 	lw r2,(r1+0)
  86aed8:	5c 40 00 07 	bne r2,r0,86aef4 <vga_blank+0x28>
  86aedc:	78 04 00 87 	mvhi r4,0x87
  86aee0:	38 84 04 14 	ori r4,r4,0x414
  86aee4:	28 83 00 00 	lw r3,(r4+0)
  86aee8:	34 02 00 01 	mvi r2,1
  86aeec:	58 62 00 00 	sw (r3+0),r2
  86aef0:	58 22 00 00 	sw (r1+0),r2
  86aef4:	c3 a0 00 00 	ret

0086aef8 <vga_unblank>:
  86aef8:	78 01 40 66 	mvhi r1,0x4066
  86aefc:	38 21 16 7c 	ori r1,r1,0x167c
  86af00:	28 22 00 00 	lw r2,(r1+0)
  86af04:	44 40 00 06 	be r2,r0,86af1c <vga_unblank+0x24>
  86af08:	78 03 00 87 	mvhi r3,0x87
  86af0c:	38 63 04 14 	ori r3,r3,0x414
  86af10:	28 62 00 00 	lw r2,(r3+0)
  86af14:	58 40 00 00 	sw (r2+0),r0
  86af18:	58 20 00 00 	sw (r1+0),r0
  86af1c:	c3 a0 00 00 	ret

0086af20 <vga_swap_buffers>:
  86af20:	78 01 40 62 	mvhi r1,0x4062
  86af24:	38 21 15 a8 	ori r1,r1,0x15a8
  86af28:	28 22 00 00 	lw r2,(r1+0)
  86af2c:	5c 40 00 1f 	bne r2,r0,86afa8 <vga_swap_buffers+0x88>
  86af30:	78 01 40 66 	mvhi r1,0x4066
  86af34:	38 21 16 7c 	ori r1,r1,0x167c
  86af38:	28 21 00 00 	lw r1,(r1+0)
  86af3c:	5c 22 00 0a 	bne r1,r2,86af64 <vga_swap_buffers+0x44>
  86af40:	78 01 00 87 	mvhi r1,0x87
  86af44:	78 02 00 87 	mvhi r2,0x87
  86af48:	38 21 04 40 	ori r1,r1,0x440
  86af4c:	38 42 04 0c 	ori r2,r2,0x40c
  86af50:	28 24 00 00 	lw r4,(r1+0)
  86af54:	28 43 00 00 	lw r3,(r2+0)
  86af58:	28 82 00 00 	lw r2,(r4+0)
  86af5c:	28 61 00 00 	lw r1,(r3+0)
  86af60:	5c 41 ff fe 	bne r2,r1,86af58 <vga_swap_buffers+0x38>
  86af64:	78 01 40 66 	mvhi r1,0x4066
  86af68:	38 21 16 90 	ori r1,r1,0x1690
  86af6c:	28 26 00 00 	lw r6,(r1+0)
  86af70:	78 03 40 66 	mvhi r3,0x4066
  86af74:	38 63 16 80 	ori r3,r3,0x1680
  86af78:	78 02 40 66 	mvhi r2,0x4066
  86af7c:	38 42 16 88 	ori r2,r2,0x1688
  86af80:	28 65 00 00 	lw r5,(r3+0)
  86af84:	28 44 00 00 	lw r4,(r2+0)
  86af88:	58 46 00 00 	sw (r2+0),r6
  86af8c:	78 02 00 87 	mvhi r2,0x87
  86af90:	38 42 04 0c 	ori r2,r2,0x40c
  86af94:	58 25 00 00 	sw (r1+0),r5
  86af98:	28 41 00 00 	lw r1,(r2+0)
  86af9c:	58 64 00 00 	sw (r3+0),r4
  86afa0:	58 24 00 00 	sw (r1+0),r4
  86afa4:	c3 a0 00 00 	ret
  86afa8:	78 02 40 66 	mvhi r2,0x4066
  86afac:	78 01 40 66 	mvhi r1,0x4066
  86afb0:	38 42 16 80 	ori r2,r2,0x1680
  86afb4:	38 21 16 88 	ori r1,r1,0x1688
  86afb8:	78 03 40 66 	mvhi r3,0x4066
  86afbc:	28 46 00 00 	lw r6,(r2+0)
  86afc0:	38 63 16 90 	ori r3,r3,0x1690
  86afc4:	28 25 00 00 	lw r5,(r1+0)
  86afc8:	28 64 00 00 	lw r4,(r3+0)
  86afcc:	58 66 00 00 	sw (r3+0),r6
  86afd0:	58 45 00 00 	sw (r2+0),r5
  86afd4:	58 24 00 00 	sw (r1+0),r4
  86afd8:	c3 a0 00 00 	ret

0086afdc <vga_set_console>:
  86afdc:	78 02 40 62 	mvhi r2,0x4062
  86afe0:	38 42 15 a8 	ori r2,r2,0x15a8
  86afe4:	58 41 00 00 	sw (r2+0),r1
  86afe8:	5c 20 00 09 	bne r1,r0,86b00c <vga_set_console+0x30>
  86afec:	78 01 40 66 	mvhi r1,0x4066
  86aff0:	78 03 00 87 	mvhi r3,0x87
  86aff4:	38 21 16 80 	ori r1,r1,0x1680
  86aff8:	38 63 04 0c 	ori r3,r3,0x40c
  86affc:	28 22 00 00 	lw r2,(r1+0)
  86b000:	28 61 00 00 	lw r1,(r3+0)
  86b004:	58 22 00 00 	sw (r1+0),r2
  86b008:	c3 a0 00 00 	ret
  86b00c:	78 03 00 87 	mvhi r3,0x87
  86b010:	38 63 04 0c 	ori r3,r3,0x40c
  86b014:	28 62 00 00 	lw r2,(r3+0)
  86b018:	78 01 40 4a 	mvhi r1,0x404a
  86b01c:	38 21 15 a0 	ori r1,r1,0x15a0
  86b020:	58 41 00 00 	sw (r2+0),r1
  86b024:	c3 a0 00 00 	ret

0086b028 <vga_get_console>:
  86b028:	78 01 40 62 	mvhi r1,0x4062
  86b02c:	38 21 15 a8 	ori r1,r1,0x15a8
  86b030:	28 21 00 00 	lw r1,(r1+0)
  86b034:	c3 a0 00 00 	ret

0086b038 <vga_read_edid>:
  86b038:	37 9c ff f4 	addi sp,sp,-12
  86b03c:	5b 8b 00 0c 	sw (sp+12),r11
  86b040:	5b 8c 00 08 	sw (sp+8),r12
  86b044:	5b 9d 00 04 	sw (sp+4),ra
  86b048:	78 06 40 66 	mvhi r6,0x4066
  86b04c:	38 c6 16 84 	ori r6,r6,0x1684
  86b050:	28 c2 00 00 	lw r2,(r6+0)
  86b054:	44 40 00 14 	be r2,r0,86b0a4 <vga_read_edid+0x6c>
  86b058:	78 05 00 87 	mvhi r5,0x87
  86b05c:	38 a5 04 10 	ori r5,r5,0x410
  86b060:	28 a3 00 00 	lw r3,(r5+0)
  86b064:	34 04 00 06 	mvi r4,6
  86b068:	34 02 03 e8 	mvi r2,1000
  86b06c:	58 64 00 00 	sw (r3+0),r4
  86b070:	34 00 00 00 	nop
  86b074:	34 42 ff ff 	addi r2,r2,-1
  86b078:	5c 40 ff fe 	bne r2,r0,86b070 <vga_read_edid+0x38>
  86b07c:	78 02 00 87 	mvhi r2,0x87
  86b080:	38 42 04 10 	ori r2,r2,0x410
  86b084:	28 43 00 00 	lw r3,(r2+0)
  86b088:	34 02 03 e8 	mvi r2,1000
  86b08c:	28 64 00 00 	lw r4,(r3+0)
  86b090:	38 84 00 08 	ori r4,r4,0x8
  86b094:	58 64 00 00 	sw (r3+0),r4
  86b098:	34 00 00 00 	nop
  86b09c:	34 42 ff ff 	addi r2,r2,-1
  86b0a0:	5c 40 ff fe 	bne r2,r0,86b098 <vga_read_edid+0x60>
  86b0a4:	78 05 00 87 	mvhi r5,0x87
  86b0a8:	38 a5 04 10 	ori r5,r5,0x410
  86b0ac:	28 a3 00 00 	lw r3,(r5+0)
  86b0b0:	34 04 00 0c 	mvi r4,12
  86b0b4:	34 02 03 e8 	mvi r2,1000
  86b0b8:	58 64 00 00 	sw (r3+0),r4
  86b0bc:	34 00 00 00 	nop
  86b0c0:	34 42 ff ff 	addi r2,r2,-1
  86b0c4:	5c 40 ff fe 	bne r2,r0,86b0bc <vga_read_edid+0x84>
  86b0c8:	78 02 00 87 	mvhi r2,0x87
  86b0cc:	38 42 04 10 	ori r2,r2,0x410
  86b0d0:	28 43 00 00 	lw r3,(r2+0)
  86b0d4:	34 02 00 04 	mvi r2,4
  86b0d8:	34 05 00 08 	mvi r5,8
  86b0dc:	58 62 00 00 	sw (r3+0),r2
  86b0e0:	34 02 00 01 	mvi r2,1
  86b0e4:	58 c2 00 00 	sw (r6+0),r2
  86b0e8:	34 04 00 a0 	mvi r4,160
  86b0ec:	34 09 00 04 	mvi r9,4
  86b0f0:	34 08 00 06 	mvi r8,6
  86b0f4:	34 07 ff f7 	mvi r7,-9
  86b0f8:	20 82 00 80 	andi r2,r4,0x80
  86b0fc:	44 40 00 15 	be r2,r0,86b150 <vga_read_edid+0x118>
  86b100:	58 68 00 00 	sw (r3+0),r8
  86b104:	34 02 03 e8 	mvi r2,1000
  86b108:	34 00 00 00 	nop
  86b10c:	34 42 ff ff 	addi r2,r2,-1
  86b110:	5c 40 ff fe 	bne r2,r0,86b108 <vga_read_edid+0xd0>
  86b114:	28 6a 00 00 	lw r10,(r3+0)
  86b118:	34 02 03 e8 	mvi r2,1000
  86b11c:	39 4a 00 08 	ori r10,r10,0x8
  86b120:	58 6a 00 00 	sw (r3+0),r10
  86b124:	34 00 00 00 	nop
  86b128:	34 42 ff ff 	addi r2,r2,-1
  86b12c:	5c 40 ff fe 	bne r2,r0,86b124 <vga_read_edid+0xec>
  86b130:	28 6a 00 00 	lw r10,(r3+0)
  86b134:	34 a5 ff ff 	addi r5,r5,-1
  86b138:	a1 47 50 00 	and r10,r10,r7
  86b13c:	58 6a 00 00 	sw (r3+0),r10
  86b140:	44 a2 00 06 	be r5,r2,86b158 <vga_read_edid+0x120>
  86b144:	3c 84 00 01 	sli r4,r4,1
  86b148:	20 84 00 ff 	andi r4,r4,0xff
  86b14c:	e3 ff ff eb 	bi 86b0f8 <vga_read_edid+0xc0>
  86b150:	58 69 00 00 	sw (r3+0),r9
  86b154:	e3 ff ff ec 	bi 86b104 <vga_read_edid+0xcc>
  86b158:	78 03 00 87 	mvhi r3,0x87
  86b15c:	38 63 04 10 	ori r3,r3,0x410
  86b160:	28 62 00 00 	lw r2,(r3+0)
  86b164:	58 40 00 00 	sw (r2+0),r0
  86b168:	34 02 03 e8 	mvi r2,1000
  86b16c:	34 00 00 00 	nop
  86b170:	34 42 ff ff 	addi r2,r2,-1
  86b174:	5c 40 ff fe 	bne r2,r0,86b16c <vga_read_edid+0x134>
  86b178:	78 05 00 87 	mvhi r5,0x87
  86b17c:	38 a5 04 10 	ori r5,r5,0x410
  86b180:	28 a3 00 00 	lw r3,(r5+0)
  86b184:	34 04 00 08 	mvi r4,8
  86b188:	34 02 03 e8 	mvi r2,1000
  86b18c:	58 64 00 00 	sw (r3+0),r4
  86b190:	34 00 00 00 	nop
  86b194:	34 42 ff ff 	addi r2,r2,-1
  86b198:	5c 40 ff fe 	bne r2,r0,86b190 <vga_read_edid+0x158>
  86b19c:	78 04 00 87 	mvhi r4,0x87
  86b1a0:	38 84 04 10 	ori r4,r4,0x410
  86b1a4:	28 83 00 00 	lw r3,(r4+0)
  86b1a8:	34 02 03 e8 	mvi r2,1000
  86b1ac:	28 65 00 00 	lw r5,(r3+0)
  86b1b0:	20 a5 00 01 	andi r5,r5,0x1
  86b1b4:	34 00 00 00 	nop
  86b1b8:	34 42 ff ff 	addi r2,r2,-1
  86b1bc:	5c 40 ff fe 	bne r2,r0,86b1b4 <vga_read_edid+0x17c>
  86b1c0:	78 04 00 87 	mvhi r4,0x87
  86b1c4:	38 84 04 10 	ori r4,r4,0x410
  86b1c8:	28 83 00 00 	lw r3,(r4+0)
  86b1cc:	34 08 00 04 	mvi r8,4
  86b1d0:	34 04 00 08 	mvi r4,8
  86b1d4:	58 60 00 00 	sw (r3+0),r0
  86b1d8:	34 07 ff f7 	mvi r7,-9
  86b1dc:	5c a2 00 6e 	bne r5,r2,86b394 <vga_read_edid+0x35c>
  86b1e0:	58 68 00 00 	sw (r3+0),r8
  86b1e4:	34 02 03 e8 	mvi r2,1000
  86b1e8:	34 00 00 00 	nop
  86b1ec:	34 42 ff ff 	addi r2,r2,-1
  86b1f0:	5c 40 ff fe 	bne r2,r0,86b1e8 <vga_read_edid+0x1b0>
  86b1f4:	28 65 00 00 	lw r5,(r3+0)
  86b1f8:	34 02 03 e8 	mvi r2,1000
  86b1fc:	38 a5 00 08 	ori r5,r5,0x8
  86b200:	58 65 00 00 	sw (r3+0),r5
  86b204:	34 00 00 00 	nop
  86b208:	34 42 ff ff 	addi r2,r2,-1
  86b20c:	5c 40 ff fe 	bne r2,r0,86b204 <vga_read_edid+0x1cc>
  86b210:	28 65 00 00 	lw r5,(r3+0)
  86b214:	34 84 ff ff 	addi r4,r4,-1
  86b218:	a0 a7 28 00 	and r5,r5,r7
  86b21c:	58 65 00 00 	sw (r3+0),r5
  86b220:	5c 82 ff f0 	bne r4,r2,86b1e0 <vga_read_edid+0x1a8>
  86b224:	78 05 00 87 	mvhi r5,0x87
  86b228:	38 a5 04 10 	ori r5,r5,0x410
  86b22c:	28 a2 00 00 	lw r2,(r5+0)
  86b230:	58 40 00 00 	sw (r2+0),r0
  86b234:	34 02 03 e8 	mvi r2,1000
  86b238:	34 00 00 00 	nop
  86b23c:	34 42 ff ff 	addi r2,r2,-1
  86b240:	5c 40 ff fe 	bne r2,r0,86b238 <vga_read_edid+0x200>
  86b244:	78 05 00 87 	mvhi r5,0x87
  86b248:	38 a5 04 10 	ori r5,r5,0x410
  86b24c:	28 a3 00 00 	lw r3,(r5+0)
  86b250:	34 04 00 08 	mvi r4,8
  86b254:	34 02 03 e8 	mvi r2,1000
  86b258:	58 64 00 00 	sw (r3+0),r4
  86b25c:	34 00 00 00 	nop
  86b260:	34 42 ff ff 	addi r2,r2,-1
  86b264:	5c 40 ff fe 	bne r2,r0,86b25c <vga_read_edid+0x224>
  86b268:	78 04 00 87 	mvhi r4,0x87
  86b26c:	38 84 04 10 	ori r4,r4,0x410
  86b270:	28 83 00 00 	lw r3,(r4+0)
  86b274:	34 02 03 e8 	mvi r2,1000
  86b278:	28 64 00 00 	lw r4,(r3+0)
  86b27c:	20 84 00 01 	andi r4,r4,0x1
  86b280:	34 00 00 00 	nop
  86b284:	34 42 ff ff 	addi r2,r2,-1
  86b288:	5c 40 ff fe 	bne r2,r0,86b280 <vga_read_edid+0x248>
  86b28c:	78 05 00 87 	mvhi r5,0x87
  86b290:	38 a5 04 10 	ori r5,r5,0x410
  86b294:	28 a3 00 00 	lw r3,(r5+0)
  86b298:	58 60 00 00 	sw (r3+0),r0
  86b29c:	5c 82 00 47 	bne r4,r2,86b3b8 <vga_read_edid+0x380>
  86b2a0:	28 c2 00 00 	lw r2,(r6+0)
  86b2a4:	44 44 00 11 	be r2,r4,86b2e8 <vga_read_edid+0x2b0>
  86b2a8:	34 02 00 06 	mvi r2,6
  86b2ac:	58 62 00 00 	sw (r3+0),r2
  86b2b0:	34 02 03 e8 	mvi r2,1000
  86b2b4:	34 00 00 00 	nop
  86b2b8:	34 42 ff ff 	addi r2,r2,-1
  86b2bc:	5c 40 ff fe 	bne r2,r0,86b2b4 <vga_read_edid+0x27c>
  86b2c0:	78 02 00 87 	mvhi r2,0x87
  86b2c4:	38 42 04 10 	ori r2,r2,0x410
  86b2c8:	28 43 00 00 	lw r3,(r2+0)
  86b2cc:	34 02 03 e8 	mvi r2,1000
  86b2d0:	28 64 00 00 	lw r4,(r3+0)
  86b2d4:	38 84 00 08 	ori r4,r4,0x8
  86b2d8:	58 64 00 00 	sw (r3+0),r4
  86b2dc:	34 00 00 00 	nop
  86b2e0:	34 42 ff ff 	addi r2,r2,-1
  86b2e4:	5c 40 ff fe 	bne r2,r0,86b2dc <vga_read_edid+0x2a4>
  86b2e8:	78 05 00 87 	mvhi r5,0x87
  86b2ec:	38 a5 04 10 	ori r5,r5,0x410
  86b2f0:	28 a3 00 00 	lw r3,(r5+0)
  86b2f4:	34 04 00 0c 	mvi r4,12
  86b2f8:	34 02 03 e8 	mvi r2,1000
  86b2fc:	58 64 00 00 	sw (r3+0),r4
  86b300:	34 00 00 00 	nop
  86b304:	34 42 ff ff 	addi r2,r2,-1
  86b308:	5c 40 ff fe 	bne r2,r0,86b300 <vga_read_edid+0x2c8>
  86b30c:	78 02 00 87 	mvhi r2,0x87
  86b310:	38 42 04 10 	ori r2,r2,0x410
  86b314:	28 43 00 00 	lw r3,(r2+0)
  86b318:	34 02 00 04 	mvi r2,4
  86b31c:	34 05 00 08 	mvi r5,8
  86b320:	58 62 00 00 	sw (r3+0),r2
  86b324:	34 02 00 01 	mvi r2,1
  86b328:	58 c2 00 00 	sw (r6+0),r2
  86b32c:	34 04 00 a1 	mvi r4,161
  86b330:	34 09 00 04 	mvi r9,4
  86b334:	34 08 00 06 	mvi r8,6
  86b338:	34 07 ff f7 	mvi r7,-9
  86b33c:	20 82 00 80 	andi r2,r4,0x80
  86b340:	44 40 00 23 	be r2,r0,86b3cc <vga_read_edid+0x394>
  86b344:	58 68 00 00 	sw (r3+0),r8
  86b348:	34 02 03 e8 	mvi r2,1000
  86b34c:	34 00 00 00 	nop
  86b350:	34 42 ff ff 	addi r2,r2,-1
  86b354:	5c 40 ff fe 	bne r2,r0,86b34c <vga_read_edid+0x314>
  86b358:	28 6a 00 00 	lw r10,(r3+0)
  86b35c:	34 02 03 e8 	mvi r2,1000
  86b360:	39 4a 00 08 	ori r10,r10,0x8
  86b364:	58 6a 00 00 	sw (r3+0),r10
  86b368:	34 00 00 00 	nop
  86b36c:	34 42 ff ff 	addi r2,r2,-1
  86b370:	5c 40 ff fe 	bne r2,r0,86b368 <vga_read_edid+0x330>
  86b374:	28 6a 00 00 	lw r10,(r3+0)
  86b378:	34 a5 ff ff 	addi r5,r5,-1
  86b37c:	a1 47 50 00 	and r10,r10,r7
  86b380:	58 6a 00 00 	sw (r3+0),r10
  86b384:	44 a2 00 14 	be r5,r2,86b3d4 <vga_read_edid+0x39c>
  86b388:	3c 84 00 01 	sli r4,r4,1
  86b38c:	20 84 00 ff 	andi r4,r4,0xff
  86b390:	e3 ff ff eb 	bi 86b33c <vga_read_edid+0x304>
  86b394:	78 01 00 87 	mvhi r1,0x87
  86b398:	38 21 04 d4 	ori r1,r1,0x4d4
  86b39c:	fb ff e8 68 	calli 86553c <printf>
  86b3a0:	34 01 00 00 	mvi r1,0
  86b3a4:	2b 9d 00 04 	lw ra,(sp+4)
  86b3a8:	2b 8b 00 0c 	lw r11,(sp+12)
  86b3ac:	2b 8c 00 08 	lw r12,(sp+8)
  86b3b0:	37 9c 00 0c 	addi sp,sp,12
  86b3b4:	c3 a0 00 00 	ret
  86b3b8:	78 01 00 87 	mvhi r1,0x87
  86b3bc:	38 21 04 f4 	ori r1,r1,0x4f4
  86b3c0:	fb ff e8 5f 	calli 86553c <printf>
  86b3c4:	34 01 00 00 	mvi r1,0
  86b3c8:	e3 ff ff f7 	bi 86b3a4 <vga_read_edid+0x36c>
  86b3cc:	58 69 00 00 	sw (r3+0),r9
  86b3d0:	e3 ff ff de 	bi 86b348 <vga_read_edid+0x310>
  86b3d4:	78 03 00 87 	mvhi r3,0x87
  86b3d8:	38 63 04 10 	ori r3,r3,0x410
  86b3dc:	28 62 00 00 	lw r2,(r3+0)
  86b3e0:	58 40 00 00 	sw (r2+0),r0
  86b3e4:	34 02 03 e8 	mvi r2,1000
  86b3e8:	34 00 00 00 	nop
  86b3ec:	34 42 ff ff 	addi r2,r2,-1
  86b3f0:	5c 40 ff fe 	bne r2,r0,86b3e8 <vga_read_edid+0x3b0>
  86b3f4:	78 05 00 87 	mvhi r5,0x87
  86b3f8:	38 a5 04 10 	ori r5,r5,0x410
  86b3fc:	28 a3 00 00 	lw r3,(r5+0)
  86b400:	34 04 00 08 	mvi r4,8
  86b404:	34 02 03 e8 	mvi r2,1000
  86b408:	58 64 00 00 	sw (r3+0),r4
  86b40c:	34 00 00 00 	nop
  86b410:	34 42 ff ff 	addi r2,r2,-1
  86b414:	5c 40 ff fe 	bne r2,r0,86b40c <vga_read_edid+0x3d4>
  86b418:	78 04 00 87 	mvhi r4,0x87
  86b41c:	38 84 04 10 	ori r4,r4,0x410
  86b420:	28 83 00 00 	lw r3,(r4+0)
  86b424:	34 02 03 e8 	mvi r2,1000
  86b428:	28 64 00 00 	lw r4,(r3+0)
  86b42c:	20 84 00 01 	andi r4,r4,0x1
  86b430:	34 00 00 00 	nop
  86b434:	34 42 ff ff 	addi r2,r2,-1
  86b438:	5c 40 ff fe 	bne r2,r0,86b430 <vga_read_edid+0x3f8>
  86b43c:	78 05 00 87 	mvhi r5,0x87
  86b440:	38 a5 04 10 	ori r5,r5,0x410
  86b444:	28 a3 00 00 	lw r3,(r5+0)
  86b448:	34 09 00 00 	mvi r9,0
  86b44c:	58 60 00 00 	sw (r3+0),r0
  86b450:	5c 82 00 7e 	bne r4,r2,86b648 <vga_read_edid+0x610>
  86b454:	34 08 00 08 	mvi r8,8
  86b458:	34 0c 00 04 	mvi r12,4
  86b45c:	34 0b ff f7 	mvi r11,-9
  86b460:	34 0a 00 ff 	mvi r10,255
  86b464:	34 04 00 08 	mvi r4,8
  86b468:	34 05 00 00 	mvi r5,0
  86b46c:	3c a5 00 01 	sli r5,r5,1
  86b470:	58 60 00 00 	sw (r3+0),r0
  86b474:	20 a7 00 ff 	andi r7,r5,0xff
  86b478:	34 02 03 e8 	mvi r2,1000
  86b47c:	34 00 00 00 	nop
  86b480:	34 42 ff ff 	addi r2,r2,-1
  86b484:	5c 40 ff fe 	bne r2,r0,86b47c <vga_read_edid+0x444>
  86b488:	58 68 00 00 	sw (r3+0),r8
  86b48c:	34 02 03 e8 	mvi r2,1000
  86b490:	34 00 00 00 	nop
  86b494:	34 42 ff ff 	addi r2,r2,-1
  86b498:	5c 40 ff fe 	bne r2,r0,86b490 <vga_read_edid+0x458>
  86b49c:	28 65 00 00 	lw r5,(r3+0)
  86b4a0:	34 02 03 e8 	mvi r2,1000
  86b4a4:	20 a5 00 01 	andi r5,r5,0x1
  86b4a8:	34 00 00 00 	nop
  86b4ac:	34 42 ff ff 	addi r2,r2,-1
  86b4b0:	5c 40 ff fe 	bne r2,r0,86b4a8 <vga_read_edid+0x470>
  86b4b4:	58 60 00 00 	sw (r3+0),r0
  86b4b8:	34 84 ff ff 	addi r4,r4,-1
  86b4bc:	b8 e5 28 00 	or r5,r7,r5
  86b4c0:	5c 82 ff eb 	bne r4,r2,86b46c <vga_read_edid+0x434>
  86b4c4:	78 04 00 87 	mvhi r4,0x87
  86b4c8:	38 84 04 10 	ori r4,r4,0x410
  86b4cc:	28 82 00 00 	lw r2,(r4+0)
  86b4d0:	58 4c 00 00 	sw (r2+0),r12
  86b4d4:	34 02 03 e8 	mvi r2,1000
  86b4d8:	34 00 00 00 	nop
  86b4dc:	34 42 ff ff 	addi r2,r2,-1
  86b4e0:	5c 40 ff fe 	bne r2,r0,86b4d8 <vga_read_edid+0x4a0>
  86b4e4:	28 64 00 00 	lw r4,(r3+0)
  86b4e8:	34 02 03 e8 	mvi r2,1000
  86b4ec:	38 84 00 08 	ori r4,r4,0x8
  86b4f0:	58 64 00 00 	sw (r3+0),r4
  86b4f4:	34 00 00 00 	nop
  86b4f8:	34 42 ff ff 	addi r2,r2,-1
  86b4fc:	5c 40 ff fe 	bne r2,r0,86b4f4 <vga_read_edid+0x4bc>
  86b500:	28 64 00 00 	lw r4,(r3+0)
  86b504:	b4 29 10 00 	add r2,r1,r9
  86b508:	35 29 00 01 	addi r9,r9,1
  86b50c:	a0 8b 20 00 	and r4,r4,r11
  86b510:	58 64 00 00 	sw (r3+0),r4
  86b514:	30 45 00 00 	sb (r2+0),r5
  86b518:	5d 2a ff d3 	bne r9,r10,86b464 <vga_read_edid+0x42c>
  86b51c:	78 05 00 87 	mvhi r5,0x87
  86b520:	38 a5 04 10 	ori r5,r5,0x410
  86b524:	28 a3 00 00 	lw r3,(r5+0)
  86b528:	34 04 00 00 	mvi r4,0
  86b52c:	34 05 00 08 	mvi r5,8
  86b530:	34 07 00 08 	mvi r7,8
  86b534:	3c 84 00 01 	sli r4,r4,1
  86b538:	58 60 00 00 	sw (r3+0),r0
  86b53c:	20 88 00 ff 	andi r8,r4,0xff
  86b540:	34 02 03 e8 	mvi r2,1000
  86b544:	34 00 00 00 	nop
  86b548:	34 42 ff ff 	addi r2,r2,-1
  86b54c:	5c 40 ff fe 	bne r2,r0,86b544 <vga_read_edid+0x50c>
  86b550:	58 67 00 00 	sw (r3+0),r7
  86b554:	34 02 03 e8 	mvi r2,1000
  86b558:	34 00 00 00 	nop
  86b55c:	34 42 ff ff 	addi r2,r2,-1
  86b560:	5c 40 ff fe 	bne r2,r0,86b558 <vga_read_edid+0x520>
  86b564:	28 64 00 00 	lw r4,(r3+0)
  86b568:	34 02 03 e8 	mvi r2,1000
  86b56c:	20 84 00 01 	andi r4,r4,0x1
  86b570:	34 00 00 00 	nop
  86b574:	34 42 ff ff 	addi r2,r2,-1
  86b578:	5c 40 ff fe 	bne r2,r0,86b570 <vga_read_edid+0x538>
  86b57c:	58 60 00 00 	sw (r3+0),r0
  86b580:	34 a5 ff ff 	addi r5,r5,-1
  86b584:	b9 04 20 00 	or r4,r8,r4
  86b588:	5c a2 ff eb 	bne r5,r2,86b534 <vga_read_edid+0x4fc>
  86b58c:	78 05 00 87 	mvhi r5,0x87
  86b590:	38 a5 04 10 	ori r5,r5,0x410
  86b594:	28 a2 00 00 	lw r2,(r5+0)
  86b598:	34 03 00 06 	mvi r3,6
  86b59c:	58 43 00 00 	sw (r2+0),r3
  86b5a0:	34 02 03 e8 	mvi r2,1000
  86b5a4:	34 00 00 00 	nop
  86b5a8:	34 42 ff ff 	addi r2,r2,-1
  86b5ac:	5c 40 ff fe 	bne r2,r0,86b5a4 <vga_read_edid+0x56c>
  86b5b0:	78 02 00 87 	mvhi r2,0x87
  86b5b4:	38 42 04 10 	ori r2,r2,0x410
  86b5b8:	28 43 00 00 	lw r3,(r2+0)
  86b5bc:	34 02 03 e8 	mvi r2,1000
  86b5c0:	28 65 00 00 	lw r5,(r3+0)
  86b5c4:	38 a5 00 08 	ori r5,r5,0x8
  86b5c8:	58 65 00 00 	sw (r3+0),r5
  86b5cc:	34 00 00 00 	nop
  86b5d0:	34 42 ff ff 	addi r2,r2,-1
  86b5d4:	5c 40 ff fe 	bne r2,r0,86b5cc <vga_read_edid+0x594>
  86b5d8:	78 03 00 87 	mvhi r3,0x87
  86b5dc:	38 63 04 10 	ori r3,r3,0x410
  86b5e0:	28 62 00 00 	lw r2,(r3+0)
  86b5e4:	34 05 ff f7 	mvi r5,-9
  86b5e8:	34 03 03 e8 	mvi r3,1000
  86b5ec:	28 47 00 00 	lw r7,(r2+0)
  86b5f0:	a0 e5 28 00 	and r5,r7,r5
  86b5f4:	58 45 00 00 	sw (r2+0),r5
  86b5f8:	30 24 00 ff 	sb (r1+255),r4
  86b5fc:	34 01 00 04 	mvi r1,4
  86b600:	58 41 00 00 	sw (r2+0),r1
  86b604:	34 00 00 00 	nop
  86b608:	34 63 ff ff 	addi r3,r3,-1
  86b60c:	5c 60 ff fe 	bne r3,r0,86b604 <vga_read_edid+0x5cc>
  86b610:	78 04 00 87 	mvhi r4,0x87
  86b614:	38 84 04 10 	ori r4,r4,0x410
  86b618:	28 81 00 00 	lw r1,(r4+0)
  86b61c:	34 02 00 0c 	mvi r2,12
  86b620:	58 22 00 00 	sw (r1+0),r2
  86b624:	34 02 00 08 	mvi r2,8
  86b628:	58 22 00 00 	sw (r1+0),r2
  86b62c:	34 01 03 e8 	mvi r1,1000
  86b630:	34 00 00 00 	nop
  86b634:	34 21 ff ff 	addi r1,r1,-1
  86b638:	5c 20 ff fe 	bne r1,r0,86b630 <vga_read_edid+0x5f8>
  86b63c:	58 c0 00 00 	sw (r6+0),r0
  86b640:	34 01 00 01 	mvi r1,1
  86b644:	e3 ff ff 58 	bi 86b3a4 <vga_read_edid+0x36c>
  86b648:	78 01 00 87 	mvhi r1,0x87
  86b64c:	38 21 05 14 	ori r1,r1,0x514
  86b650:	fb ff e7 bb 	calli 86553c <printf>
  86b654:	34 01 00 00 	mvi r1,0
  86b658:	e3 ff ff 53 	bi 86b3a4 <vga_read_edid+0x36c>

0086b65c <vga_set_mode>:
  86b65c:	37 9c ff f4 	addi sp,sp,-12
  86b660:	5b 8b 00 0c 	sw (sp+12),r11
  86b664:	5b 8c 00 08 	sw (sp+8),r12
  86b668:	5b 9d 00 04 	sw (sp+4),ra
  86b66c:	78 04 00 87 	mvhi r4,0x87
  86b670:	38 84 04 14 	ori r4,r4,0x414
  86b674:	28 83 00 00 	lw r3,(r4+0)
  86b678:	34 02 00 01 	mvi r2,1
  86b67c:	58 62 00 00 	sw (r3+0),r2
  86b680:	44 22 00 b3 	be r1,r2,86b94c <vga_set_mode+0x2f0>
  86b684:	34 02 00 02 	mvi r2,2
  86b688:	44 22 00 7e 	be r1,r2,86b880 <vga_set_mode+0x224>
  86b68c:	44 20 00 4a 	be r1,r0,86b7b4 <vga_set_mode+0x158>
  86b690:	78 0c 40 66 	mvhi r12,0x4066
  86b694:	78 0b 40 66 	mvhi r11,0x4066
  86b698:	39 8c 16 78 	ori r12,r12,0x1678
  86b69c:	39 6b 16 8c 	ori r11,r11,0x168c
  86b6a0:	29 61 00 00 	lw r1,(r11+0)
  86b6a4:	29 83 00 00 	lw r3,(r12+0)
  86b6a8:	34 02 00 00 	mvi r2,0
  86b6ac:	88 61 18 00 	mul r3,r3,r1
  86b6b0:	78 01 40 02 	mvhi r1,0x4002
  86b6b4:	38 21 15 a0 	ori r1,r1,0x15a0
  86b6b8:	3c 63 00 01 	sli r3,r3,1
  86b6bc:	fb ff e4 5f 	calli 864838 <memset>
  86b6c0:	29 61 00 00 	lw r1,(r11+0)
  86b6c4:	29 83 00 00 	lw r3,(r12+0)
  86b6c8:	34 02 00 00 	mvi r2,0
  86b6cc:	88 61 18 00 	mul r3,r3,r1
  86b6d0:	78 01 40 1a 	mvhi r1,0x401a
  86b6d4:	38 21 15 a0 	ori r1,r1,0x15a0
  86b6d8:	3c 63 00 01 	sli r3,r3,1
  86b6dc:	fb ff e4 57 	calli 864838 <memset>
  86b6e0:	29 61 00 00 	lw r1,(r11+0)
  86b6e4:	29 83 00 00 	lw r3,(r12+0)
  86b6e8:	34 02 00 00 	mvi r2,0
  86b6ec:	88 61 18 00 	mul r3,r3,r1
  86b6f0:	78 01 40 32 	mvhi r1,0x4032
  86b6f4:	38 21 15 a0 	ori r1,r1,0x15a0
  86b6f8:	3c 63 00 01 	sli r3,r3,1
  86b6fc:	fb ff e4 4f 	calli 864838 <memset>
  86b700:	29 61 00 00 	lw r1,(r11+0)
  86b704:	29 83 00 00 	lw r3,(r12+0)
  86b708:	34 02 00 00 	mvi r2,0
  86b70c:	88 61 18 00 	mul r3,r3,r1
  86b710:	78 01 40 4a 	mvhi r1,0x404a
  86b714:	38 21 15 a0 	ori r1,r1,0x15a0
  86b718:	3c 63 00 01 	sli r3,r3,1
  86b71c:	fb ff e4 47 	calli 864838 <memset>
  86b720:	29 82 00 00 	lw r2,(r12+0)
  86b724:	29 63 00 00 	lw r3,(r11+0)
  86b728:	78 01 40 62 	mvhi r1,0x4062
  86b72c:	14 46 00 1f 	sri r6,r2,31
  86b730:	88 43 28 00 	mul r5,r2,r3
  86b734:	00 c6 00 1d 	srui r6,r6,29
  86b738:	38 21 15 a4 	ori r1,r1,0x15a4
  86b73c:	b4 c2 30 00 	add r6,r6,r2
  86b740:	14 a7 00 1f 	sri r7,r5,31
  86b744:	14 c6 00 03 	sri r6,r6,3
  86b748:	00 e7 00 1c 	srui r7,r7,28
  86b74c:	58 26 00 00 	sw (r1+0),r6
  86b750:	78 04 40 62 	mvhi r4,0x4062
  86b754:	78 06 00 87 	mvhi r6,0x87
  86b758:	38 84 15 a0 	ori r4,r4,0x15a0
  86b75c:	38 c6 04 3c 	ori r6,r6,0x43c
  86b760:	58 80 00 00 	sw (r4+0),r0
  86b764:	b4 e5 28 00 	add r5,r7,r5
  86b768:	28 c4 00 00 	lw r4,(r6+0)
  86b76c:	14 a5 00 04 	sri r5,r5,4
  86b770:	78 01 00 87 	mvhi r1,0x87
  86b774:	38 21 04 9c 	ori r1,r1,0x49c
  86b778:	58 85 00 00 	sw (r4+0),r5
  86b77c:	fb ff e7 70 	calli 86553c <printf>
  86b780:	78 01 40 66 	mvhi r1,0x4066
  86b784:	38 21 16 7c 	ori r1,r1,0x167c
  86b788:	28 21 00 00 	lw r1,(r1+0)
  86b78c:	5c 20 00 05 	bne r1,r0,86b7a0 <vga_set_mode+0x144>
  86b790:	78 02 00 87 	mvhi r2,0x87
  86b794:	38 42 04 14 	ori r2,r2,0x414
  86b798:	28 41 00 00 	lw r1,(r2+0)
  86b79c:	58 20 00 00 	sw (r1+0),r0
  86b7a0:	2b 9d 00 04 	lw ra,(sp+4)
  86b7a4:	2b 8b 00 0c 	lw r11,(sp+12)
  86b7a8:	2b 8c 00 08 	lw r12,(sp+8)
  86b7ac:	37 9c 00 0c 	addi sp,sp,12
  86b7b0:	c3 a0 00 00 	ret
  86b7b4:	78 05 00 87 	mvhi r5,0x87
  86b7b8:	38 a5 04 18 	ori r5,r5,0x418
  86b7bc:	28 a3 00 00 	lw r3,(r5+0)
  86b7c0:	78 0c 40 66 	mvhi r12,0x4066
  86b7c4:	78 0b 40 66 	mvhi r11,0x4066
  86b7c8:	34 02 02 80 	mvi r2,640
  86b7cc:	34 01 01 e0 	mvi r1,480
  86b7d0:	39 8c 16 78 	ori r12,r12,0x1678
  86b7d4:	39 6b 16 8c 	ori r11,r11,0x168c
  86b7d8:	78 06 00 87 	mvhi r6,0x87
  86b7dc:	59 82 00 00 	sw (r12+0),r2
  86b7e0:	59 61 00 00 	sw (r11+0),r1
  86b7e4:	38 c6 04 1c 	ori r6,r6,0x41c
  86b7e8:	58 62 00 00 	sw (r3+0),r2
  86b7ec:	28 c2 00 00 	lw r2,(r6+0)
  86b7f0:	78 04 00 87 	mvhi r4,0x87
  86b7f4:	34 03 02 90 	mvi r3,656
  86b7f8:	38 84 04 20 	ori r4,r4,0x420
  86b7fc:	58 43 00 00 	sw (r2+0),r3
  86b800:	28 82 00 00 	lw r2,(r4+0)
  86b804:	78 05 00 87 	mvhi r5,0x87
  86b808:	34 03 02 f0 	mvi r3,752
  86b80c:	38 a5 04 24 	ori r5,r5,0x424
  86b810:	58 43 00 00 	sw (r2+0),r3
  86b814:	28 a2 00 00 	lw r2,(r5+0)
  86b818:	78 06 00 87 	mvhi r6,0x87
  86b81c:	34 03 03 1f 	mvi r3,799
  86b820:	38 c6 04 28 	ori r6,r6,0x428
  86b824:	58 43 00 00 	sw (r2+0),r3
  86b828:	28 c2 00 00 	lw r2,(r6+0)
  86b82c:	78 03 00 87 	mvhi r3,0x87
  86b830:	38 63 04 2c 	ori r3,r3,0x42c
  86b834:	58 41 00 00 	sw (r2+0),r1
  86b838:	28 61 00 00 	lw r1,(r3+0)
  86b83c:	78 04 00 87 	mvhi r4,0x87
  86b840:	34 02 01 eb 	mvi r2,491
  86b844:	38 84 04 30 	ori r4,r4,0x430
  86b848:	58 22 00 00 	sw (r1+0),r2
  86b84c:	28 81 00 00 	lw r1,(r4+0)
  86b850:	78 05 00 87 	mvhi r5,0x87
  86b854:	34 02 01 ed 	mvi r2,493
  86b858:	38 a5 04 34 	ori r5,r5,0x434
  86b85c:	58 22 00 00 	sw (r1+0),r2
  86b860:	28 a1 00 00 	lw r1,(r5+0)
  86b864:	78 06 00 87 	mvhi r6,0x87
  86b868:	34 02 02 0b 	mvi r2,523
  86b86c:	38 c6 04 38 	ori r6,r6,0x438
  86b870:	58 22 00 00 	sw (r1+0),r2
  86b874:	28 c1 00 00 	lw r1,(r6+0)
  86b878:	58 20 00 00 	sw (r1+0),r0
  86b87c:	e3 ff ff 89 	bi 86b6a0 <vga_set_mode+0x44>
  86b880:	78 06 00 87 	mvhi r6,0x87
  86b884:	38 c6 04 18 	ori r6,r6,0x418
  86b888:	28 c4 00 00 	lw r4,(r6+0)
  86b88c:	78 0c 40 66 	mvhi r12,0x4066
  86b890:	78 0b 40 66 	mvhi r11,0x4066
  86b894:	34 03 04 00 	mvi r3,1024
  86b898:	34 02 03 00 	mvi r2,768
  86b89c:	39 8c 16 78 	ori r12,r12,0x1678
  86b8a0:	39 6b 16 8c 	ori r11,r11,0x168c
  86b8a4:	78 05 00 87 	mvhi r5,0x87
  86b8a8:	59 83 00 00 	sw (r12+0),r3
  86b8ac:	59 62 00 00 	sw (r11+0),r2
  86b8b0:	38 a5 04 1c 	ori r5,r5,0x41c
  86b8b4:	58 83 00 00 	sw (r4+0),r3
  86b8b8:	28 a3 00 00 	lw r3,(r5+0)
  86b8bc:	78 06 00 87 	mvhi r6,0x87
  86b8c0:	34 04 04 18 	mvi r4,1048
  86b8c4:	38 c6 04 20 	ori r6,r6,0x420
  86b8c8:	58 64 00 00 	sw (r3+0),r4
  86b8cc:	28 c3 00 00 	lw r3,(r6+0)
  86b8d0:	78 05 00 87 	mvhi r5,0x87
  86b8d4:	34 04 04 a0 	mvi r4,1184
  86b8d8:	38 a5 04 24 	ori r5,r5,0x424
  86b8dc:	58 64 00 00 	sw (r3+0),r4
  86b8e0:	28 a3 00 00 	lw r3,(r5+0)
  86b8e4:	78 06 00 87 	mvhi r6,0x87
  86b8e8:	34 04 05 40 	mvi r4,1344
  86b8ec:	38 c6 04 28 	ori r6,r6,0x428
  86b8f0:	58 64 00 00 	sw (r3+0),r4
  86b8f4:	28 c3 00 00 	lw r3,(r6+0)
  86b8f8:	78 04 00 87 	mvhi r4,0x87
  86b8fc:	38 84 04 2c 	ori r4,r4,0x42c
  86b900:	58 62 00 00 	sw (r3+0),r2
  86b904:	28 82 00 00 	lw r2,(r4+0)
  86b908:	78 05 00 87 	mvhi r5,0x87
  86b90c:	34 03 03 03 	mvi r3,771
  86b910:	38 a5 04 30 	ori r5,r5,0x430
  86b914:	58 43 00 00 	sw (r2+0),r3
  86b918:	28 a2 00 00 	lw r2,(r5+0)
  86b91c:	78 06 00 87 	mvhi r6,0x87
  86b920:	34 03 03 09 	mvi r3,777
  86b924:	38 c6 04 34 	ori r6,r6,0x434
  86b928:	58 43 00 00 	sw (r2+0),r3
  86b92c:	28 c2 00 00 	lw r2,(r6+0)
  86b930:	34 03 03 26 	mvi r3,806
  86b934:	58 43 00 00 	sw (r2+0),r3
  86b938:	78 03 00 87 	mvhi r3,0x87
  86b93c:	38 63 04 38 	ori r3,r3,0x438
  86b940:	28 62 00 00 	lw r2,(r3+0)
  86b944:	58 41 00 00 	sw (r2+0),r1
  86b948:	e3 ff ff 56 	bi 86b6a0 <vga_set_mode+0x44>
  86b94c:	78 05 00 87 	mvhi r5,0x87
  86b950:	38 a5 04 18 	ori r5,r5,0x418
  86b954:	28 a4 00 00 	lw r4,(r5+0)
  86b958:	78 0c 40 66 	mvhi r12,0x4066
  86b95c:	78 0b 40 66 	mvhi r11,0x4066
  86b960:	34 03 03 20 	mvi r3,800
  86b964:	34 02 02 58 	mvi r2,600
  86b968:	39 8c 16 78 	ori r12,r12,0x1678
  86b96c:	39 6b 16 8c 	ori r11,r11,0x168c
  86b970:	78 06 00 87 	mvhi r6,0x87
  86b974:	59 83 00 00 	sw (r12+0),r3
  86b978:	59 62 00 00 	sw (r11+0),r2
  86b97c:	38 c6 04 1c 	ori r6,r6,0x41c
  86b980:	58 83 00 00 	sw (r4+0),r3
  86b984:	28 c3 00 00 	lw r3,(r6+0)
  86b988:	78 05 00 87 	mvhi r5,0x87
  86b98c:	34 04 03 50 	mvi r4,848
  86b990:	38 a5 04 20 	ori r5,r5,0x420
  86b994:	58 64 00 00 	sw (r3+0),r4
  86b998:	28 a3 00 00 	lw r3,(r5+0)
  86b99c:	78 06 00 87 	mvhi r6,0x87
  86b9a0:	34 04 03 d0 	mvi r4,976
  86b9a4:	38 c6 04 24 	ori r6,r6,0x424
  86b9a8:	58 64 00 00 	sw (r3+0),r4
  86b9ac:	28 c3 00 00 	lw r3,(r6+0)
  86b9b0:	34 04 04 10 	mvi r4,1040
  86b9b4:	78 05 00 87 	mvhi r5,0x87
  86b9b8:	58 64 00 00 	sw (r3+0),r4
  86b9bc:	78 04 00 87 	mvhi r4,0x87
  86b9c0:	38 84 04 28 	ori r4,r4,0x428
  86b9c4:	28 83 00 00 	lw r3,(r4+0)
  86b9c8:	38 a5 04 2c 	ori r5,r5,0x42c
  86b9cc:	78 06 00 87 	mvhi r6,0x87
  86b9d0:	58 62 00 00 	sw (r3+0),r2
  86b9d4:	28 a2 00 00 	lw r2,(r5+0)
  86b9d8:	34 03 02 7d 	mvi r3,637
  86b9dc:	38 c6 04 30 	ori r6,r6,0x430
  86b9e0:	58 43 00 00 	sw (r2+0),r3
  86b9e4:	28 c2 00 00 	lw r2,(r6+0)
  86b9e8:	78 04 00 87 	mvhi r4,0x87
  86b9ec:	34 03 02 83 	mvi r3,643
  86b9f0:	38 84 04 34 	ori r4,r4,0x434
  86b9f4:	58 43 00 00 	sw (r2+0),r3
  86b9f8:	28 82 00 00 	lw r2,(r4+0)
  86b9fc:	78 05 00 87 	mvhi r5,0x87
  86ba00:	34 03 02 9a 	mvi r3,666
  86ba04:	38 a5 04 38 	ori r5,r5,0x438
  86ba08:	58 43 00 00 	sw (r2+0),r3
  86ba0c:	28 a2 00 00 	lw r2,(r5+0)
  86ba10:	58 41 00 00 	sw (r2+0),r1
  86ba14:	e3 ff ff 23 	bi 86b6a0 <vga_set_mode+0x44>

0086ba18 <mdio_write>:
  86ba18:	37 9c ff f0 	addi sp,sp,-16
  86ba1c:	5b 8b 00 0c 	sw (sp+12),r11
  86ba20:	5b 8c 00 08 	sw (sp+8),r12
  86ba24:	5b 8d 00 04 	sw (sp+4),r13
  86ba28:	78 04 00 87 	mvhi r4,0x87
  86ba2c:	38 84 15 34 	ori r4,r4,0x1534
  86ba30:	28 88 00 00 	lw r8,(r4+0)
  86ba34:	34 04 00 04 	mvi r4,4
  86ba38:	34 07 ff ff 	mvi r7,-1
  86ba3c:	59 04 00 00 	sw (r8+0),r4
  86ba40:	34 06 00 20 	mvi r6,32
  86ba44:	34 0b 00 0c 	mvi r11,12
  86ba48:	34 04 03 e7 	mvi r4,999
  86ba4c:	34 0a 00 04 	mvi r10,4
  86ba50:	34 0d 00 0d 	mvi r13,13
  86ba54:	34 0c 00 05 	mvi r12,5
  86ba58:	4c e0 00 18 	bge r7,r0,86bab8 <mdio_write+0xa0>
  86ba5c:	59 0d 00 00 	sw (r8+0),r13
  86ba60:	5b 80 00 10 	sw (sp+16),r0
  86ba64:	2b 89 00 10 	lw r9,(sp+16)
  86ba68:	49 24 00 06 	bg r9,r4,86ba80 <mdio_write+0x68>
  86ba6c:	2b 85 00 10 	lw r5,(sp+16)
  86ba70:	34 a5 00 01 	addi r5,r5,1
  86ba74:	5b 85 00 10 	sw (sp+16),r5
  86ba78:	2b 85 00 10 	lw r5,(sp+16)
  86ba7c:	4c 85 ff fc 	bge r4,r5,86ba6c <mdio_write+0x54>
  86ba80:	59 0c 00 00 	sw (r8+0),r12
  86ba84:	5b 80 00 10 	sw (sp+16),r0
  86ba88:	2b 89 00 10 	lw r9,(sp+16)
  86ba8c:	49 24 00 06 	bg r9,r4,86baa4 <mdio_write+0x8c>
  86ba90:	2b 85 00 10 	lw r5,(sp+16)
  86ba94:	34 a5 00 01 	addi r5,r5,1
  86ba98:	5b 85 00 10 	sw (sp+16),r5
  86ba9c:	2b 85 00 10 	lw r5,(sp+16)
  86baa0:	4c 85 ff fc 	bge r4,r5,86ba90 <mdio_write+0x78>
  86baa4:	34 c6 ff ff 	addi r6,r6,-1
  86baa8:	44 c0 00 18 	be r6,r0,86bb08 <mdio_write+0xf0>
  86baac:	3c e7 00 01 	sli r7,r7,1
  86bab0:	4c e0 00 02 	bge r7,r0,86bab8 <mdio_write+0xa0>
  86bab4:	e3 ff ff ea 	bi 86ba5c <mdio_write+0x44>
  86bab8:	59 0b 00 00 	sw (r8+0),r11
  86babc:	5b 80 00 10 	sw (sp+16),r0
  86bac0:	2b 89 00 10 	lw r9,(sp+16)
  86bac4:	49 24 00 06 	bg r9,r4,86badc <mdio_write+0xc4>
  86bac8:	2b 85 00 10 	lw r5,(sp+16)
  86bacc:	34 a5 00 01 	addi r5,r5,1
  86bad0:	5b 85 00 10 	sw (sp+16),r5
  86bad4:	2b 85 00 10 	lw r5,(sp+16)
  86bad8:	4c 85 ff fc 	bge r4,r5,86bac8 <mdio_write+0xb0>
  86badc:	59 0a 00 00 	sw (r8+0),r10
  86bae0:	5b 80 00 10 	sw (sp+16),r0
  86bae4:	2b 89 00 10 	lw r9,(sp+16)
  86bae8:	49 24 ff ef 	bg r9,r4,86baa4 <mdio_write+0x8c>
  86baec:	2b 85 00 10 	lw r5,(sp+16)
  86baf0:	34 a5 00 01 	addi r5,r5,1
  86baf4:	5b 85 00 10 	sw (sp+16),r5
  86baf8:	2b 85 00 10 	lw r5,(sp+16)
  86bafc:	4c 85 ff fc 	bge r4,r5,86baec <mdio_write+0xd4>
  86bb00:	34 c6 ff ff 	addi r6,r6,-1
  86bb04:	5c c0 ff ea 	bne r6,r0,86baac <mdio_write+0x94>
  86bb08:	78 04 00 87 	mvhi r4,0x87
  86bb0c:	38 84 15 34 	ori r4,r4,0x1534
  86bb10:	78 07 50 00 	mvhi r7,0x5000
  86bb14:	28 88 00 00 	lw r8,(r4+0)
  86bb18:	34 06 00 04 	mvi r6,4
  86bb1c:	34 0b 00 0c 	mvi r11,12
  86bb20:	34 04 03 e7 	mvi r4,999
  86bb24:	34 0a 00 04 	mvi r10,4
  86bb28:	34 0d 00 0d 	mvi r13,13
  86bb2c:	34 0c 00 05 	mvi r12,5
  86bb30:	4c e0 00 18 	bge r7,r0,86bb90 <mdio_write+0x178>
  86bb34:	59 0d 00 00 	sw (r8+0),r13
  86bb38:	5b 80 00 10 	sw (sp+16),r0
  86bb3c:	2b 89 00 10 	lw r9,(sp+16)
  86bb40:	49 24 00 06 	bg r9,r4,86bb58 <mdio_write+0x140>
  86bb44:	2b 85 00 10 	lw r5,(sp+16)
  86bb48:	34 a5 00 01 	addi r5,r5,1
  86bb4c:	5b 85 00 10 	sw (sp+16),r5
  86bb50:	2b 85 00 10 	lw r5,(sp+16)
  86bb54:	4c 85 ff fc 	bge r4,r5,86bb44 <mdio_write+0x12c>
  86bb58:	59 0c 00 00 	sw (r8+0),r12
  86bb5c:	5b 80 00 10 	sw (sp+16),r0
  86bb60:	2b 89 00 10 	lw r9,(sp+16)
  86bb64:	49 24 00 06 	bg r9,r4,86bb7c <mdio_write+0x164>
  86bb68:	2b 85 00 10 	lw r5,(sp+16)
  86bb6c:	34 a5 00 01 	addi r5,r5,1
  86bb70:	5b 85 00 10 	sw (sp+16),r5
  86bb74:	2b 85 00 10 	lw r5,(sp+16)
  86bb78:	4c 85 ff fc 	bge r4,r5,86bb68 <mdio_write+0x150>
  86bb7c:	34 c6 ff ff 	addi r6,r6,-1
  86bb80:	44 c0 00 18 	be r6,r0,86bbe0 <mdio_write+0x1c8>
  86bb84:	3c e7 00 01 	sli r7,r7,1
  86bb88:	4c e0 00 02 	bge r7,r0,86bb90 <mdio_write+0x178>
  86bb8c:	e3 ff ff ea 	bi 86bb34 <mdio_write+0x11c>
  86bb90:	59 0b 00 00 	sw (r8+0),r11
  86bb94:	5b 80 00 10 	sw (sp+16),r0
  86bb98:	2b 89 00 10 	lw r9,(sp+16)
  86bb9c:	49 24 00 06 	bg r9,r4,86bbb4 <mdio_write+0x19c>
  86bba0:	2b 85 00 10 	lw r5,(sp+16)
  86bba4:	34 a5 00 01 	addi r5,r5,1
  86bba8:	5b 85 00 10 	sw (sp+16),r5
  86bbac:	2b 85 00 10 	lw r5,(sp+16)
  86bbb0:	4c 85 ff fc 	bge r4,r5,86bba0 <mdio_write+0x188>
  86bbb4:	59 0a 00 00 	sw (r8+0),r10
  86bbb8:	5b 80 00 10 	sw (sp+16),r0
  86bbbc:	2b 89 00 10 	lw r9,(sp+16)
  86bbc0:	49 24 ff ef 	bg r9,r4,86bb7c <mdio_write+0x164>
  86bbc4:	2b 85 00 10 	lw r5,(sp+16)
  86bbc8:	34 a5 00 01 	addi r5,r5,1
  86bbcc:	5b 85 00 10 	sw (sp+16),r5
  86bbd0:	2b 85 00 10 	lw r5,(sp+16)
  86bbd4:	4c 85 ff fc 	bge r4,r5,86bbc4 <mdio_write+0x1ac>
  86bbd8:	34 c6 ff ff 	addi r6,r6,-1
  86bbdc:	5c c0 ff ea 	bne r6,r0,86bb84 <mdio_write+0x16c>
  86bbe0:	78 04 00 87 	mvhi r4,0x87
  86bbe4:	3c 26 00 1b 	sli r6,r1,27
  86bbe8:	38 84 15 34 	ori r4,r4,0x1534
  86bbec:	28 87 00 00 	lw r7,(r4+0)
  86bbf0:	34 05 00 05 	mvi r5,5
  86bbf4:	34 0a 00 0c 	mvi r10,12
  86bbf8:	34 01 03 e7 	mvi r1,999
  86bbfc:	34 09 00 04 	mvi r9,4
  86bc00:	34 0c 00 0d 	mvi r12,13
  86bc04:	34 0b 00 05 	mvi r11,5
  86bc08:	4c c0 00 18 	bge r6,r0,86bc68 <mdio_write+0x250>
  86bc0c:	58 ec 00 00 	sw (r7+0),r12
  86bc10:	5b 80 00 10 	sw (sp+16),r0
  86bc14:	2b 88 00 10 	lw r8,(sp+16)
  86bc18:	49 01 00 06 	bg r8,r1,86bc30 <mdio_write+0x218>
  86bc1c:	2b 84 00 10 	lw r4,(sp+16)
  86bc20:	34 84 00 01 	addi r4,r4,1
  86bc24:	5b 84 00 10 	sw (sp+16),r4
  86bc28:	2b 84 00 10 	lw r4,(sp+16)
  86bc2c:	4c 24 ff fc 	bge r1,r4,86bc1c <mdio_write+0x204>
  86bc30:	58 eb 00 00 	sw (r7+0),r11
  86bc34:	5b 80 00 10 	sw (sp+16),r0
  86bc38:	2b 88 00 10 	lw r8,(sp+16)
  86bc3c:	49 01 00 06 	bg r8,r1,86bc54 <mdio_write+0x23c>
  86bc40:	2b 84 00 10 	lw r4,(sp+16)
  86bc44:	34 84 00 01 	addi r4,r4,1
  86bc48:	5b 84 00 10 	sw (sp+16),r4
  86bc4c:	2b 84 00 10 	lw r4,(sp+16)
  86bc50:	4c 24 ff fc 	bge r1,r4,86bc40 <mdio_write+0x228>
  86bc54:	34 a5 ff ff 	addi r5,r5,-1
  86bc58:	44 a0 00 18 	be r5,r0,86bcb8 <mdio_write+0x2a0>
  86bc5c:	3c c6 00 01 	sli r6,r6,1
  86bc60:	4c c0 00 02 	bge r6,r0,86bc68 <mdio_write+0x250>
  86bc64:	e3 ff ff ea 	bi 86bc0c <mdio_write+0x1f4>
  86bc68:	58 ea 00 00 	sw (r7+0),r10
  86bc6c:	5b 80 00 10 	sw (sp+16),r0
  86bc70:	2b 88 00 10 	lw r8,(sp+16)
  86bc74:	49 01 00 06 	bg r8,r1,86bc8c <mdio_write+0x274>
  86bc78:	2b 84 00 10 	lw r4,(sp+16)
  86bc7c:	34 84 00 01 	addi r4,r4,1
  86bc80:	5b 84 00 10 	sw (sp+16),r4
  86bc84:	2b 84 00 10 	lw r4,(sp+16)
  86bc88:	4c 24 ff fc 	bge r1,r4,86bc78 <mdio_write+0x260>
  86bc8c:	58 e9 00 00 	sw (r7+0),r9
  86bc90:	5b 80 00 10 	sw (sp+16),r0
  86bc94:	2b 88 00 10 	lw r8,(sp+16)
  86bc98:	49 01 ff ef 	bg r8,r1,86bc54 <mdio_write+0x23c>
  86bc9c:	2b 84 00 10 	lw r4,(sp+16)
  86bca0:	34 84 00 01 	addi r4,r4,1
  86bca4:	5b 84 00 10 	sw (sp+16),r4
  86bca8:	2b 84 00 10 	lw r4,(sp+16)
  86bcac:	4c 24 ff fc 	bge r1,r4,86bc9c <mdio_write+0x284>
  86bcb0:	34 a5 ff ff 	addi r5,r5,-1
  86bcb4:	5c a0 ff ea 	bne r5,r0,86bc5c <mdio_write+0x244>
  86bcb8:	78 01 00 87 	mvhi r1,0x87
  86bcbc:	3c 45 00 1b 	sli r5,r2,27
  86bcc0:	38 21 15 34 	ori r1,r1,0x1534
  86bcc4:	28 26 00 00 	lw r6,(r1+0)
  86bcc8:	34 04 00 05 	mvi r4,5
  86bccc:	34 08 00 0c 	mvi r8,12
  86bcd0:	34 01 03 e7 	mvi r1,999
  86bcd4:	34 07 00 04 	mvi r7,4
  86bcd8:	34 0a 00 0d 	mvi r10,13
  86bcdc:	34 09 00 05 	mvi r9,5
  86bce0:	4c a0 00 18 	bge r5,r0,86bd40 <mdio_write+0x328>
  86bce4:	58 ca 00 00 	sw (r6+0),r10
  86bce8:	5b 80 00 10 	sw (sp+16),r0
  86bcec:	2b 82 00 10 	lw r2,(sp+16)
  86bcf0:	48 41 00 06 	bg r2,r1,86bd08 <mdio_write+0x2f0>
  86bcf4:	2b 82 00 10 	lw r2,(sp+16)
  86bcf8:	34 42 00 01 	addi r2,r2,1
  86bcfc:	5b 82 00 10 	sw (sp+16),r2
  86bd00:	2b 82 00 10 	lw r2,(sp+16)
  86bd04:	4c 22 ff fc 	bge r1,r2,86bcf4 <mdio_write+0x2dc>
  86bd08:	58 c9 00 00 	sw (r6+0),r9
  86bd0c:	5b 80 00 10 	sw (sp+16),r0
  86bd10:	2b 82 00 10 	lw r2,(sp+16)
  86bd14:	48 41 00 06 	bg r2,r1,86bd2c <mdio_write+0x314>
  86bd18:	2b 82 00 10 	lw r2,(sp+16)
  86bd1c:	34 42 00 01 	addi r2,r2,1
  86bd20:	5b 82 00 10 	sw (sp+16),r2
  86bd24:	2b 82 00 10 	lw r2,(sp+16)
  86bd28:	4c 22 ff fc 	bge r1,r2,86bd18 <mdio_write+0x300>
  86bd2c:	34 84 ff ff 	addi r4,r4,-1
  86bd30:	44 80 00 18 	be r4,r0,86bd90 <mdio_write+0x378>
  86bd34:	3c a5 00 01 	sli r5,r5,1
  86bd38:	4c a0 00 02 	bge r5,r0,86bd40 <mdio_write+0x328>
  86bd3c:	e3 ff ff ea 	bi 86bce4 <mdio_write+0x2cc>
  86bd40:	58 c8 00 00 	sw (r6+0),r8
  86bd44:	5b 80 00 10 	sw (sp+16),r0
  86bd48:	2b 82 00 10 	lw r2,(sp+16)
  86bd4c:	48 41 00 06 	bg r2,r1,86bd64 <mdio_write+0x34c>
  86bd50:	2b 82 00 10 	lw r2,(sp+16)
  86bd54:	34 42 00 01 	addi r2,r2,1
  86bd58:	5b 82 00 10 	sw (sp+16),r2
  86bd5c:	2b 82 00 10 	lw r2,(sp+16)
  86bd60:	4c 22 ff fc 	bge r1,r2,86bd50 <mdio_write+0x338>
  86bd64:	58 c7 00 00 	sw (r6+0),r7
  86bd68:	5b 80 00 10 	sw (sp+16),r0
  86bd6c:	2b 82 00 10 	lw r2,(sp+16)
  86bd70:	48 41 ff ef 	bg r2,r1,86bd2c <mdio_write+0x314>
  86bd74:	2b 82 00 10 	lw r2,(sp+16)
  86bd78:	34 42 00 01 	addi r2,r2,1
  86bd7c:	5b 82 00 10 	sw (sp+16),r2
  86bd80:	2b 82 00 10 	lw r2,(sp+16)
  86bd84:	4c 22 ff fc 	bge r1,r2,86bd74 <mdio_write+0x35c>
  86bd88:	34 84 ff ff 	addi r4,r4,-1
  86bd8c:	5c 80 ff ea 	bne r4,r0,86bd34 <mdio_write+0x31c>
  86bd90:	78 02 00 87 	mvhi r2,0x87
  86bd94:	38 42 15 34 	ori r2,r2,0x1534
  86bd98:	78 05 80 00 	mvhi r5,0x8000
  86bd9c:	34 04 00 02 	mvi r4,2
  86bda0:	28 46 00 00 	lw r6,(r2+0)
  86bda4:	34 08 00 0c 	mvi r8,12
  86bda8:	34 01 03 e7 	mvi r1,999
  86bdac:	34 07 00 04 	mvi r7,4
  86bdb0:	34 0a 00 0d 	mvi r10,13
  86bdb4:	34 09 00 05 	mvi r9,5
  86bdb8:	4c a0 00 18 	bge r5,r0,86be18 <mdio_write+0x400>
  86bdbc:	58 ca 00 00 	sw (r6+0),r10
  86bdc0:	5b 80 00 10 	sw (sp+16),r0
  86bdc4:	2b 82 00 10 	lw r2,(sp+16)
  86bdc8:	48 41 00 06 	bg r2,r1,86bde0 <mdio_write+0x3c8>
  86bdcc:	2b 82 00 10 	lw r2,(sp+16)
  86bdd0:	34 42 00 01 	addi r2,r2,1
  86bdd4:	5b 82 00 10 	sw (sp+16),r2
  86bdd8:	2b 82 00 10 	lw r2,(sp+16)
  86bddc:	4c 22 ff fc 	bge r1,r2,86bdcc <mdio_write+0x3b4>
  86bde0:	58 c9 00 00 	sw (r6+0),r9
  86bde4:	5b 80 00 10 	sw (sp+16),r0
  86bde8:	2b 82 00 10 	lw r2,(sp+16)
  86bdec:	48 41 00 06 	bg r2,r1,86be04 <mdio_write+0x3ec>
  86bdf0:	2b 82 00 10 	lw r2,(sp+16)
  86bdf4:	34 42 00 01 	addi r2,r2,1
  86bdf8:	5b 82 00 10 	sw (sp+16),r2
  86bdfc:	2b 82 00 10 	lw r2,(sp+16)
  86be00:	4c 22 ff fc 	bge r1,r2,86bdf0 <mdio_write+0x3d8>
  86be04:	34 84 ff ff 	addi r4,r4,-1
  86be08:	44 80 00 18 	be r4,r0,86be68 <mdio_write+0x450>
  86be0c:	3c a5 00 01 	sli r5,r5,1
  86be10:	4c a0 00 02 	bge r5,r0,86be18 <mdio_write+0x400>
  86be14:	e3 ff ff ea 	bi 86bdbc <mdio_write+0x3a4>
  86be18:	58 c8 00 00 	sw (r6+0),r8
  86be1c:	5b 80 00 10 	sw (sp+16),r0
  86be20:	2b 82 00 10 	lw r2,(sp+16)
  86be24:	48 41 00 06 	bg r2,r1,86be3c <mdio_write+0x424>
  86be28:	2b 82 00 10 	lw r2,(sp+16)
  86be2c:	34 42 00 01 	addi r2,r2,1
  86be30:	5b 82 00 10 	sw (sp+16),r2
  86be34:	2b 82 00 10 	lw r2,(sp+16)
  86be38:	4c 22 ff fc 	bge r1,r2,86be28 <mdio_write+0x410>
  86be3c:	58 c7 00 00 	sw (r6+0),r7
  86be40:	5b 80 00 10 	sw (sp+16),r0
  86be44:	2b 82 00 10 	lw r2,(sp+16)
  86be48:	48 41 ff ef 	bg r2,r1,86be04 <mdio_write+0x3ec>
  86be4c:	2b 82 00 10 	lw r2,(sp+16)
  86be50:	34 42 00 01 	addi r2,r2,1
  86be54:	5b 82 00 10 	sw (sp+16),r2
  86be58:	2b 82 00 10 	lw r2,(sp+16)
  86be5c:	4c 22 ff fc 	bge r1,r2,86be4c <mdio_write+0x434>
  86be60:	34 84 ff ff 	addi r4,r4,-1
  86be64:	5c 80 ff ea 	bne r4,r0,86be0c <mdio_write+0x3f4>
  86be68:	78 04 00 87 	mvhi r4,0x87
  86be6c:	38 84 15 34 	ori r4,r4,0x1534
  86be70:	28 85 00 00 	lw r5,(r4+0)
  86be74:	3c 64 00 10 	sli r4,r3,16
  86be78:	34 07 00 0c 	mvi r7,12
  86be7c:	34 03 00 10 	mvi r3,16
  86be80:	34 01 03 e7 	mvi r1,999
  86be84:	34 06 00 04 	mvi r6,4
  86be88:	34 09 00 0d 	mvi r9,13
  86be8c:	34 08 00 05 	mvi r8,5
  86be90:	4c 80 00 18 	bge r4,r0,86bef0 <mdio_write+0x4d8>
  86be94:	58 a9 00 00 	sw (r5+0),r9
  86be98:	5b 80 00 10 	sw (sp+16),r0
  86be9c:	2b 82 00 10 	lw r2,(sp+16)
  86bea0:	48 41 00 06 	bg r2,r1,86beb8 <mdio_write+0x4a0>
  86bea4:	2b 82 00 10 	lw r2,(sp+16)
  86bea8:	34 42 00 01 	addi r2,r2,1
  86beac:	5b 82 00 10 	sw (sp+16),r2
  86beb0:	2b 82 00 10 	lw r2,(sp+16)
  86beb4:	4c 22 ff fc 	bge r1,r2,86bea4 <mdio_write+0x48c>
  86beb8:	58 a8 00 00 	sw (r5+0),r8
  86bebc:	5b 80 00 10 	sw (sp+16),r0
  86bec0:	2b 82 00 10 	lw r2,(sp+16)
  86bec4:	48 41 00 06 	bg r2,r1,86bedc <mdio_write+0x4c4>
  86bec8:	2b 82 00 10 	lw r2,(sp+16)
  86becc:	34 42 00 01 	addi r2,r2,1
  86bed0:	5b 82 00 10 	sw (sp+16),r2
  86bed4:	2b 82 00 10 	lw r2,(sp+16)
  86bed8:	4c 22 ff fc 	bge r1,r2,86bec8 <mdio_write+0x4b0>
  86bedc:	34 63 ff ff 	addi r3,r3,-1
  86bee0:	44 60 00 18 	be r3,r0,86bf40 <mdio_write+0x528>
  86bee4:	3c 84 00 01 	sli r4,r4,1
  86bee8:	4c 80 00 02 	bge r4,r0,86bef0 <mdio_write+0x4d8>
  86beec:	e3 ff ff ea 	bi 86be94 <mdio_write+0x47c>
  86bef0:	58 a7 00 00 	sw (r5+0),r7
  86bef4:	5b 80 00 10 	sw (sp+16),r0
  86bef8:	2b 82 00 10 	lw r2,(sp+16)
  86befc:	48 41 00 06 	bg r2,r1,86bf14 <mdio_write+0x4fc>
  86bf00:	2b 82 00 10 	lw r2,(sp+16)
  86bf04:	34 42 00 01 	addi r2,r2,1
  86bf08:	5b 82 00 10 	sw (sp+16),r2
  86bf0c:	2b 82 00 10 	lw r2,(sp+16)
  86bf10:	4c 22 ff fc 	bge r1,r2,86bf00 <mdio_write+0x4e8>
  86bf14:	58 a6 00 00 	sw (r5+0),r6
  86bf18:	5b 80 00 10 	sw (sp+16),r0
  86bf1c:	2b 82 00 10 	lw r2,(sp+16)
  86bf20:	48 41 ff ef 	bg r2,r1,86bedc <mdio_write+0x4c4>
  86bf24:	2b 82 00 10 	lw r2,(sp+16)
  86bf28:	34 42 00 01 	addi r2,r2,1
  86bf2c:	5b 82 00 10 	sw (sp+16),r2
  86bf30:	2b 82 00 10 	lw r2,(sp+16)
  86bf34:	4c 22 ff fc 	bge r1,r2,86bf24 <mdio_write+0x50c>
  86bf38:	34 63 ff ff 	addi r3,r3,-1
  86bf3c:	5c 60 ff ea 	bne r3,r0,86bee4 <mdio_write+0x4cc>
  86bf40:	78 03 00 87 	mvhi r3,0x87
  86bf44:	38 63 15 34 	ori r3,r3,0x1534
  86bf48:	28 61 00 00 	lw r1,(r3+0)
  86bf4c:	34 02 00 08 	mvi r2,8
  86bf50:	58 22 00 00 	sw (r1+0),r2
  86bf54:	5b 80 00 10 	sw (sp+16),r0
  86bf58:	2b 82 00 10 	lw r2,(sp+16)
  86bf5c:	34 01 03 e7 	mvi r1,999
  86bf60:	48 41 00 07 	bg r2,r1,86bf7c <mdio_write+0x564>
  86bf64:	34 02 03 e7 	mvi r2,999
  86bf68:	2b 81 00 10 	lw r1,(sp+16)
  86bf6c:	34 21 00 01 	addi r1,r1,1
  86bf70:	5b 81 00 10 	sw (sp+16),r1
  86bf74:	2b 81 00 10 	lw r1,(sp+16)
  86bf78:	4c 41 ff fc 	bge r2,r1,86bf68 <mdio_write+0x550>
  86bf7c:	78 04 00 87 	mvhi r4,0x87
  86bf80:	38 84 15 34 	ori r4,r4,0x1534
  86bf84:	28 81 00 00 	lw r1,(r4+0)
  86bf88:	58 20 00 00 	sw (r1+0),r0
  86bf8c:	5b 80 00 10 	sw (sp+16),r0
  86bf90:	2b 82 00 10 	lw r2,(sp+16)
  86bf94:	34 01 03 e7 	mvi r1,999
  86bf98:	48 41 00 07 	bg r2,r1,86bfb4 <mdio_write+0x59c>
  86bf9c:	34 02 03 e7 	mvi r2,999
  86bfa0:	2b 81 00 10 	lw r1,(sp+16)
  86bfa4:	34 21 00 01 	addi r1,r1,1
  86bfa8:	5b 81 00 10 	sw (sp+16),r1
  86bfac:	2b 81 00 10 	lw r1,(sp+16)
  86bfb0:	4c 41 ff fc 	bge r2,r1,86bfa0 <mdio_write+0x588>
  86bfb4:	78 03 00 87 	mvhi r3,0x87
  86bfb8:	38 63 15 34 	ori r3,r3,0x1534
  86bfbc:	28 61 00 00 	lw r1,(r3+0)
  86bfc0:	34 02 00 08 	mvi r2,8
  86bfc4:	58 22 00 00 	sw (r1+0),r2
  86bfc8:	5b 80 00 10 	sw (sp+16),r0
  86bfcc:	2b 82 00 10 	lw r2,(sp+16)
  86bfd0:	34 01 03 e7 	mvi r1,999
  86bfd4:	48 41 00 07 	bg r2,r1,86bff0 <mdio_write+0x5d8>
  86bfd8:	34 02 03 e7 	mvi r2,999
  86bfdc:	2b 81 00 10 	lw r1,(sp+16)
  86bfe0:	34 21 00 01 	addi r1,r1,1
  86bfe4:	5b 81 00 10 	sw (sp+16),r1
  86bfe8:	2b 81 00 10 	lw r1,(sp+16)
  86bfec:	4c 41 ff fc 	bge r2,r1,86bfdc <mdio_write+0x5c4>
  86bff0:	78 04 00 87 	mvhi r4,0x87
  86bff4:	38 84 15 34 	ori r4,r4,0x1534
  86bff8:	28 81 00 00 	lw r1,(r4+0)
  86bffc:	58 20 00 00 	sw (r1+0),r0
  86c000:	5b 80 00 10 	sw (sp+16),r0
  86c004:	2b 82 00 10 	lw r2,(sp+16)
  86c008:	34 01 03 e7 	mvi r1,999
  86c00c:	48 41 00 07 	bg r2,r1,86c028 <mdio_write+0x610>
  86c010:	34 02 03 e7 	mvi r2,999
  86c014:	2b 81 00 10 	lw r1,(sp+16)
  86c018:	34 21 00 01 	addi r1,r1,1
  86c01c:	5b 81 00 10 	sw (sp+16),r1
  86c020:	2b 81 00 10 	lw r1,(sp+16)
  86c024:	4c 41 ff fc 	bge r2,r1,86c014 <mdio_write+0x5fc>
  86c028:	2b 8b 00 0c 	lw r11,(sp+12)
  86c02c:	2b 8c 00 08 	lw r12,(sp+8)
  86c030:	2b 8d 00 04 	lw r13,(sp+4)
  86c034:	37 9c 00 10 	addi sp,sp,16
  86c038:	c3 a0 00 00 	ret

0086c03c <mdio_read>:
  86c03c:	37 9c ff f4 	addi sp,sp,-12
  86c040:	5b 8b 00 08 	sw (sp+8),r11
  86c044:	5b 8c 00 04 	sw (sp+4),r12
  86c048:	78 03 00 87 	mvhi r3,0x87
  86c04c:	38 63 15 34 	ori r3,r3,0x1534
  86c050:	28 67 00 00 	lw r7,(r3+0)
  86c054:	34 03 00 04 	mvi r3,4
  86c058:	34 06 ff ff 	mvi r6,-1
  86c05c:	58 e3 00 00 	sw (r7+0),r3
  86c060:	34 05 00 20 	mvi r5,32
  86c064:	34 0a 00 0c 	mvi r10,12
  86c068:	34 03 03 e7 	mvi r3,999
  86c06c:	34 09 00 04 	mvi r9,4
  86c070:	34 0c 00 0d 	mvi r12,13
  86c074:	34 0b 00 05 	mvi r11,5
  86c078:	4c c0 00 18 	bge r6,r0,86c0d8 <mdio_read+0x9c>
  86c07c:	58 ec 00 00 	sw (r7+0),r12
  86c080:	5b 80 00 0c 	sw (sp+12),r0
  86c084:	2b 88 00 0c 	lw r8,(sp+12)
  86c088:	49 03 00 06 	bg r8,r3,86c0a0 <mdio_read+0x64>
  86c08c:	2b 84 00 0c 	lw r4,(sp+12)
  86c090:	34 84 00 01 	addi r4,r4,1
  86c094:	5b 84 00 0c 	sw (sp+12),r4
  86c098:	2b 84 00 0c 	lw r4,(sp+12)
  86c09c:	4c 64 ff fc 	bge r3,r4,86c08c <mdio_read+0x50>
  86c0a0:	58 eb 00 00 	sw (r7+0),r11
  86c0a4:	5b 80 00 0c 	sw (sp+12),r0
  86c0a8:	2b 88 00 0c 	lw r8,(sp+12)
  86c0ac:	49 03 00 06 	bg r8,r3,86c0c4 <mdio_read+0x88>
  86c0b0:	2b 84 00 0c 	lw r4,(sp+12)
  86c0b4:	34 84 00 01 	addi r4,r4,1
  86c0b8:	5b 84 00 0c 	sw (sp+12),r4
  86c0bc:	2b 84 00 0c 	lw r4,(sp+12)
  86c0c0:	4c 64 ff fc 	bge r3,r4,86c0b0 <mdio_read+0x74>
  86c0c4:	34 a5 ff ff 	addi r5,r5,-1
  86c0c8:	44 a0 00 18 	be r5,r0,86c128 <mdio_read+0xec>
  86c0cc:	3c c6 00 01 	sli r6,r6,1
  86c0d0:	4c c0 00 02 	bge r6,r0,86c0d8 <mdio_read+0x9c>
  86c0d4:	e3 ff ff ea 	bi 86c07c <mdio_read+0x40>
  86c0d8:	58 ea 00 00 	sw (r7+0),r10
  86c0dc:	5b 80 00 0c 	sw (sp+12),r0
  86c0e0:	2b 88 00 0c 	lw r8,(sp+12)
  86c0e4:	49 03 00 06 	bg r8,r3,86c0fc <mdio_read+0xc0>
  86c0e8:	2b 84 00 0c 	lw r4,(sp+12)
  86c0ec:	34 84 00 01 	addi r4,r4,1
  86c0f0:	5b 84 00 0c 	sw (sp+12),r4
  86c0f4:	2b 84 00 0c 	lw r4,(sp+12)
  86c0f8:	4c 64 ff fc 	bge r3,r4,86c0e8 <mdio_read+0xac>
  86c0fc:	58 e9 00 00 	sw (r7+0),r9
  86c100:	5b 80 00 0c 	sw (sp+12),r0
  86c104:	2b 88 00 0c 	lw r8,(sp+12)
  86c108:	49 03 ff ef 	bg r8,r3,86c0c4 <mdio_read+0x88>
  86c10c:	2b 84 00 0c 	lw r4,(sp+12)
  86c110:	34 84 00 01 	addi r4,r4,1
  86c114:	5b 84 00 0c 	sw (sp+12),r4
  86c118:	2b 84 00 0c 	lw r4,(sp+12)
  86c11c:	4c 64 ff fc 	bge r3,r4,86c10c <mdio_read+0xd0>
  86c120:	34 a5 ff ff 	addi r5,r5,-1
  86c124:	5c a0 ff ea 	bne r5,r0,86c0cc <mdio_read+0x90>
  86c128:	78 04 00 87 	mvhi r4,0x87
  86c12c:	38 84 15 34 	ori r4,r4,0x1534
  86c130:	78 06 60 00 	mvhi r6,0x6000
  86c134:	34 05 00 04 	mvi r5,4
  86c138:	28 87 00 00 	lw r7,(r4+0)
  86c13c:	34 0a 00 0c 	mvi r10,12
  86c140:	34 03 03 e7 	mvi r3,999
  86c144:	34 09 00 04 	mvi r9,4
  86c148:	34 0c 00 0d 	mvi r12,13
  86c14c:	34 0b 00 05 	mvi r11,5
  86c150:	4c c0 00 18 	bge r6,r0,86c1b0 <mdio_read+0x174>
  86c154:	58 ec 00 00 	sw (r7+0),r12
  86c158:	5b 80 00 0c 	sw (sp+12),r0
  86c15c:	2b 88 00 0c 	lw r8,(sp+12)
  86c160:	49 03 00 06 	bg r8,r3,86c178 <mdio_read+0x13c>
  86c164:	2b 84 00 0c 	lw r4,(sp+12)
  86c168:	34 84 00 01 	addi r4,r4,1
  86c16c:	5b 84 00 0c 	sw (sp+12),r4
  86c170:	2b 84 00 0c 	lw r4,(sp+12)
  86c174:	4c 64 ff fc 	bge r3,r4,86c164 <mdio_read+0x128>
  86c178:	58 eb 00 00 	sw (r7+0),r11
  86c17c:	5b 80 00 0c 	sw (sp+12),r0
  86c180:	2b 88 00 0c 	lw r8,(sp+12)
  86c184:	49 03 00 06 	bg r8,r3,86c19c <mdio_read+0x160>
  86c188:	2b 84 00 0c 	lw r4,(sp+12)
  86c18c:	34 84 00 01 	addi r4,r4,1
  86c190:	5b 84 00 0c 	sw (sp+12),r4
  86c194:	2b 84 00 0c 	lw r4,(sp+12)
  86c198:	4c 64 ff fc 	bge r3,r4,86c188 <mdio_read+0x14c>
  86c19c:	34 a5 ff ff 	addi r5,r5,-1
  86c1a0:	44 a0 00 18 	be r5,r0,86c200 <mdio_read+0x1c4>
  86c1a4:	3c c6 00 01 	sli r6,r6,1
  86c1a8:	4c c0 00 02 	bge r6,r0,86c1b0 <mdio_read+0x174>
  86c1ac:	e3 ff ff ea 	bi 86c154 <mdio_read+0x118>
  86c1b0:	58 ea 00 00 	sw (r7+0),r10
  86c1b4:	5b 80 00 0c 	sw (sp+12),r0
  86c1b8:	2b 88 00 0c 	lw r8,(sp+12)
  86c1bc:	49 03 00 06 	bg r8,r3,86c1d4 <mdio_read+0x198>
  86c1c0:	2b 84 00 0c 	lw r4,(sp+12)
  86c1c4:	34 84 00 01 	addi r4,r4,1
  86c1c8:	5b 84 00 0c 	sw (sp+12),r4
  86c1cc:	2b 84 00 0c 	lw r4,(sp+12)
  86c1d0:	4c 64 ff fc 	bge r3,r4,86c1c0 <mdio_read+0x184>
  86c1d4:	58 e9 00 00 	sw (r7+0),r9
  86c1d8:	5b 80 00 0c 	sw (sp+12),r0
  86c1dc:	2b 88 00 0c 	lw r8,(sp+12)
  86c1e0:	49 03 ff ef 	bg r8,r3,86c19c <mdio_read+0x160>
  86c1e4:	2b 84 00 0c 	lw r4,(sp+12)
  86c1e8:	34 84 00 01 	addi r4,r4,1
  86c1ec:	5b 84 00 0c 	sw (sp+12),r4
  86c1f0:	2b 84 00 0c 	lw r4,(sp+12)
  86c1f4:	4c 64 ff fc 	bge r3,r4,86c1e4 <mdio_read+0x1a8>
  86c1f8:	34 a5 ff ff 	addi r5,r5,-1
  86c1fc:	5c a0 ff ea 	bne r5,r0,86c1a4 <mdio_read+0x168>
  86c200:	78 03 00 87 	mvhi r3,0x87
  86c204:	3c 25 00 1b 	sli r5,r1,27
  86c208:	38 63 15 34 	ori r3,r3,0x1534
  86c20c:	28 66 00 00 	lw r6,(r3+0)
  86c210:	34 04 00 05 	mvi r4,5
  86c214:	34 08 00 0c 	mvi r8,12
  86c218:	34 01 03 e7 	mvi r1,999
  86c21c:	34 07 00 04 	mvi r7,4
  86c220:	34 0a 00 0d 	mvi r10,13
  86c224:	34 09 00 05 	mvi r9,5
  86c228:	4c a0 00 18 	bge r5,r0,86c288 <mdio_read+0x24c>
  86c22c:	58 ca 00 00 	sw (r6+0),r10
  86c230:	5b 80 00 0c 	sw (sp+12),r0
  86c234:	2b 83 00 0c 	lw r3,(sp+12)
  86c238:	48 61 00 06 	bg r3,r1,86c250 <mdio_read+0x214>
  86c23c:	2b 83 00 0c 	lw r3,(sp+12)
  86c240:	34 63 00 01 	addi r3,r3,1
  86c244:	5b 83 00 0c 	sw (sp+12),r3
  86c248:	2b 83 00 0c 	lw r3,(sp+12)
  86c24c:	4c 23 ff fc 	bge r1,r3,86c23c <mdio_read+0x200>
  86c250:	58 c9 00 00 	sw (r6+0),r9
  86c254:	5b 80 00 0c 	sw (sp+12),r0
  86c258:	2b 83 00 0c 	lw r3,(sp+12)
  86c25c:	48 61 00 06 	bg r3,r1,86c274 <mdio_read+0x238>
  86c260:	2b 83 00 0c 	lw r3,(sp+12)
  86c264:	34 63 00 01 	addi r3,r3,1
  86c268:	5b 83 00 0c 	sw (sp+12),r3
  86c26c:	2b 83 00 0c 	lw r3,(sp+12)
  86c270:	4c 23 ff fc 	bge r1,r3,86c260 <mdio_read+0x224>
  86c274:	34 84 ff ff 	addi r4,r4,-1
  86c278:	44 80 00 18 	be r4,r0,86c2d8 <mdio_read+0x29c>
  86c27c:	3c a5 00 01 	sli r5,r5,1
  86c280:	4c a0 00 02 	bge r5,r0,86c288 <mdio_read+0x24c>
  86c284:	e3 ff ff ea 	bi 86c22c <mdio_read+0x1f0>
  86c288:	58 c8 00 00 	sw (r6+0),r8
  86c28c:	5b 80 00 0c 	sw (sp+12),r0
  86c290:	2b 83 00 0c 	lw r3,(sp+12)
  86c294:	48 61 00 06 	bg r3,r1,86c2ac <mdio_read+0x270>
  86c298:	2b 83 00 0c 	lw r3,(sp+12)
  86c29c:	34 63 00 01 	addi r3,r3,1
  86c2a0:	5b 83 00 0c 	sw (sp+12),r3
  86c2a4:	2b 83 00 0c 	lw r3,(sp+12)
  86c2a8:	4c 23 ff fc 	bge r1,r3,86c298 <mdio_read+0x25c>
  86c2ac:	58 c7 00 00 	sw (r6+0),r7
  86c2b0:	5b 80 00 0c 	sw (sp+12),r0
  86c2b4:	2b 83 00 0c 	lw r3,(sp+12)
  86c2b8:	48 61 ff ef 	bg r3,r1,86c274 <mdio_read+0x238>
  86c2bc:	2b 83 00 0c 	lw r3,(sp+12)
  86c2c0:	34 63 00 01 	addi r3,r3,1
  86c2c4:	5b 83 00 0c 	sw (sp+12),r3
  86c2c8:	2b 83 00 0c 	lw r3,(sp+12)
  86c2cc:	4c 23 ff fc 	bge r1,r3,86c2bc <mdio_read+0x280>
  86c2d0:	34 84 ff ff 	addi r4,r4,-1
  86c2d4:	5c 80 ff ea 	bne r4,r0,86c27c <mdio_read+0x240>
  86c2d8:	78 04 00 87 	mvhi r4,0x87
  86c2dc:	38 84 15 34 	ori r4,r4,0x1534
  86c2e0:	28 85 00 00 	lw r5,(r4+0)
  86c2e4:	3c 44 00 1b 	sli r4,r2,27
  86c2e8:	34 03 00 05 	mvi r3,5
  86c2ec:	34 07 00 0c 	mvi r7,12
  86c2f0:	34 01 03 e7 	mvi r1,999
  86c2f4:	34 06 00 04 	mvi r6,4
  86c2f8:	34 09 00 0d 	mvi r9,13
  86c2fc:	34 08 00 05 	mvi r8,5
  86c300:	4c 80 00 18 	bge r4,r0,86c360 <mdio_read+0x324>
  86c304:	58 a9 00 00 	sw (r5+0),r9
  86c308:	5b 80 00 0c 	sw (sp+12),r0
  86c30c:	2b 82 00 0c 	lw r2,(sp+12)
  86c310:	48 41 00 06 	bg r2,r1,86c328 <mdio_read+0x2ec>
  86c314:	2b 82 00 0c 	lw r2,(sp+12)
  86c318:	34 42 00 01 	addi r2,r2,1
  86c31c:	5b 82 00 0c 	sw (sp+12),r2
  86c320:	2b 82 00 0c 	lw r2,(sp+12)
  86c324:	4c 22 ff fc 	bge r1,r2,86c314 <mdio_read+0x2d8>
  86c328:	58 a8 00 00 	sw (r5+0),r8
  86c32c:	5b 80 00 0c 	sw (sp+12),r0
  86c330:	2b 82 00 0c 	lw r2,(sp+12)
  86c334:	48 41 00 06 	bg r2,r1,86c34c <mdio_read+0x310>
  86c338:	2b 82 00 0c 	lw r2,(sp+12)
  86c33c:	34 42 00 01 	addi r2,r2,1
  86c340:	5b 82 00 0c 	sw (sp+12),r2
  86c344:	2b 82 00 0c 	lw r2,(sp+12)
  86c348:	4c 22 ff fc 	bge r1,r2,86c338 <mdio_read+0x2fc>
  86c34c:	34 63 ff ff 	addi r3,r3,-1
  86c350:	44 60 00 18 	be r3,r0,86c3b0 <mdio_read+0x374>
  86c354:	3c 84 00 01 	sli r4,r4,1
  86c358:	4c 80 00 02 	bge r4,r0,86c360 <mdio_read+0x324>
  86c35c:	e3 ff ff ea 	bi 86c304 <mdio_read+0x2c8>
  86c360:	58 a7 00 00 	sw (r5+0),r7
  86c364:	5b 80 00 0c 	sw (sp+12),r0
  86c368:	2b 82 00 0c 	lw r2,(sp+12)
  86c36c:	48 41 00 06 	bg r2,r1,86c384 <mdio_read+0x348>
  86c370:	2b 82 00 0c 	lw r2,(sp+12)
  86c374:	34 42 00 01 	addi r2,r2,1
  86c378:	5b 82 00 0c 	sw (sp+12),r2
  86c37c:	2b 82 00 0c 	lw r2,(sp+12)
  86c380:	4c 22 ff fc 	bge r1,r2,86c370 <mdio_read+0x334>
  86c384:	58 a6 00 00 	sw (r5+0),r6
  86c388:	5b 80 00 0c 	sw (sp+12),r0
  86c38c:	2b 82 00 0c 	lw r2,(sp+12)
  86c390:	48 41 ff ef 	bg r2,r1,86c34c <mdio_read+0x310>
  86c394:	2b 82 00 0c 	lw r2,(sp+12)
  86c398:	34 42 00 01 	addi r2,r2,1
  86c39c:	5b 82 00 0c 	sw (sp+12),r2
  86c3a0:	2b 82 00 0c 	lw r2,(sp+12)
  86c3a4:	4c 22 ff fc 	bge r1,r2,86c394 <mdio_read+0x358>
  86c3a8:	34 63 ff ff 	addi r3,r3,-1
  86c3ac:	5c 60 ff ea 	bne r3,r0,86c354 <mdio_read+0x318>
  86c3b0:	78 03 00 87 	mvhi r3,0x87
  86c3b4:	38 63 15 34 	ori r3,r3,0x1534
  86c3b8:	28 61 00 00 	lw r1,(r3+0)
  86c3bc:	34 02 00 08 	mvi r2,8
  86c3c0:	58 22 00 00 	sw (r1+0),r2
  86c3c4:	5b 80 00 0c 	sw (sp+12),r0
  86c3c8:	2b 82 00 0c 	lw r2,(sp+12)
  86c3cc:	34 01 03 e7 	mvi r1,999
  86c3d0:	48 41 00 07 	bg r2,r1,86c3ec <mdio_read+0x3b0>
  86c3d4:	34 02 03 e7 	mvi r2,999
  86c3d8:	2b 81 00 0c 	lw r1,(sp+12)
  86c3dc:	34 21 00 01 	addi r1,r1,1
  86c3e0:	5b 81 00 0c 	sw (sp+12),r1
  86c3e4:	2b 81 00 0c 	lw r1,(sp+12)
  86c3e8:	4c 41 ff fc 	bge r2,r1,86c3d8 <mdio_read+0x39c>
  86c3ec:	78 04 00 87 	mvhi r4,0x87
  86c3f0:	38 84 15 34 	ori r4,r4,0x1534
  86c3f4:	28 81 00 00 	lw r1,(r4+0)
  86c3f8:	58 20 00 00 	sw (r1+0),r0
  86c3fc:	5b 80 00 0c 	sw (sp+12),r0
  86c400:	2b 82 00 0c 	lw r2,(sp+12)
  86c404:	34 01 03 e7 	mvi r1,999
  86c408:	48 41 00 07 	bg r2,r1,86c424 <mdio_read+0x3e8>
  86c40c:	34 02 03 e7 	mvi r2,999
  86c410:	2b 81 00 0c 	lw r1,(sp+12)
  86c414:	34 21 00 01 	addi r1,r1,1
  86c418:	5b 81 00 0c 	sw (sp+12),r1
  86c41c:	2b 81 00 0c 	lw r1,(sp+12)
  86c420:	4c 41 ff fc 	bge r2,r1,86c410 <mdio_read+0x3d4>
  86c424:	78 03 00 87 	mvhi r3,0x87
  86c428:	38 63 15 34 	ori r3,r3,0x1534
  86c42c:	28 61 00 00 	lw r1,(r3+0)
  86c430:	34 02 00 08 	mvi r2,8
  86c434:	58 22 00 00 	sw (r1+0),r2
  86c438:	5b 80 00 0c 	sw (sp+12),r0
  86c43c:	2b 82 00 0c 	lw r2,(sp+12)
  86c440:	34 01 03 e7 	mvi r1,999
  86c444:	48 41 00 07 	bg r2,r1,86c460 <mdio_read+0x424>
  86c448:	34 02 03 e7 	mvi r2,999
  86c44c:	2b 81 00 0c 	lw r1,(sp+12)
  86c450:	34 21 00 01 	addi r1,r1,1
  86c454:	5b 81 00 0c 	sw (sp+12),r1
  86c458:	2b 81 00 0c 	lw r1,(sp+12)
  86c45c:	4c 41 ff fc 	bge r2,r1,86c44c <mdio_read+0x410>
  86c460:	78 04 00 87 	mvhi r4,0x87
  86c464:	38 84 15 34 	ori r4,r4,0x1534
  86c468:	28 81 00 00 	lw r1,(r4+0)
  86c46c:	58 20 00 00 	sw (r1+0),r0
  86c470:	5b 80 00 0c 	sw (sp+12),r0
  86c474:	2b 82 00 0c 	lw r2,(sp+12)
  86c478:	34 01 03 e7 	mvi r1,999
  86c47c:	48 41 00 07 	bg r2,r1,86c498 <mdio_read+0x45c>
  86c480:	34 02 03 e7 	mvi r2,999
  86c484:	2b 81 00 0c 	lw r1,(sp+12)
  86c488:	34 21 00 01 	addi r1,r1,1
  86c48c:	5b 81 00 0c 	sw (sp+12),r1
  86c490:	2b 81 00 0c 	lw r1,(sp+12)
  86c494:	4c 41 ff fc 	bge r2,r1,86c484 <mdio_read+0x448>
  86c498:	78 02 00 87 	mvhi r2,0x87
  86c49c:	38 42 15 34 	ori r2,r2,0x1534
  86c4a0:	28 44 00 00 	lw r4,(r2+0)
  86c4a4:	34 05 00 10 	mvi r5,16
  86c4a8:	34 01 00 00 	mvi r1,0
  86c4ac:	34 06 00 08 	mvi r6,8
  86c4b0:	34 02 03 e7 	mvi r2,999
  86c4b4:	58 86 00 00 	sw (r4+0),r6
  86c4b8:	5b 80 00 0c 	sw (sp+12),r0
  86c4bc:	2b 83 00 0c 	lw r3,(sp+12)
  86c4c0:	3c 21 00 01 	sli r1,r1,1
  86c4c4:	48 62 00 06 	bg r3,r2,86c4dc <mdio_read+0x4a0>
  86c4c8:	2b 83 00 0c 	lw r3,(sp+12)
  86c4cc:	34 63 00 01 	addi r3,r3,1
  86c4d0:	5b 83 00 0c 	sw (sp+12),r3
  86c4d4:	2b 83 00 0c 	lw r3,(sp+12)
  86c4d8:	4c 43 ff fc 	bge r2,r3,86c4c8 <mdio_read+0x48c>
  86c4dc:	58 80 00 00 	sw (r4+0),r0
  86c4e0:	5b 80 00 0c 	sw (sp+12),r0
  86c4e4:	2b 83 00 0c 	lw r3,(sp+12)
  86c4e8:	48 62 00 06 	bg r3,r2,86c500 <mdio_read+0x4c4>
  86c4ec:	2b 83 00 0c 	lw r3,(sp+12)
  86c4f0:	34 63 00 01 	addi r3,r3,1
  86c4f4:	5b 83 00 0c 	sw (sp+12),r3
  86c4f8:	2b 83 00 0c 	lw r3,(sp+12)
  86c4fc:	4c 43 ff fc 	bge r2,r3,86c4ec <mdio_read+0x4b0>
  86c500:	28 83 00 00 	lw r3,(r4+0)
  86c504:	20 63 00 02 	andi r3,r3,0x2
  86c508:	44 60 00 02 	be r3,r0,86c510 <mdio_read+0x4d4>
  86c50c:	38 21 00 01 	ori r1,r1,0x1
  86c510:	34 a5 ff ff 	addi r5,r5,-1
  86c514:	5c a0 ff e8 	bne r5,r0,86c4b4 <mdio_read+0x478>
  86c518:	78 04 00 87 	mvhi r4,0x87
  86c51c:	38 84 15 34 	ori r4,r4,0x1534
  86c520:	28 82 00 00 	lw r2,(r4+0)
  86c524:	34 03 00 08 	mvi r3,8
  86c528:	58 43 00 00 	sw (r2+0),r3
  86c52c:	5b 80 00 0c 	sw (sp+12),r0
  86c530:	2b 83 00 0c 	lw r3,(sp+12)
  86c534:	34 02 03 e7 	mvi r2,999
  86c538:	48 62 00 07 	bg r3,r2,86c554 <mdio_read+0x518>
  86c53c:	34 03 03 e7 	mvi r3,999
  86c540:	2b 82 00 0c 	lw r2,(sp+12)
  86c544:	34 42 00 01 	addi r2,r2,1
  86c548:	5b 82 00 0c 	sw (sp+12),r2
  86c54c:	2b 82 00 0c 	lw r2,(sp+12)
  86c550:	4c 62 ff fc 	bge r3,r2,86c540 <mdio_read+0x504>
  86c554:	78 03 00 87 	mvhi r3,0x87
  86c558:	38 63 15 34 	ori r3,r3,0x1534
  86c55c:	28 62 00 00 	lw r2,(r3+0)
  86c560:	58 40 00 00 	sw (r2+0),r0
  86c564:	5b 80 00 0c 	sw (sp+12),r0
  86c568:	2b 83 00 0c 	lw r3,(sp+12)
  86c56c:	34 02 03 e7 	mvi r2,999
  86c570:	48 62 00 07 	bg r3,r2,86c58c <mdio_read+0x550>
  86c574:	34 03 03 e7 	mvi r3,999
  86c578:	2b 82 00 0c 	lw r2,(sp+12)
  86c57c:	34 42 00 01 	addi r2,r2,1
  86c580:	5b 82 00 0c 	sw (sp+12),r2
  86c584:	2b 82 00 0c 	lw r2,(sp+12)
  86c588:	4c 62 ff fc 	bge r3,r2,86c578 <mdio_read+0x53c>
  86c58c:	78 04 00 87 	mvhi r4,0x87
  86c590:	38 84 15 34 	ori r4,r4,0x1534
  86c594:	28 82 00 00 	lw r2,(r4+0)
  86c598:	34 03 00 08 	mvi r3,8
  86c59c:	58 43 00 00 	sw (r2+0),r3
  86c5a0:	5b 80 00 0c 	sw (sp+12),r0
  86c5a4:	2b 83 00 0c 	lw r3,(sp+12)
  86c5a8:	34 02 03 e7 	mvi r2,999
  86c5ac:	48 62 00 07 	bg r3,r2,86c5c8 <mdio_read+0x58c>
  86c5b0:	34 03 03 e7 	mvi r3,999
  86c5b4:	2b 82 00 0c 	lw r2,(sp+12)
  86c5b8:	34 42 00 01 	addi r2,r2,1
  86c5bc:	5b 82 00 0c 	sw (sp+12),r2
  86c5c0:	2b 82 00 0c 	lw r2,(sp+12)
  86c5c4:	4c 62 ff fc 	bge r3,r2,86c5b4 <mdio_read+0x578>
  86c5c8:	78 03 00 87 	mvhi r3,0x87
  86c5cc:	38 63 15 34 	ori r3,r3,0x1534
  86c5d0:	28 62 00 00 	lw r2,(r3+0)
  86c5d4:	58 40 00 00 	sw (r2+0),r0
  86c5d8:	5b 80 00 0c 	sw (sp+12),r0
  86c5dc:	2b 83 00 0c 	lw r3,(sp+12)
  86c5e0:	34 02 03 e7 	mvi r2,999
  86c5e4:	48 62 00 07 	bg r3,r2,86c600 <mdio_read+0x5c4>
  86c5e8:	34 03 03 e7 	mvi r3,999
  86c5ec:	2b 82 00 0c 	lw r2,(sp+12)
  86c5f0:	34 42 00 01 	addi r2,r2,1
  86c5f4:	5b 82 00 0c 	sw (sp+12),r2
  86c5f8:	2b 82 00 0c 	lw r2,(sp+12)
  86c5fc:	4c 62 ff fc 	bge r3,r2,86c5ec <mdio_read+0x5b0>
  86c600:	2b 8b 00 08 	lw r11,(sp+8)
  86c604:	2b 8c 00 04 	lw r12,(sp+4)
  86c608:	37 9c 00 0c 	addi sp,sp,12
  86c60c:	c3 a0 00 00 	ret

0086c610 <process_frame>:
  86c610:	37 9c ff e8 	addi sp,sp,-24
  86c614:	5b 8b 00 18 	sw (sp+24),r11
  86c618:	5b 8c 00 14 	sw (sp+20),r12
  86c61c:	5b 8d 00 10 	sw (sp+16),r13
  86c620:	5b 8e 00 0c 	sw (sp+12),r14
  86c624:	5b 8f 00 08 	sw (sp+8),r15
  86c628:	5b 9d 00 04 	sw (sp+4),ra
  86c62c:	78 0b 40 66 	mvhi r11,0x4066
  86c630:	fb ff e7 4c 	calli 866360 <flush_cpu_dcache>
  86c634:	39 6b 16 28 	ori r11,r11,0x1628
  86c638:	29 63 00 00 	lw r3,(r11+0)
  86c63c:	34 02 00 55 	mvi r2,85
  86c640:	40 61 00 00 	lbu r1,(r3+0)
  86c644:	5c 22 00 10 	bne r1,r2,86c684 <process_frame+0x74>
  86c648:	40 62 00 01 	lbu r2,(r3+1)
  86c64c:	5c 41 00 0e 	bne r2,r1,86c684 <process_frame+0x74>
  86c650:	40 61 00 02 	lbu r1,(r3+2)
  86c654:	5c 22 00 0c 	bne r1,r2,86c684 <process_frame+0x74>
  86c658:	40 62 00 03 	lbu r2,(r3+3)
  86c65c:	5c 41 00 0a 	bne r2,r1,86c684 <process_frame+0x74>
  86c660:	40 61 00 04 	lbu r1,(r3+4)
  86c664:	5c 22 00 08 	bne r1,r2,86c684 <process_frame+0x74>
  86c668:	40 62 00 05 	lbu r2,(r3+5)
  86c66c:	5c 41 00 06 	bne r2,r1,86c684 <process_frame+0x74>
  86c670:	40 61 00 06 	lbu r1,(r3+6)
  86c674:	5c 22 00 04 	bne r1,r2,86c684 <process_frame+0x74>
  86c678:	40 62 00 07 	lbu r2,(r3+7)
  86c67c:	34 01 00 d5 	mvi r1,213
  86c680:	44 41 00 09 	be r2,r1,86c6a4 <process_frame+0x94>
  86c684:	2b 9d 00 04 	lw ra,(sp+4)
  86c688:	2b 8b 00 18 	lw r11,(sp+24)
  86c68c:	2b 8c 00 14 	lw r12,(sp+20)
  86c690:	2b 8d 00 10 	lw r13,(sp+16)
  86c694:	2b 8e 00 0c 	lw r14,(sp+12)
  86c698:	2b 8f 00 08 	lw r15,(sp+8)
  86c69c:	37 9c 00 18 	addi sp,sp,24
  86c6a0:	c3 a0 00 00 	ret
  86c6a4:	78 0c 40 66 	mvhi r12,0x4066
  86c6a8:	39 8c 16 20 	ori r12,r12,0x1620
  86c6ac:	29 82 00 00 	lw r2,(r12+0)
  86c6b0:	34 61 00 08 	addi r1,r3,8
  86c6b4:	b4 62 18 00 	add r3,r3,r2
  86c6b8:	40 6d ff ff 	lbu r13,(r3+-1)
  86c6bc:	40 66 ff fe 	lbu r6,(r3+-2)
  86c6c0:	40 65 ff fd 	lbu r5,(r3+-3)
  86c6c4:	40 64 ff fc 	lbu r4,(r3+-4)
  86c6c8:	3d ad 00 18 	sli r13,r13,24
  86c6cc:	3c c6 00 10 	sli r6,r6,16
  86c6d0:	3c a3 00 08 	sli r3,r5,8
  86c6d4:	b9 a6 68 00 	or r13,r13,r6
  86c6d8:	b9 a4 68 00 	or r13,r13,r4
  86c6dc:	34 42 ff f4 	addi r2,r2,-12
  86c6e0:	b9 a3 68 00 	or r13,r13,r3
  86c6e4:	fb ff e2 b6 	calli 8651bc <crc32>
  86c6e8:	5d a1 ff e7 	bne r13,r1,86c684 <process_frame+0x74>
  86c6ec:	29 81 00 00 	lw r1,(r12+0)
  86c6f0:	29 64 00 00 	lw r4,(r11+0)
  86c6f4:	34 21 ff fc 	addi r1,r1,-4
  86c6f8:	59 81 00 00 	sw (r12+0),r1
  86c6fc:	40 82 00 14 	lbu r2,(r4+20)
  86c700:	40 83 00 15 	lbu r3,(r4+21)
  86c704:	3c 42 00 08 	sli r2,r2,8
  86c708:	b8 62 10 00 	or r2,r3,r2
  86c70c:	34 03 08 06 	mvi r3,2054
  86c710:	44 43 00 3f 	be r2,r3,86c80c <process_frame+0x1fc>
  86c714:	34 03 08 00 	mvi r3,2048
  86c718:	5c 43 ff db 	bne r2,r3,86c684 <process_frame+0x74>
  86c71c:	34 02 00 31 	mvi r2,49
  86c720:	50 41 ff d9 	bgeu r2,r1,86c684 <process_frame+0x74>
  86c724:	40 82 00 16 	lbu r2,(r4+22)
  86c728:	34 01 00 45 	mvi r1,69
  86c72c:	5c 41 ff d6 	bne r2,r1,86c684 <process_frame+0x74>
  86c730:	40 81 00 18 	lbu r1,(r4+24)
  86c734:	40 82 00 19 	lbu r2,(r4+25)
  86c738:	3c 21 00 08 	sli r1,r1,8
  86c73c:	b8 41 08 00 	or r1,r2,r1
  86c740:	34 02 00 1b 	mvi r2,27
  86c744:	50 41 ff d0 	bgeu r2,r1,86c684 <process_frame+0x74>
  86c748:	40 82 00 1f 	lbu r2,(r4+31)
  86c74c:	34 01 00 11 	mvi r1,17
  86c750:	5c 41 ff cd 	bne r2,r1,86c684 <process_frame+0x74>
  86c754:	40 82 00 26 	lbu r2,(r4+38)
  86c758:	40 86 00 27 	lbu r6,(r4+39)
  86c75c:	40 85 00 28 	lbu r5,(r4+40)
  86c760:	3c 42 00 18 	sli r2,r2,24
  86c764:	3c c6 00 10 	sli r6,r6,16
  86c768:	78 01 40 66 	mvhi r1,0x4066
  86c76c:	3c a5 00 08 	sli r5,r5,8
  86c770:	40 83 00 29 	lbu r3,(r4+41)
  86c774:	38 21 16 3c 	ori r1,r1,0x163c
  86c778:	b8 c2 10 00 	or r2,r6,r2
  86c77c:	28 21 00 00 	lw r1,(r1+0)
  86c780:	b8 a2 10 00 	or r2,r5,r2
  86c784:	b8 62 10 00 	or r2,r3,r2
  86c788:	5c 41 ff bf 	bne r2,r1,86c684 <process_frame+0x74>
  86c78c:	40 81 00 2e 	lbu r1,(r4+46)
  86c790:	40 85 00 2f 	lbu r5,(r4+47)
  86c794:	3c 21 00 08 	sli r1,r1,8
  86c798:	b8 a1 28 00 	or r5,r5,r1
  86c79c:	34 01 00 07 	mvi r1,7
  86c7a0:	50 25 ff b9 	bgeu r1,r5,86c684 <process_frame+0x74>
  86c7a4:	78 01 40 66 	mvhi r1,0x4066
  86c7a8:	38 21 16 50 	ori r1,r1,0x1650
  86c7ac:	28 26 00 00 	lw r6,(r1+0)
  86c7b0:	44 c0 ff b5 	be r6,r0,86c684 <process_frame+0x74>
  86c7b4:	40 81 00 22 	lbu r1,(r4+34)
  86c7b8:	40 8b 00 23 	lbu r11,(r4+35)
  86c7bc:	40 8a 00 24 	lbu r10,(r4+36)
  86c7c0:	40 82 00 2a 	lbu r2,(r4+42)
  86c7c4:	40 83 00 2c 	lbu r3,(r4+44)
  86c7c8:	3d 6b 00 10 	sli r11,r11,16
  86c7cc:	3c 21 00 18 	sli r1,r1,24
  86c7d0:	40 89 00 25 	lbu r9,(r4+37)
  86c7d4:	40 88 00 2b 	lbu r8,(r4+43)
  86c7d8:	40 87 00 2d 	lbu r7,(r4+45)
  86c7dc:	3d 4a 00 08 	sli r10,r10,8
  86c7e0:	b9 61 08 00 	or r1,r11,r1
  86c7e4:	3c 42 00 08 	sli r2,r2,8
  86c7e8:	3c 63 00 08 	sli r3,r3,8
  86c7ec:	b9 41 08 00 	or r1,r10,r1
  86c7f0:	b9 21 08 00 	or r1,r9,r1
  86c7f4:	b9 02 10 00 	or r2,r8,r2
  86c7f8:	b8 e3 18 00 	or r3,r7,r3
  86c7fc:	34 84 00 32 	addi r4,r4,50
  86c800:	34 a5 ff f8 	addi r5,r5,-8
  86c804:	d8 c0 00 00 	call r6
  86c808:	e3 ff ff 9f 	bi 86c684 <process_frame+0x74>
  86c80c:	34 02 00 43 	mvi r2,67
  86c810:	4c 41 ff 9d 	bge r2,r1,86c684 <process_frame+0x74>
  86c814:	40 81 00 16 	lbu r1,(r4+22)
  86c818:	40 82 00 17 	lbu r2,(r4+23)
  86c81c:	3c 21 00 08 	sli r1,r1,8
  86c820:	b8 41 08 00 	or r1,r2,r1
  86c824:	34 02 00 01 	mvi r2,1
  86c828:	5c 22 ff 97 	bne r1,r2,86c684 <process_frame+0x74>
  86c82c:	40 82 00 18 	lbu r2,(r4+24)
  86c830:	40 83 00 19 	lbu r3,(r4+25)
  86c834:	3c 42 00 08 	sli r2,r2,8
  86c838:	b8 62 18 00 	or r3,r3,r2
  86c83c:	34 02 08 00 	mvi r2,2048
  86c840:	5c 62 ff 91 	bne r3,r2,86c684 <process_frame+0x74>
  86c844:	40 83 00 1a 	lbu r3,(r4+26)
  86c848:	34 02 00 06 	mvi r2,6
  86c84c:	5c 62 ff 8e 	bne r3,r2,86c684 <process_frame+0x74>
  86c850:	40 83 00 1b 	lbu r3,(r4+27)
  86c854:	34 02 00 04 	mvi r2,4
  86c858:	5c 62 ff 8b 	bne r3,r2,86c684 <process_frame+0x74>
  86c85c:	40 82 00 1c 	lbu r2,(r4+28)
  86c860:	40 83 00 1d 	lbu r3,(r4+29)
  86c864:	3c 42 00 08 	sli r2,r2,8
  86c868:	b8 62 10 00 	or r2,r3,r2
  86c86c:	34 03 00 02 	mvi r3,2
  86c870:	44 43 00 85 	be r2,r3,86ca84 <process_frame+0x474>
  86c874:	5c 41 ff 84 	bne r2,r1,86c684 <process_frame+0x74>
  86c878:	40 82 00 2e 	lbu r2,(r4+46)
  86c87c:	40 86 00 2f 	lbu r6,(r4+47)
  86c880:	40 85 00 30 	lbu r5,(r4+48)
  86c884:	3c 42 00 18 	sli r2,r2,24
  86c888:	3c c6 00 10 	sli r6,r6,16
  86c88c:	78 01 40 66 	mvhi r1,0x4066
  86c890:	3c a5 00 08 	sli r5,r5,8
  86c894:	40 83 00 31 	lbu r3,(r4+49)
  86c898:	38 21 16 3c 	ori r1,r1,0x163c
  86c89c:	b8 c2 10 00 	or r2,r6,r2
  86c8a0:	28 21 00 00 	lw r1,(r1+0)
  86c8a4:	b8 a2 10 00 	or r2,r5,r2
  86c8a8:	b8 62 18 00 	or r3,r3,r2
  86c8ac:	5c 61 ff 76 	bne r3,r1,86c684 <process_frame+0x74>
  86c8b0:	78 0c 40 66 	mvhi r12,0x4066
  86c8b4:	39 8c 16 40 	ori r12,r12,0x1640
  86c8b8:	29 81 00 00 	lw r1,(r12+0)
  86c8bc:	34 02 00 55 	mvi r2,85
  86c8c0:	b8 80 30 00 	mv r6,r4
  86c8c4:	30 22 00 00 	sb (r1+0),r2
  86c8c8:	30 22 00 01 	sb (r1+1),r2
  86c8cc:	30 22 00 02 	sb (r1+2),r2
  86c8d0:	30 22 00 03 	sb (r1+3),r2
  86c8d4:	30 22 00 04 	sb (r1+4),r2
  86c8d8:	30 22 00 05 	sb (r1+5),r2
  86c8dc:	30 22 00 06 	sb (r1+6),r2
  86c8e0:	34 02 ff d5 	mvi r2,-43
  86c8e4:	30 22 00 07 	sb (r1+7),r2
  86c8e8:	b8 20 38 00 	mv r7,r1
  86c8ec:	b8 20 40 00 	mv r8,r1
  86c8f0:	b8 80 10 00 	mv r2,r4
  86c8f4:	34 05 00 00 	mvi r5,0
  86c8f8:	34 09 00 06 	mvi r9,6
  86c8fc:	40 4a 00 1e 	lbu r10,(r2+30)
  86c900:	34 a5 00 01 	addi r5,r5,1
  86c904:	34 42 00 01 	addi r2,r2,1
  86c908:	31 0a 00 08 	sb (r8+8),r10
  86c90c:	35 08 00 01 	addi r8,r8,1
  86c910:	5c a9 ff fb 	bne r5,r9,86c8fc <process_frame+0x2ec>
  86c914:	78 02 40 66 	mvhi r2,0x4066
  86c918:	38 42 16 44 	ori r2,r2,0x1644
  86c91c:	34 49 00 06 	addi r9,r2,6
  86c920:	b8 20 40 00 	mv r8,r1
  86c924:	b8 40 28 00 	mv r5,r2
  86c928:	40 aa 00 00 	lbu r10,(r5+0)
  86c92c:	34 a5 00 01 	addi r5,r5,1
  86c930:	31 0a 00 0e 	sb (r8+14),r10
  86c934:	35 08 00 01 	addi r8,r8,1
  86c938:	5c a9 ff fc 	bne r5,r9,86c928 <process_frame+0x318>
  86c93c:	34 05 00 06 	mvi r5,6
  86c940:	34 08 00 08 	mvi r8,8
  86c944:	78 0b 40 66 	mvhi r11,0x4066
  86c948:	30 25 00 15 	sb (r1+21),r5
  86c94c:	00 6e 00 18 	srui r14,r3,24
  86c950:	00 6d 00 10 	srui r13,r3,16
  86c954:	00 6a 00 08 	srui r10,r3,8
  86c958:	34 0f 00 44 	mvi r15,68
  86c95c:	30 28 00 14 	sb (r1+20),r8
  86c960:	39 6b 16 4c 	ori r11,r11,0x164c
  86c964:	30 25 00 1a 	sb (r1+26),r5
  86c968:	34 05 00 04 	mvi r5,4
  86c96c:	59 6f 00 00 	sw (r11+0),r15
  86c970:	30 25 00 1b 	sb (r1+27),r5
  86c974:	34 0f 00 01 	mvi r15,1
  86c978:	34 05 00 02 	mvi r5,2
  86c97c:	30 23 00 27 	sb (r1+39),r3
  86c980:	30 20 00 16 	sb (r1+22),r0
  86c984:	30 2f 00 17 	sb (r1+23),r15
  86c988:	30 28 00 18 	sb (r1+24),r8
  86c98c:	30 20 00 19 	sb (r1+25),r0
  86c990:	30 20 00 1c 	sb (r1+28),r0
  86c994:	30 25 00 1d 	sb (r1+29),r5
  86c998:	30 2e 00 24 	sb (r1+36),r14
  86c99c:	30 2d 00 25 	sb (r1+37),r13
  86c9a0:	30 2a 00 26 	sb (r1+38),r10
  86c9a4:	b8 20 18 00 	mv r3,r1
  86c9a8:	40 45 00 00 	lbu r5,(r2+0)
  86c9ac:	34 42 00 01 	addi r2,r2,1
  86c9b0:	30 65 00 1e 	sb (r3+30),r5
  86c9b4:	34 63 00 01 	addi r3,r3,1
  86c9b8:	5c 49 ff fc 	bne r2,r9,86c9a8 <process_frame+0x398>
  86c9bc:	40 82 00 24 	lbu r2,(r4+36)
  86c9c0:	40 85 00 25 	lbu r5,(r4+37)
  86c9c4:	40 88 00 26 	lbu r8,(r4+38)
  86c9c8:	3c 42 00 18 	sli r2,r2,24
  86c9cc:	3c a5 00 10 	sli r5,r5,16
  86c9d0:	40 83 00 27 	lbu r3,(r4+39)
  86c9d4:	3d 04 00 08 	sli r4,r8,8
  86c9d8:	b8 a2 10 00 	or r2,r5,r2
  86c9dc:	b8 82 10 00 	or r2,r4,r2
  86c9e0:	b8 62 10 00 	or r2,r3,r2
  86c9e4:	00 43 00 08 	srui r3,r2,8
  86c9e8:	00 45 00 18 	srui r5,r2,24
  86c9ec:	00 44 00 10 	srui r4,r2,16
  86c9f0:	30 23 00 30 	sb (r1+48),r3
  86c9f4:	30 22 00 31 	sb (r1+49),r2
  86c9f8:	30 25 00 2e 	sb (r1+46),r5
  86c9fc:	30 24 00 2f 	sb (r1+47),r4
  86ca00:	34 02 00 00 	mvi r2,0
  86ca04:	34 03 00 06 	mvi r3,6
  86ca08:	40 c4 00 1e 	lbu r4,(r6+30)
  86ca0c:	34 42 00 01 	addi r2,r2,1
  86ca10:	34 c6 00 01 	addi r6,r6,1
  86ca14:	30 e4 00 28 	sb (r7+40),r4
  86ca18:	34 e7 00 01 	addi r7,r7,1
  86ca1c:	5c 43 ff fb 	bne r2,r3,86ca08 <process_frame+0x3f8>
  86ca20:	34 02 00 3c 	mvi r2,60
  86ca24:	34 21 00 08 	addi r1,r1,8
  86ca28:	fb ff e1 e5 	calli 8651bc <crc32>
  86ca2c:	29 63 00 00 	lw r3,(r11+0)
  86ca30:	29 82 00 00 	lw r2,(r12+0)
  86ca34:	00 26 00 08 	srui r6,r1,8
  86ca38:	00 25 00 10 	srui r5,r1,16
  86ca3c:	b4 43 10 00 	add r2,r2,r3
  86ca40:	30 41 00 00 	sb (r2+0),r1
  86ca44:	00 24 00 18 	srui r4,r1,24
  86ca48:	34 61 00 04 	addi r1,r3,4
  86ca4c:	78 03 00 87 	mvhi r3,0x87
  86ca50:	38 63 15 38 	ori r3,r3,0x1538
  86ca54:	30 46 00 01 	sb (r2+1),r6
  86ca58:	30 45 00 02 	sb (r2+2),r5
  86ca5c:	30 44 00 03 	sb (r2+3),r4
  86ca60:	28 62 00 00 	lw r2,(r3+0)
  86ca64:	59 61 00 00 	sw (r11+0),r1
  86ca68:	58 41 00 00 	sw (r2+0),r1
  86ca6c:	90 40 08 00 	rcsr r1,IP
  86ca70:	20 21 10 00 	andi r1,r1,0x1000
  86ca74:	44 20 ff fe 	be r1,r0,86ca6c <process_frame+0x45c>
  86ca78:	34 01 10 00 	mvi r1,4096
  86ca7c:	d0 41 00 00 	wcsr IP,r1
  86ca80:	e3 ff ff 01 	bi 86c684 <process_frame+0x74>
  86ca84:	40 82 00 24 	lbu r2,(r4+36)
  86ca88:	40 86 00 25 	lbu r6,(r4+37)
  86ca8c:	40 85 00 26 	lbu r5,(r4+38)
  86ca90:	3c 42 00 18 	sli r2,r2,24
  86ca94:	3c c6 00 10 	sli r6,r6,16
  86ca98:	78 01 40 66 	mvhi r1,0x4066
  86ca9c:	3c a5 00 08 	sli r5,r5,8
  86caa0:	40 83 00 27 	lbu r3,(r4+39)
  86caa4:	38 21 16 30 	ori r1,r1,0x1630
  86caa8:	b8 c2 10 00 	or r2,r6,r2
  86caac:	28 21 00 00 	lw r1,(r1+0)
  86cab0:	b8 a2 10 00 	or r2,r5,r2
  86cab4:	b8 62 10 00 	or r2,r3,r2
  86cab8:	5c 41 fe f3 	bne r2,r1,86c684 <process_frame+0x74>
  86cabc:	78 01 40 66 	mvhi r1,0x4066
  86cac0:	38 21 16 34 	ori r1,r1,0x1634
  86cac4:	34 22 00 06 	addi r2,r1,6
  86cac8:	40 83 00 1e 	lbu r3,(r4+30)
  86cacc:	34 84 00 01 	addi r4,r4,1
  86cad0:	30 23 00 00 	sb (r1+0),r3
  86cad4:	34 21 00 01 	addi r1,r1,1
  86cad8:	5c 22 ff fc 	bne r1,r2,86cac8 <process_frame+0x4b8>
  86cadc:	e3 ff fe ea 	bi 86c684 <process_frame+0x74>

0086cae0 <microudp_arp_resolve>:
  86cae0:	37 9c ff a8 	addi sp,sp,-88
  86cae4:	5b 8b 00 44 	sw (sp+68),r11
  86cae8:	5b 8c 00 40 	sw (sp+64),r12
  86caec:	5b 8d 00 3c 	sw (sp+60),r13
  86caf0:	5b 8e 00 38 	sw (sp+56),r14
  86caf4:	5b 8f 00 34 	sw (sp+52),r15
  86caf8:	5b 90 00 30 	sw (sp+48),r16
  86cafc:	5b 91 00 2c 	sw (sp+44),r17
  86cb00:	5b 92 00 28 	sw (sp+40),r18
  86cb04:	5b 93 00 24 	sw (sp+36),r19
  86cb08:	5b 94 00 20 	sw (sp+32),r20
  86cb0c:	5b 95 00 1c 	sw (sp+28),r21
  86cb10:	5b 96 00 18 	sw (sp+24),r22
  86cb14:	5b 97 00 14 	sw (sp+20),r23
  86cb18:	5b 98 00 10 	sw (sp+16),r24
  86cb1c:	5b 99 00 0c 	sw (sp+12),r25
  86cb20:	5b 9b 00 08 	sw (sp+8),fp
  86cb24:	5b 9d 00 04 	sw (sp+4),ra
  86cb28:	78 02 40 66 	mvhi r2,0x4066
  86cb2c:	38 42 16 30 	ori r2,r2,0x1630
  86cb30:	28 43 00 00 	lw r3,(r2+0)
  86cb34:	78 0f 40 66 	mvhi r15,0x4066
  86cb38:	39 ef 16 34 	ori r15,r15,0x1634
  86cb3c:	44 61 00 d9 	be r3,r1,86cea0 <microudp_arp_resolve+0x3c0>
  86cb40:	78 05 00 87 	mvhi r5,0x87
  86cb44:	00 24 00 10 	srui r4,r1,16
  86cb48:	00 23 00 08 	srui r3,r1,8
  86cb4c:	38 a5 15 3c 	ori r5,r5,0x153c
  86cb50:	28 bb 00 00 	lw fp,(r5+0)
  86cb54:	00 25 00 18 	srui r5,r1,24
  86cb58:	58 41 00 00 	sw (r2+0),r1
  86cb5c:	78 15 40 66 	mvhi r21,0x4066
  86cb60:	78 10 40 66 	mvhi r16,0x4066
  86cb64:	78 14 40 66 	mvhi r20,0x4066
  86cb68:	78 12 40 66 	mvhi r18,0x4066
  86cb6c:	78 19 40 66 	mvhi r25,0x4066
  86cb70:	78 18 40 66 	mvhi r24,0x4066
  86cb74:	78 17 40 66 	mvhi r23,0x4066
  86cb78:	78 16 40 66 	mvhi r22,0x4066
  86cb7c:	34 02 00 05 	mvi r2,5
  86cb80:	20 21 00 ff 	andi r1,r1,0xff
  86cb84:	20 84 00 ff 	andi r4,r4,0xff
  86cb88:	20 63 00 ff 	andi r3,r3,0xff
  86cb8c:	5b 85 00 4c 	sw (sp+76),r5
  86cb90:	31 e0 00 00 	sb (r15+0),r0
  86cb94:	31 e0 00 01 	sb (r15+1),r0
  86cb98:	31 e0 00 02 	sb (r15+2),r0
  86cb9c:	31 e0 00 03 	sb (r15+3),r0
  86cba0:	31 e0 00 04 	sb (r15+4),r0
  86cba4:	31 e0 00 05 	sb (r15+5),r0
  86cba8:	5b 82 00 58 	sw (sp+88),r2
  86cbac:	3a b5 16 40 	ori r21,r21,0x1640
  86cbb0:	3a 10 16 44 	ori r16,r16,0x1644
  86cbb4:	3a 94 16 4c 	ori r20,r20,0x164c
  86cbb8:	3a 52 16 3c 	ori r18,r18,0x163c
  86cbbc:	5b 81 00 48 	sw (sp+72),r1
  86cbc0:	34 11 00 55 	mvi r17,85
  86cbc4:	34 13 ff ff 	mvi r19,-1
  86cbc8:	5b 84 00 50 	sw (sp+80),r4
  86cbcc:	5b 83 00 54 	sw (sp+84),r3
  86cbd0:	3b 39 16 20 	ori r25,r25,0x1620
  86cbd4:	3b 18 16 28 	ori r24,r24,0x1628
  86cbd8:	3a f7 16 2c 	ori r23,r23,0x162c
  86cbdc:	3a d6 16 24 	ori r22,r22,0x1624
  86cbe0:	2a a3 00 00 	lw r3,(r21+0)
  86cbe4:	34 04 ff d5 	mvi r4,-43
  86cbe8:	34 0a 00 01 	mvi r10,1
  86cbec:	30 64 00 07 	sb (r3+7),r4
  86cbf0:	30 71 00 00 	sb (r3+0),r17
  86cbf4:	30 71 00 01 	sb (r3+1),r17
  86cbf8:	30 71 00 02 	sb (r3+2),r17
  86cbfc:	30 71 00 03 	sb (r3+3),r17
  86cc00:	30 71 00 04 	sb (r3+4),r17
  86cc04:	30 71 00 05 	sb (r3+5),r17
  86cc08:	30 71 00 06 	sb (r3+6),r17
  86cc0c:	30 73 00 08 	sb (r3+8),r19
  86cc10:	30 73 00 09 	sb (r3+9),r19
  86cc14:	30 73 00 0a 	sb (r3+10),r19
  86cc18:	30 73 00 0b 	sb (r3+11),r19
  86cc1c:	30 73 00 0c 	sb (r3+12),r19
  86cc20:	30 73 00 0d 	sb (r3+13),r19
  86cc24:	42 0b 00 00 	lbu r11,(r16+0)
  86cc28:	34 04 00 08 	mvi r4,8
  86cc2c:	34 02 00 3c 	mvi r2,60
  86cc30:	30 6b 00 0e 	sb (r3+14),r11
  86cc34:	42 09 00 01 	lbu r9,(r16+1)
  86cc38:	34 61 00 08 	addi r1,r3,8
  86cc3c:	30 69 00 0f 	sb (r3+15),r9
  86cc40:	42 08 00 02 	lbu r8,(r16+2)
  86cc44:	30 68 00 10 	sb (r3+16),r8
  86cc48:	42 06 00 03 	lbu r6,(r16+3)
  86cc4c:	30 66 00 11 	sb (r3+17),r6
  86cc50:	42 07 00 04 	lbu r7,(r16+4)
  86cc54:	30 67 00 12 	sb (r3+18),r7
  86cc58:	42 05 00 05 	lbu r5,(r16+5)
  86cc5c:	30 64 00 14 	sb (r3+20),r4
  86cc60:	34 04 00 06 	mvi r4,6
  86cc64:	30 64 00 15 	sb (r3+21),r4
  86cc68:	34 04 00 44 	mvi r4,68
  86cc6c:	5a 84 00 00 	sw (r20+0),r4
  86cc70:	34 04 00 08 	mvi r4,8
  86cc74:	30 65 00 13 	sb (r3+19),r5
  86cc78:	30 64 00 18 	sb (r3+24),r4
  86cc7c:	30 60 00 16 	sb (r3+22),r0
  86cc80:	30 6a 00 17 	sb (r3+23),r10
  86cc84:	34 04 00 06 	mvi r4,6
  86cc88:	30 60 00 19 	sb (r3+25),r0
  86cc8c:	30 64 00 1a 	sb (r3+26),r4
  86cc90:	34 04 00 04 	mvi r4,4
  86cc94:	30 64 00 1b 	sb (r3+27),r4
  86cc98:	30 60 00 1c 	sb (r3+28),r0
  86cc9c:	30 6a 00 1d 	sb (r3+29),r10
  86cca0:	42 44 00 00 	lbu r4,(r18+0)
  86cca4:	30 6b 00 1e 	sb (r3+30),r11
  86cca8:	30 69 00 1f 	sb (r3+31),r9
  86ccac:	30 64 00 24 	sb (r3+36),r4
  86ccb0:	42 44 00 01 	lbu r4,(r18+1)
  86ccb4:	30 66 00 21 	sb (r3+33),r6
  86ccb8:	30 68 00 20 	sb (r3+32),r8
  86ccbc:	30 64 00 25 	sb (r3+37),r4
  86ccc0:	42 44 00 02 	lbu r4,(r18+2)
  86ccc4:	30 67 00 22 	sb (r3+34),r7
  86ccc8:	30 65 00 23 	sb (r3+35),r5
  86cccc:	30 64 00 26 	sb (r3+38),r4
  86ccd0:	30 60 00 28 	sb (r3+40),r0
  86ccd4:	42 44 00 03 	lbu r4,(r18+3)
  86ccd8:	2b 85 00 4c 	lw r5,(sp+76)
  86ccdc:	30 60 00 29 	sb (r3+41),r0
  86cce0:	30 64 00 27 	sb (r3+39),r4
  86cce4:	30 65 00 2e 	sb (r3+46),r5
  86cce8:	2b 84 00 50 	lw r4,(sp+80)
  86ccec:	30 60 00 2a 	sb (r3+42),r0
  86ccf0:	30 60 00 2b 	sb (r3+43),r0
  86ccf4:	30 64 00 2f 	sb (r3+47),r4
  86ccf8:	2b 85 00 54 	lw r5,(sp+84)
  86ccfc:	30 60 00 2c 	sb (r3+44),r0
  86cd00:	30 60 00 2d 	sb (r3+45),r0
  86cd04:	30 65 00 30 	sb (r3+48),r5
  86cd08:	2b 84 00 48 	lw r4,(sp+72)
  86cd0c:	30 64 00 31 	sb (r3+49),r4
  86cd10:	fb ff e1 2b 	calli 8651bc <crc32>
  86cd14:	2a 86 00 00 	lw r6,(r20+0)
  86cd18:	2a a2 00 00 	lw r2,(r21+0)
  86cd1c:	78 05 00 ff 	mvhi r5,0xff
  86cd20:	a0 25 18 00 	and r3,r1,r5
  86cd24:	00 24 00 18 	srui r4,r1,24
  86cd28:	00 25 00 08 	srui r5,r1,8
  86cd2c:	00 63 00 10 	srui r3,r3,16
  86cd30:	b4 46 10 00 	add r2,r2,r6
  86cd34:	30 41 00 00 	sb (r2+0),r1
  86cd38:	30 45 00 01 	sb (r2+1),r5
  86cd3c:	30 43 00 02 	sb (r2+2),r3
  86cd40:	30 44 00 03 	sb (r2+3),r4
  86cd44:	34 c1 00 04 	addi r1,r6,4
  86cd48:	78 02 e0 00 	mvhi r2,0xe000
  86cd4c:	5a 81 00 00 	sw (r20+0),r1
  86cd50:	38 42 80 18 	ori r2,r2,0x8018
  86cd54:	58 41 00 00 	sw (r2+0),r1
  86cd58:	90 40 08 00 	rcsr r1,IP
  86cd5c:	20 21 10 00 	andi r1,r1,0x1000
  86cd60:	44 20 ff fe 	be r1,r0,86cd58 <microudp_arp_resolve+0x278>
  86cd64:	34 01 10 00 	mvi r1,4096
  86cd68:	d0 41 00 00 	wcsr IP,r1
  86cd6c:	78 04 00 86 	mvhi r4,0x86
  86cd70:	38 84 e5 8c 	ori r4,r4,0xe58c
  86cd74:	28 8b 00 00 	lw r11,(r4+0)
  86cd78:	34 0c 00 02 	mvi r12,2
  86cd7c:	34 0d 08 00 	mvi r13,2048
  86cd80:	34 0e 00 01 	mvi r14,1
  86cd84:	90 40 08 00 	rcsr r1,IP
  86cd88:	20 21 08 00 	andi r1,r1,0x800
  86cd8c:	44 20 00 08 	be r1,r0,86cdac <microudp_arp_resolve+0x2cc>
  86cd90:	78 05 e0 00 	mvhi r5,0xe000
  86cd94:	38 a5 80 08 	ori r5,r5,0x8008
  86cd98:	28 a1 00 00 	lw r1,(r5+0)
  86cd9c:	44 2c 00 36 	be r1,r12,86ce74 <microudp_arp_resolve+0x394>
  86cda0:	2b 61 00 00 	lw r1,(fp+0)
  86cda4:	44 2c 00 2b 	be r1,r12,86ce50 <microudp_arp_resolve+0x370>
  86cda8:	d0 4d 00 00 	wcsr IP,r13
  86cdac:	41 e1 00 00 	lbu r1,(r15+0)
  86cdb0:	5c 20 00 13 	bne r1,r0,86cdfc <microudp_arp_resolve+0x31c>
  86cdb4:	41 e2 00 01 	lbu r2,(r15+1)
  86cdb8:	5c 41 00 11 	bne r2,r1,86cdfc <microudp_arp_resolve+0x31c>
  86cdbc:	41 e1 00 02 	lbu r1,(r15+2)
  86cdc0:	5c 22 00 0f 	bne r1,r2,86cdfc <microudp_arp_resolve+0x31c>
  86cdc4:	41 e2 00 03 	lbu r2,(r15+3)
  86cdc8:	5c 41 00 0d 	bne r2,r1,86cdfc <microudp_arp_resolve+0x31c>
  86cdcc:	41 e1 00 04 	lbu r1,(r15+4)
  86cdd0:	5c 22 00 0b 	bne r1,r2,86cdfc <microudp_arp_resolve+0x31c>
  86cdd4:	41 e2 00 05 	lbu r2,(r15+5)
  86cdd8:	5c 41 00 09 	bne r2,r1,86cdfc <microudp_arp_resolve+0x31c>
  86cddc:	35 6b ff ff 	addi r11,r11,-1
  86cde0:	5d 62 ff e9 	bne r11,r2,86cd84 <microudp_arp_resolve+0x2a4>
  86cde4:	2b 85 00 58 	lw r5,(sp+88)
  86cde8:	34 a5 ff ff 	addi r5,r5,-1
  86cdec:	5b 85 00 58 	sw (sp+88),r5
  86cdf0:	5c ab ff 7c 	bne r5,r11,86cbe0 <microudp_arp_resolve+0x100>
  86cdf4:	34 03 00 00 	mvi r3,0
  86cdf8:	e0 00 00 02 	bi 86ce00 <microudp_arp_resolve+0x320>
  86cdfc:	34 03 00 01 	mvi r3,1
  86ce00:	b8 60 08 00 	mv r1,r3
  86ce04:	2b 9d 00 04 	lw ra,(sp+4)
  86ce08:	2b 8b 00 44 	lw r11,(sp+68)
  86ce0c:	2b 8c 00 40 	lw r12,(sp+64)
  86ce10:	2b 8d 00 3c 	lw r13,(sp+60)
  86ce14:	2b 8e 00 38 	lw r14,(sp+56)
  86ce18:	2b 8f 00 34 	lw r15,(sp+52)
  86ce1c:	2b 90 00 30 	lw r16,(sp+48)
  86ce20:	2b 91 00 2c 	lw r17,(sp+44)
  86ce24:	2b 92 00 28 	lw r18,(sp+40)
  86ce28:	2b 93 00 24 	lw r19,(sp+36)
  86ce2c:	2b 94 00 20 	lw r20,(sp+32)
  86ce30:	2b 95 00 1c 	lw r21,(sp+28)
  86ce34:	2b 96 00 18 	lw r22,(sp+24)
  86ce38:	2b 97 00 14 	lw r23,(sp+20)
  86ce3c:	2b 98 00 10 	lw r24,(sp+16)
  86ce40:	2b 99 00 0c 	lw r25,(sp+12)
  86ce44:	2b 9b 00 08 	lw fp,(sp+8)
  86ce48:	37 9c 00 58 	addi sp,sp,88
  86ce4c:	c3 a0 00 00 	ret
  86ce50:	78 04 e0 00 	mvhi r4,0xe000
  86ce54:	38 84 80 14 	ori r4,r4,0x8014
  86ce58:	28 82 00 00 	lw r2,(r4+0)
  86ce5c:	2a e1 00 00 	lw r1,(r23+0)
  86ce60:	5b 22 00 00 	sw (r25+0),r2
  86ce64:	5b 01 00 00 	sw (r24+0),r1
  86ce68:	fb ff fd ea 	calli 86c610 <process_frame>
  86ce6c:	5b 6e 00 00 	sw (fp+0),r14
  86ce70:	e3 ff ff ce 	bi 86cda8 <microudp_arp_resolve+0x2c8>
  86ce74:	78 01 e0 00 	mvhi r1,0xe000
  86ce78:	38 21 80 0c 	ori r1,r1,0x800c
  86ce7c:	28 22 00 00 	lw r2,(r1+0)
  86ce80:	2a c1 00 00 	lw r1,(r22+0)
  86ce84:	5b 22 00 00 	sw (r25+0),r2
  86ce88:	5b 01 00 00 	sw (r24+0),r1
  86ce8c:	fb ff fd e1 	calli 86c610 <process_frame>
  86ce90:	78 02 e0 00 	mvhi r2,0xe000
  86ce94:	38 42 80 08 	ori r2,r2,0x8008
  86ce98:	58 4e 00 00 	sw (r2+0),r14
  86ce9c:	e3 ff ff c1 	bi 86cda0 <microudp_arp_resolve+0x2c0>
  86cea0:	41 e4 00 00 	lbu r4,(r15+0)
  86cea4:	34 03 00 01 	mvi r3,1
  86cea8:	5c 80 ff d6 	bne r4,r0,86ce00 <microudp_arp_resolve+0x320>
  86ceac:	41 e5 00 01 	lbu r5,(r15+1)
  86ceb0:	5c a4 ff d4 	bne r5,r4,86ce00 <microudp_arp_resolve+0x320>
  86ceb4:	41 e4 00 02 	lbu r4,(r15+2)
  86ceb8:	5c 85 ff d2 	bne r4,r5,86ce00 <microudp_arp_resolve+0x320>
  86cebc:	41 e5 00 03 	lbu r5,(r15+3)
  86cec0:	5c a4 ff d0 	bne r5,r4,86ce00 <microudp_arp_resolve+0x320>
  86cec4:	41 e4 00 04 	lbu r4,(r15+4)
  86cec8:	5c 85 ff ce 	bne r4,r5,86ce00 <microudp_arp_resolve+0x320>
  86cecc:	41 e5 00 05 	lbu r5,(r15+5)
  86ced0:	44 a4 ff 1c 	be r5,r4,86cb40 <microudp_arp_resolve+0x60>
  86ced4:	e3 ff ff cb 	bi 86ce00 <microudp_arp_resolve+0x320>

0086ced8 <microudp_get_tx_buffer>:
  86ced8:	78 01 40 66 	mvhi r1,0x4066
  86cedc:	38 21 16 40 	ori r1,r1,0x1640
  86cee0:	28 21 00 00 	lw r1,(r1+0)
  86cee4:	34 21 00 32 	addi r1,r1,50
  86cee8:	c3 a0 00 00 	ret

0086ceec <microudp_send>:
  86ceec:	37 9c ff cc 	addi sp,sp,-52
  86cef0:	5b 8b 00 28 	sw (sp+40),r11
  86cef4:	5b 8c 00 24 	sw (sp+36),r12
  86cef8:	5b 8d 00 20 	sw (sp+32),r13
  86cefc:	5b 8e 00 1c 	sw (sp+28),r14
  86cf00:	5b 8f 00 18 	sw (sp+24),r15
  86cf04:	5b 90 00 14 	sw (sp+20),r16
  86cf08:	5b 91 00 10 	sw (sp+16),r17
  86cf0c:	5b 92 00 0c 	sw (sp+12),r18
  86cf10:	5b 93 00 08 	sw (sp+8),r19
  86cf14:	5b 9d 00 04 	sw (sp+4),ra
  86cf18:	78 07 40 66 	mvhi r7,0x4066
  86cf1c:	38 e7 16 34 	ori r7,r7,0x1634
  86cf20:	40 e4 00 00 	lbu r4,(r7+0)
  86cf24:	20 2a ff ff 	andi r10,r1,0xffff
  86cf28:	20 42 ff ff 	andi r2,r2,0xffff
  86cf2c:	5c 80 00 0c 	bne r4,r0,86cf5c <microudp_send+0x70>
  86cf30:	40 e1 00 01 	lbu r1,(r7+1)
  86cf34:	5c 24 00 0a 	bne r1,r4,86cf5c <microudp_send+0x70>
  86cf38:	40 e4 00 02 	lbu r4,(r7+2)
  86cf3c:	5c 81 00 08 	bne r4,r1,86cf5c <microudp_send+0x70>
  86cf40:	40 e1 00 03 	lbu r1,(r7+3)
  86cf44:	5c 24 00 06 	bne r1,r4,86cf5c <microudp_send+0x70>
  86cf48:	40 e4 00 04 	lbu r4,(r7+4)
  86cf4c:	5c 81 00 04 	bne r4,r1,86cf5c <microudp_send+0x70>
  86cf50:	40 e4 00 05 	lbu r4,(r7+5)
  86cf54:	34 01 00 00 	mvi r1,0
  86cf58:	44 81 01 0e 	be r4,r1,86d390 <microudp_send+0x4a4>
  86cf5c:	78 0b 40 66 	mvhi r11,0x4066
  86cf60:	34 64 00 3a 	addi r4,r3,58
  86cf64:	39 6b 16 4c 	ori r11,r11,0x164c
  86cf68:	59 64 00 00 	sw (r11+0),r4
  86cf6c:	34 01 00 47 	mvi r1,71
  86cf70:	48 81 00 03 	bg r4,r1,86cf7c <microudp_send+0x90>
  86cf74:	34 01 00 48 	mvi r1,72
  86cf78:	59 61 00 00 	sw (r11+0),r1
  86cf7c:	78 0c 40 66 	mvhi r12,0x4066
  86cf80:	39 8c 16 40 	ori r12,r12,0x1640
  86cf84:	29 84 00 00 	lw r4,(r12+0)
  86cf88:	34 05 00 55 	mvi r5,85
  86cf8c:	34 09 00 06 	mvi r9,6
  86cf90:	34 81 00 08 	addi r1,r4,8
  86cf94:	30 85 00 00 	sb (r4+0),r5
  86cf98:	30 85 00 01 	sb (r4+1),r5
  86cf9c:	30 85 00 02 	sb (r4+2),r5
  86cfa0:	30 85 00 03 	sb (r4+3),r5
  86cfa4:	30 85 00 04 	sb (r4+4),r5
  86cfa8:	30 85 00 05 	sb (r4+5),r5
  86cfac:	30 85 00 06 	sb (r4+6),r5
  86cfb0:	34 05 ff d5 	mvi r5,-43
  86cfb4:	30 85 00 07 	sb (r4+7),r5
  86cfb8:	20 26 00 03 	andi r6,r1,0x3
  86cfbc:	34 05 00 00 	mvi r5,0
  86cfc0:	5c c0 00 05 	bne r6,r0,86cfd4 <microudp_send+0xe8>
  86cfc4:	28 e6 00 00 	lw r6,(r7+0)
  86cfc8:	34 09 00 02 	mvi r9,2
  86cfcc:	34 05 00 04 	mvi r5,4
  86cfd0:	58 86 00 08 	sw (r4+8),r6
  86cfd4:	34 a6 00 08 	addi r6,r5,8
  86cfd8:	b4 86 30 00 	add r6,r4,r6
  86cfdc:	b4 a9 48 00 	add r9,r5,r9
  86cfe0:	b4 a7 40 00 	add r8,r5,r7
  86cfe4:	41 08 00 00 	lbu r8,(r8+0)
  86cfe8:	34 a5 00 01 	addi r5,r5,1
  86cfec:	30 c8 00 00 	sb (r6+0),r8
  86cff0:	34 c6 00 01 	addi r6,r6,1
  86cff4:	5c a9 ff fb 	bne r5,r9,86cfe0 <microudp_send+0xf4>
  86cff8:	20 85 00 03 	andi r5,r4,0x3
  86cffc:	7c a5 00 02 	cmpnei r5,r5,2
  86d000:	5c a0 00 f4 	bne r5,r0,86d3d0 <microudp_send+0x4e4>
  86d004:	78 07 40 66 	mvhi r7,0x4066
  86d008:	38 e7 16 44 	ori r7,r7,0x1644
  86d00c:	28 e6 00 00 	lw r6,(r7+0)
  86d010:	34 09 00 02 	mvi r9,2
  86d014:	34 05 00 04 	mvi r5,4
  86d018:	58 86 00 0e 	sw (r4+14),r6
  86d01c:	b4 85 30 00 	add r6,r4,r5
  86d020:	34 c6 00 0e 	addi r6,r6,14
  86d024:	b4 a9 48 00 	add r9,r5,r9
  86d028:	b4 a7 40 00 	add r8,r5,r7
  86d02c:	41 08 00 00 	lbu r8,(r8+0)
  86d030:	34 a5 00 01 	addi r5,r5,1
  86d034:	30 c8 00 00 	sb (r6+0),r8
  86d038:	34 c6 00 01 	addi r6,r6,1
  86d03c:	5c a9 ff fb 	bne r5,r9,86d028 <microudp_send+0x13c>
  86d040:	20 68 ff ff 	andi r8,r3,0xffff
  86d044:	35 06 00 1c 	addi r6,r8,28
  86d048:	20 c6 ff ff 	andi r6,r6,0xffff
  86d04c:	00 c5 00 08 	srui r5,r6,8
  86d050:	34 07 00 40 	mvi r7,64
  86d054:	34 09 00 08 	mvi r9,8
  86d058:	30 89 00 14 	sb (r4+20),r9
  86d05c:	30 85 00 18 	sb (r4+24),r5
  86d060:	30 86 00 19 	sb (r4+25),r6
  86d064:	30 87 00 1c 	sb (r4+28),r7
  86d068:	30 80 00 15 	sb (r4+21),r0
  86d06c:	30 80 00 1a 	sb (r4+26),r0
  86d070:	30 80 00 1b 	sb (r4+27),r0
  86d074:	30 80 00 1d 	sb (r4+29),r0
  86d078:	34 06 00 11 	mvi r6,17
  86d07c:	33 86 00 35 	sb (sp+53),r6
  86d080:	34 09 00 45 	mvi r9,69
  86d084:	78 05 40 66 	mvhi r5,0x4066
  86d088:	30 80 00 20 	sb (r4+32),r0
  86d08c:	30 80 00 21 	sb (r4+33),r0
  86d090:	30 89 00 16 	sb (r4+22),r9
  86d094:	30 87 00 1e 	sb (r4+30),r7
  86d098:	30 80 00 17 	sb (r4+23),r0
  86d09c:	30 86 00 1f 	sb (r4+31),r6
  86d0a0:	38 a5 16 3c 	ori r5,r5,0x163c
  86d0a4:	28 a6 00 00 	lw r6,(r5+0)
  86d0a8:	78 05 40 66 	mvhi r5,0x4066
  86d0ac:	38 a5 16 30 	ori r5,r5,0x1630
  86d0b0:	00 cd 00 18 	srui r13,r6,24
  86d0b4:	00 c9 00 10 	srui r9,r6,16
  86d0b8:	00 c7 00 08 	srui r7,r6,8
  86d0bc:	30 8d 00 22 	sb (r4+34),r13
  86d0c0:	30 89 00 23 	sb (r4+35),r9
  86d0c4:	30 87 00 24 	sb (r4+36),r7
  86d0c8:	30 86 00 25 	sb (r4+37),r6
  86d0cc:	28 a5 00 00 	lw r5,(r5+0)
  86d0d0:	5b 86 00 2c 	sw (sp+44),r6
  86d0d4:	34 86 00 16 	addi r6,r4,22
  86d0d8:	00 ad 00 18 	srui r13,r5,24
  86d0dc:	00 a9 00 10 	srui r9,r5,16
  86d0e0:	00 a7 00 08 	srui r7,r5,8
  86d0e4:	30 8d 00 26 	sb (r4+38),r13
  86d0e8:	30 89 00 27 	sb (r4+39),r9
  86d0ec:	30 87 00 28 	sb (r4+40),r7
  86d0f0:	30 85 00 29 	sb (r4+41),r5
  86d0f4:	5b 85 00 30 	sw (sp+48),r5
  86d0f8:	40 d1 00 02 	lbu r17,(r6+2)
  86d0fc:	40 93 00 16 	lbu r19,(r4+22)
  86d100:	40 cd 00 04 	lbu r13,(r6+4)
  86d104:	40 d2 00 01 	lbu r18,(r6+1)
  86d108:	40 c5 00 03 	lbu r5,(r6+3)
  86d10c:	40 d0 00 06 	lbu r16,(r6+6)
  86d110:	40 cf 00 05 	lbu r15,(r6+5)
  86d114:	40 c7 00 08 	lbu r7,(r6+8)
  86d118:	3e 73 00 08 	sli r19,r19,8
  86d11c:	3e 31 00 08 	sli r17,r17,8
  86d120:	40 c9 00 07 	lbu r9,(r6+7)
  86d124:	40 ce 00 0a 	lbu r14,(r6+10)
  86d128:	3d ad 00 08 	sli r13,r13,8
  86d12c:	b8 b1 88 00 	or r17,r5,r17
  86d130:	ba 72 98 00 	or r19,r19,r18
  86d134:	40 c5 00 0c 	lbu r5,(r6+12)
  86d138:	40 d2 00 09 	lbu r18,(r6+9)
  86d13c:	3e 10 00 08 	sli r16,r16,8
  86d140:	b9 ed 68 00 	or r13,r15,r13
  86d144:	b6 71 98 00 	add r19,r19,r17
  86d148:	3c e7 00 08 	sli r7,r7,8
  86d14c:	40 d1 00 0b 	lbu r17,(r6+11)
  86d150:	40 cf 00 0e 	lbu r15,(r6+14)
  86d154:	b9 30 80 00 	or r16,r9,r16
  86d158:	b6 6d 98 00 	add r19,r19,r13
  86d15c:	3d ce 00 08 	sli r14,r14,8
  86d160:	40 c9 00 0d 	lbu r9,(r6+13)
  86d164:	40 cd 00 10 	lbu r13,(r6+16)
  86d168:	b6 70 98 00 	add r19,r19,r16
  86d16c:	ba 47 90 00 	or r18,r18,r7
  86d170:	3c a5 00 08 	sli r5,r5,8
  86d174:	40 c7 00 12 	lbu r7,(r6+18)
  86d178:	40 d0 00 0f 	lbu r16,(r6+15)
  86d17c:	ba 2e 88 00 	or r17,r17,r14
  86d180:	b6 72 90 00 	add r18,r19,r18
  86d184:	40 ce 00 11 	lbu r14,(r6+17)
  86d188:	3d ef 00 08 	sli r15,r15,8
  86d18c:	b9 25 48 00 	or r9,r9,r5
  86d190:	b6 51 88 00 	add r17,r18,r17
  86d194:	40 c5 00 13 	lbu r5,(r6+19)
  86d198:	3d ad 00 08 	sli r13,r13,8
  86d19c:	ba 0f 30 00 	or r6,r16,r15
  86d1a0:	b6 29 48 00 	add r9,r17,r9
  86d1a4:	3c e7 00 08 	sli r7,r7,8
  86d1a8:	b5 26 48 00 	add r9,r9,r6
  86d1ac:	b9 cd 30 00 	or r6,r14,r13
  86d1b0:	b5 26 30 00 	add r6,r9,r6
  86d1b4:	b8 a7 28 00 	or r5,r5,r7
  86d1b8:	b4 a6 28 00 	add r5,r5,r6
  86d1bc:	00 a6 00 10 	srui r6,r5,16
  86d1c0:	44 c0 00 05 	be r6,r0,86d1d4 <microudp_send+0x2e8>
  86d1c4:	20 a5 ff ff 	andi r5,r5,0xffff
  86d1c8:	b4 a6 28 00 	add r5,r5,r6
  86d1cc:	00 a6 00 10 	srui r6,r5,16
  86d1d0:	5c c0 ff fd 	bne r6,r0,86d1c4 <microudp_send+0x2d8>
  86d1d4:	a4 a0 28 00 	not r5,r5
  86d1d8:	20 a5 ff ff 	andi r5,r5,0xffff
  86d1dc:	38 06 ff ff 	mvu r6,0xffff
  86d1e0:	44 a0 00 02 	be r5,r0,86d1e8 <microudp_send+0x2fc>
  86d1e4:	20 a6 ff ff 	andi r6,r5,0xffff
  86d1e8:	35 05 00 08 	addi r5,r8,8
  86d1ec:	20 a5 ff ff 	andi r5,r5,0xffff
  86d1f0:	00 cd 00 08 	srui r13,r6,8
  86d1f4:	01 49 00 08 	srui r9,r10,8
  86d1f8:	00 48 00 08 	srui r8,r2,8
  86d1fc:	00 a7 00 08 	srui r7,r5,8
  86d200:	30 85 00 2f 	sb (r4+47),r5
  86d204:	30 8d 00 20 	sb (r4+32),r13
  86d208:	30 86 00 21 	sb (r4+33),r6
  86d20c:	30 89 00 2a 	sb (r4+42),r9
  86d210:	30 8a 00 2b 	sb (r4+43),r10
  86d214:	30 88 00 2c 	sb (r4+44),r8
  86d218:	30 82 00 2d 	sb (r4+45),r2
  86d21c:	30 87 00 2e 	sb (r4+46),r7
  86d220:	0f 85 00 36 	sh (sp+54),r5
  86d224:	30 80 00 30 	sb (r4+48),r0
  86d228:	30 80 00 31 	sb (r4+49),r0
  86d22c:	37 85 00 2c 	addi r5,sp,44
  86d230:	40 a7 00 02 	lbu r7,(r5+2)
  86d234:	43 8d 00 2c 	lbu r13,(sp+44)
  86d238:	40 a2 00 04 	lbu r2,(r5+4)
  86d23c:	40 af 00 01 	lbu r15,(r5+1)
  86d240:	40 ae 00 03 	lbu r14,(r5+3)
  86d244:	40 a9 00 06 	lbu r9,(r5+6)
  86d248:	40 a8 00 05 	lbu r8,(r5+5)
  86d24c:	3d ad 00 08 	sli r13,r13,8
  86d250:	3c e7 00 08 	sli r7,r7,8
  86d254:	40 a6 00 0a 	lbu r6,(r5+10)
  86d258:	3c 42 00 08 	sli r2,r2,8
  86d25c:	40 aa 00 07 	lbu r10,(r5+7)
  86d260:	b9 c7 38 00 	or r7,r14,r7
  86d264:	b9 ed 68 00 	or r13,r15,r13
  86d268:	3d 29 00 08 	sli r9,r9,8
  86d26c:	b5 a7 68 00 	add r13,r13,r7
  86d270:	b9 02 40 00 	or r8,r8,r2
  86d274:	40 a7 00 09 	lbu r7,(r5+9)
  86d278:	40 a2 00 0b 	lbu r2,(r5+11)
  86d27c:	b5 a8 40 00 	add r8,r13,r8
  86d280:	b9 49 28 00 	or r5,r10,r9
  86d284:	3c c6 00 08 	sli r6,r6,8
  86d288:	b5 05 28 00 	add r5,r8,r5
  86d28c:	b4 a7 28 00 	add r5,r5,r7
  86d290:	b8 46 10 00 	or r2,r2,r6
  86d294:	b4 45 10 00 	add r2,r2,r5
  86d298:	00 45 00 10 	srui r5,r2,16
  86d29c:	33 80 00 34 	sb (sp+52),r0
  86d2a0:	44 a0 00 05 	be r5,r0,86d2b4 <microudp_send+0x3c8>
  86d2a4:	20 42 ff ff 	andi r2,r2,0xffff
  86d2a8:	b4 45 10 00 	add r2,r2,r5
  86d2ac:	00 45 00 10 	srui r5,r2,16
  86d2b0:	5c a0 ff fd 	bne r5,r0,86d2a4 <microudp_send+0x3b8>
  86d2b4:	20 65 00 01 	andi r5,r3,0x1
  86d2b8:	20 42 ff ff 	andi r2,r2,0xffff
  86d2bc:	5c a0 00 41 	bne r5,r0,86d3c0 <microudp_send+0x4d4>
  86d2c0:	34 63 00 08 	addi r3,r3,8
  86d2c4:	00 67 00 01 	srui r7,r3,1
  86d2c8:	34 83 00 2a 	addi r3,r4,42
  86d2cc:	44 e0 00 0e 	be r7,r0,86d304 <microudp_send+0x418>
  86d2d0:	3c e7 00 01 	sli r7,r7,1
  86d2d4:	b4 67 38 00 	add r7,r3,r7
  86d2d8:	40 65 00 00 	lbu r5,(r3+0)
  86d2dc:	40 66 00 01 	lbu r6,(r3+1)
  86d2e0:	34 63 00 02 	addi r3,r3,2
  86d2e4:	3c a5 00 08 	sli r5,r5,8
  86d2e8:	b8 a6 28 00 	or r5,r5,r6
  86d2ec:	b4 45 10 00 	add r2,r2,r5
  86d2f0:	5c 67 ff fa 	bne r3,r7,86d2d8 <microudp_send+0x3ec>
  86d2f4:	00 43 00 10 	srui r3,r2,16
  86d2f8:	44 60 00 05 	be r3,r0,86d30c <microudp_send+0x420>
  86d2fc:	20 42 ff ff 	andi r2,r2,0xffff
  86d300:	b4 43 10 00 	add r2,r2,r3
  86d304:	00 43 00 10 	srui r3,r2,16
  86d308:	5c 60 ff fd 	bne r3,r0,86d2fc <microudp_send+0x410>
  86d30c:	a4 40 10 00 	not r2,r2
  86d310:	20 42 ff ff 	andi r2,r2,0xffff
  86d314:	38 03 ff ff 	mvu r3,0xffff
  86d318:	44 40 00 02 	be r2,r0,86d320 <microudp_send+0x434>
  86d31c:	20 43 ff ff 	andi r3,r2,0xffff
  86d320:	00 62 00 08 	srui r2,r3,8
  86d324:	30 83 00 31 	sb (r4+49),r3
  86d328:	30 82 00 30 	sb (r4+48),r2
  86d32c:	29 62 00 00 	lw r2,(r11+0)
  86d330:	34 42 ff f8 	addi r2,r2,-8
  86d334:	fb ff df a2 	calli 8651bc <crc32>
  86d338:	29 63 00 00 	lw r3,(r11+0)
  86d33c:	29 82 00 00 	lw r2,(r12+0)
  86d340:	00 26 00 08 	srui r6,r1,8
  86d344:	00 25 00 10 	srui r5,r1,16
  86d348:	b4 43 10 00 	add r2,r2,r3
  86d34c:	30 41 00 00 	sb (r2+0),r1
  86d350:	00 24 00 18 	srui r4,r1,24
  86d354:	34 61 00 04 	addi r1,r3,4
  86d358:	78 03 00 87 	mvhi r3,0x87
  86d35c:	38 63 15 38 	ori r3,r3,0x1538
  86d360:	30 46 00 01 	sb (r2+1),r6
  86d364:	30 45 00 02 	sb (r2+2),r5
  86d368:	30 44 00 03 	sb (r2+3),r4
  86d36c:	28 62 00 00 	lw r2,(r3+0)
  86d370:	59 61 00 00 	sw (r11+0),r1
  86d374:	58 41 00 00 	sw (r2+0),r1
  86d378:	90 40 08 00 	rcsr r1,IP
  86d37c:	20 21 10 00 	andi r1,r1,0x1000
  86d380:	44 20 ff fe 	be r1,r0,86d378 <microudp_send+0x48c>
  86d384:	34 01 10 00 	mvi r1,4096
  86d388:	d0 41 00 00 	wcsr IP,r1
  86d38c:	34 01 00 01 	mvi r1,1
  86d390:	2b 9d 00 04 	lw ra,(sp+4)
  86d394:	2b 8b 00 28 	lw r11,(sp+40)
  86d398:	2b 8c 00 24 	lw r12,(sp+36)
  86d39c:	2b 8d 00 20 	lw r13,(sp+32)
  86d3a0:	2b 8e 00 1c 	lw r14,(sp+28)
  86d3a4:	2b 8f 00 18 	lw r15,(sp+24)
  86d3a8:	2b 90 00 14 	lw r16,(sp+20)
  86d3ac:	2b 91 00 10 	lw r17,(sp+16)
  86d3b0:	2b 92 00 0c 	lw r18,(sp+12)
  86d3b4:	2b 93 00 08 	lw r19,(sp+8)
  86d3b8:	37 9c 00 34 	addi sp,sp,52
  86d3bc:	c3 a0 00 00 	ret
  86d3c0:	b4 83 28 00 	add r5,r4,r3
  86d3c4:	30 a0 00 32 	sb (r5+50),r0
  86d3c8:	34 63 00 01 	addi r3,r3,1
  86d3cc:	e3 ff ff bd 	bi 86d2c0 <microudp_send+0x3d4>
  86d3d0:	78 07 40 66 	mvhi r7,0x4066
  86d3d4:	34 09 00 06 	mvi r9,6
  86d3d8:	34 05 00 00 	mvi r5,0
  86d3dc:	38 e7 16 44 	ori r7,r7,0x1644
  86d3e0:	e3 ff ff 0f 	bi 86d01c <microudp_send+0x130>

0086d3e4 <microudp_set_callback>:
  86d3e4:	78 02 40 66 	mvhi r2,0x4066
  86d3e8:	38 42 16 50 	ori r2,r2,0x1650
  86d3ec:	58 41 00 00 	sw (r2+0),r1
  86d3f0:	c3 a0 00 00 	ret

0086d3f4 <microudp_start>:
  86d3f4:	34 03 18 00 	mvi r3,6144
  86d3f8:	d0 43 00 00 	wcsr IP,r3
  86d3fc:	78 04 40 66 	mvhi r4,0x4066
  86d400:	38 84 16 44 	ori r4,r4,0x1644
  86d404:	34 87 00 04 	addi r7,r4,4
  86d408:	34 29 00 04 	addi r9,r1,4
  86d40c:	f4 27 38 00 	cmpgu r7,r1,r7
  86d410:	f4 89 48 00 	cmpgu r9,r4,r9
  86d414:	20 28 00 03 	andi r8,r1,0x3
  86d418:	65 08 00 00 	cmpei r8,r8,0
  86d41c:	78 06 40 66 	mvhi r6,0x4066
  86d420:	b8 e9 38 00 	or r7,r7,r9
  86d424:	a0 e8 38 00 	and r7,r7,r8
  86d428:	38 c6 16 24 	ori r6,r6,0x1624
  86d42c:	78 08 b0 00 	mvhi r8,0xb000
  86d430:	58 c8 00 00 	sw (r6+0),r8
  86d434:	78 08 00 87 	mvhi r8,0x87
  86d438:	39 08 15 40 	ori r8,r8,0x1540
  86d43c:	29 06 00 00 	lw r6,(r8+0)
  86d440:	78 05 40 66 	mvhi r5,0x4066
  86d444:	38 a5 16 2c 	ori r5,r5,0x162c
  86d448:	58 a6 00 00 	sw (r5+0),r6
  86d44c:	78 06 00 87 	mvhi r6,0x87
  86d450:	38 c6 15 44 	ori r6,r6,0x1544
  86d454:	28 c5 00 00 	lw r5,(r6+0)
  86d458:	78 03 40 66 	mvhi r3,0x4066
  86d45c:	38 63 16 40 	ori r3,r3,0x1640
  86d460:	58 65 00 00 	sw (r3+0),r5
  86d464:	18 e5 00 01 	xori r5,r7,0x1
  86d468:	34 03 00 00 	mvi r3,0
  86d46c:	34 07 00 06 	mvi r7,6
  86d470:	5c a0 00 05 	bne r5,r0,86d484 <microudp_start+0x90>
  86d474:	28 25 00 00 	lw r5,(r1+0)
  86d478:	34 07 00 02 	mvi r7,2
  86d47c:	34 03 00 04 	mvi r3,4
  86d480:	58 85 00 00 	sw (r4+0),r5
  86d484:	b4 67 38 00 	add r7,r3,r7
  86d488:	b4 23 28 00 	add r5,r1,r3
  86d48c:	40 a6 00 00 	lbu r6,(r5+0)
  86d490:	b4 64 28 00 	add r5,r3,r4
  86d494:	34 63 00 01 	addi r3,r3,1
  86d498:	30 a6 00 00 	sb (r5+0),r6
  86d49c:	5c 67 ff fb 	bne r3,r7,86d488 <microudp_start+0x94>
  86d4a0:	78 05 40 66 	mvhi r5,0x4066
  86d4a4:	78 08 00 87 	mvhi r8,0x87
  86d4a8:	78 03 40 66 	mvhi r3,0x4066
  86d4ac:	38 a5 16 3c 	ori r5,r5,0x163c
  86d4b0:	39 08 15 48 	ori r8,r8,0x1548
  86d4b4:	58 a2 00 00 	sw (r5+0),r2
  86d4b8:	38 63 16 50 	ori r3,r3,0x1650
  86d4bc:	29 02 00 00 	lw r2,(r8+0)
  86d4c0:	78 04 40 66 	mvhi r4,0x4066
  86d4c4:	78 01 40 66 	mvhi r1,0x4066
  86d4c8:	38 21 16 34 	ori r1,r1,0x1634
  86d4cc:	58 60 00 00 	sw (r3+0),r0
  86d4d0:	38 84 16 30 	ori r4,r4,0x1630
  86d4d4:	78 03 00 87 	mvhi r3,0x87
  86d4d8:	30 20 00 00 	sb (r1+0),r0
  86d4dc:	30 20 00 01 	sb (r1+1),r0
  86d4e0:	30 20 00 02 	sb (r1+2),r0
  86d4e4:	30 20 00 03 	sb (r1+3),r0
  86d4e8:	58 80 00 00 	sw (r4+0),r0
  86d4ec:	30 20 00 04 	sb (r1+4),r0
  86d4f0:	30 20 00 05 	sb (r1+5),r0
  86d4f4:	38 63 15 3c 	ori r3,r3,0x153c
  86d4f8:	34 01 00 01 	mvi r1,1
  86d4fc:	58 41 00 00 	sw (r2+0),r1
  86d500:	28 62 00 00 	lw r2,(r3+0)
  86d504:	78 06 00 87 	mvhi r6,0x87
  86d508:	38 c6 15 4c 	ori r6,r6,0x154c
  86d50c:	58 41 00 00 	sw (r2+0),r1
  86d510:	28 c1 00 00 	lw r1,(r6+0)
  86d514:	58 20 00 00 	sw (r1+0),r0
  86d518:	c3 a0 00 00 	ret

0086d51c <microudp_service>:
  86d51c:	37 9c ff f8 	addi sp,sp,-8
  86d520:	5b 8b 00 08 	sw (sp+8),r11
  86d524:	5b 9d 00 04 	sw (sp+4),ra
  86d528:	90 40 08 00 	rcsr r1,IP
  86d52c:	20 21 08 00 	andi r1,r1,0x800
  86d530:	44 20 00 0f 	be r1,r0,86d56c <microudp_service+0x50>
  86d534:	78 01 00 87 	mvhi r1,0x87
  86d538:	38 21 15 48 	ori r1,r1,0x1548
  86d53c:	28 2b 00 00 	lw r11,(r1+0)
  86d540:	34 01 00 02 	mvi r1,2
  86d544:	29 62 00 00 	lw r2,(r11+0)
  86d548:	44 41 00 0d 	be r2,r1,86d57c <microudp_service+0x60>
  86d54c:	78 01 00 87 	mvhi r1,0x87
  86d550:	38 21 15 3c 	ori r1,r1,0x153c
  86d554:	28 2b 00 00 	lw r11,(r1+0)
  86d558:	34 01 00 02 	mvi r1,2
  86d55c:	29 62 00 00 	lw r2,(r11+0)
  86d560:	44 41 00 18 	be r2,r1,86d5c0 <microudp_service+0xa4>
  86d564:	34 01 08 00 	mvi r1,2048
  86d568:	d0 41 00 00 	wcsr IP,r1
  86d56c:	2b 9d 00 04 	lw ra,(sp+4)
  86d570:	2b 8b 00 08 	lw r11,(sp+8)
  86d574:	37 9c 00 08 	addi sp,sp,8
  86d578:	c3 a0 00 00 	ret
  86d57c:	78 03 00 87 	mvhi r3,0x87
  86d580:	38 63 15 50 	ori r3,r3,0x1550
  86d584:	28 62 00 00 	lw r2,(r3+0)
  86d588:	78 01 40 66 	mvhi r1,0x4066
  86d58c:	38 21 16 24 	ori r1,r1,0x1624
  86d590:	28 44 00 00 	lw r4,(r2+0)
  86d594:	28 23 00 00 	lw r3,(r1+0)
  86d598:	78 02 40 66 	mvhi r2,0x4066
  86d59c:	78 01 40 66 	mvhi r1,0x4066
  86d5a0:	38 21 16 28 	ori r1,r1,0x1628
  86d5a4:	38 42 16 20 	ori r2,r2,0x1620
  86d5a8:	58 23 00 00 	sw (r1+0),r3
  86d5ac:	58 44 00 00 	sw (r2+0),r4
  86d5b0:	fb ff fc 18 	calli 86c610 <process_frame>
  86d5b4:	34 01 00 01 	mvi r1,1
  86d5b8:	59 61 00 00 	sw (r11+0),r1
  86d5bc:	e3 ff ff e4 	bi 86d54c <microudp_service+0x30>
  86d5c0:	78 03 00 87 	mvhi r3,0x87
  86d5c4:	38 63 15 54 	ori r3,r3,0x1554
  86d5c8:	28 62 00 00 	lw r2,(r3+0)
  86d5cc:	78 01 40 66 	mvhi r1,0x4066
  86d5d0:	38 21 16 2c 	ori r1,r1,0x162c
  86d5d4:	28 44 00 00 	lw r4,(r2+0)
  86d5d8:	28 23 00 00 	lw r3,(r1+0)
  86d5dc:	78 02 40 66 	mvhi r2,0x4066
  86d5e0:	78 01 40 66 	mvhi r1,0x4066
  86d5e4:	38 21 16 28 	ori r1,r1,0x1628
  86d5e8:	38 42 16 20 	ori r2,r2,0x1620
  86d5ec:	58 23 00 00 	sw (r1+0),r3
  86d5f0:	58 44 00 00 	sw (r2+0),r4
  86d5f4:	fb ff fc 07 	calli 86c610 <process_frame>
  86d5f8:	34 01 00 01 	mvi r1,1
  86d5fc:	59 61 00 00 	sw (r11+0),r1
  86d600:	e3 ff ff d9 	bi 86d564 <microudp_service+0x48>

0086d604 <rx_callback>:
  86d604:	37 9c ff fc 	addi sp,sp,-4
  86d608:	5b 9d 00 04 	sw (sp+4),ra
  86d60c:	34 01 00 03 	mvi r1,3
  86d610:	20 42 ff ff 	andi r2,r2,0xffff
  86d614:	20 63 ff ff 	andi r3,r3,0xffff
  86d618:	50 25 00 03 	bgeu r1,r5,86d624 <rx_callback+0x20>
  86d61c:	34 06 1d da 	mvi r6,7642
  86d620:	44 66 00 04 	be r3,r6,86d630 <rx_callback+0x2c>
  86d624:	2b 9d 00 04 	lw ra,(sp+4)
  86d628:	37 9c 00 04 	addi sp,sp,4
  86d62c:	c3 a0 00 00 	ret
  86d630:	40 87 00 02 	lbu r7,(r4+2)
  86d634:	40 83 00 03 	lbu r3,(r4+3)
  86d638:	40 88 00 00 	lbu r8,(r4+0)
  86d63c:	3c e7 00 08 	sli r7,r7,8
  86d640:	40 86 00 01 	lbu r6,(r4+1)
  86d644:	b8 e3 38 00 	or r7,r7,r3
  86d648:	44 e0 ff f7 	be r7,r0,86d624 <rx_callback+0x20>
  86d64c:	3d 03 00 08 	sli r3,r8,8
  86d650:	b8 66 18 00 	or r3,r3,r6
  86d654:	44 61 00 0c 	be r3,r1,86d684 <rx_callback+0x80>
  86d658:	34 01 00 05 	mvi r1,5
  86d65c:	5c 61 ff f2 	bne r3,r1,86d624 <rx_callback+0x20>
  86d660:	78 02 40 66 	mvhi r2,0x4066
  86d664:	38 42 16 5c 	ori r2,r2,0x165c
  86d668:	78 01 40 66 	mvhi r1,0x4066
  86d66c:	34 03 ff ff 	mvi r3,-1
  86d670:	38 21 16 60 	ori r1,r1,0x1660
  86d674:	58 43 00 00 	sw (r2+0),r3
  86d678:	34 02 00 01 	mvi r2,1
  86d67c:	58 22 00 00 	sw (r1+0),r2
  86d680:	e3 ff ff e9 	bi 86d624 <rx_callback+0x20>
  86d684:	34 e3 ff ff 	addi r3,r7,-1
  86d688:	34 a5 ff fc 	addi r5,r5,-4
  86d68c:	3c 63 00 09 	sli r3,r3,9
  86d690:	44 a0 00 15 	be r5,r0,86d6e4 <rx_callback+0xe0>
  86d694:	78 01 40 66 	mvhi r1,0x4066
  86d698:	38 21 16 58 	ori r1,r1,0x1658
  86d69c:	28 28 00 00 	lw r8,(r1+0)
  86d6a0:	34 06 00 00 	mvi r6,0
  86d6a4:	34 01 00 00 	mvi r1,0
  86d6a8:	b5 03 18 00 	add r3,r8,r3
  86d6ac:	b4 86 30 00 	add r6,r4,r6
  86d6b0:	40 c8 00 04 	lbu r8,(r6+4)
  86d6b4:	34 21 00 01 	addi r1,r1,1
  86d6b8:	b8 20 30 00 	mv r6,r1
  86d6bc:	30 68 00 00 	sb (r3+0),r8
  86d6c0:	34 63 00 01 	addi r3,r3,1
  86d6c4:	54 a1 ff fa 	bgu r5,r1,86d6ac <rx_callback+0xa8>
  86d6c8:	78 01 40 66 	mvhi r1,0x4066
  86d6cc:	38 21 16 5c 	ori r1,r1,0x165c
  86d6d0:	28 23 00 00 	lw r3,(r1+0)
  86d6d4:	b4 a3 18 00 	add r3,r5,r3
  86d6d8:	58 23 00 00 	sw (r1+0),r3
  86d6dc:	34 01 01 ff 	mvi r1,511
  86d6e0:	54 a1 00 05 	bgu r5,r1,86d6f4 <rx_callback+0xf0>
  86d6e4:	78 01 40 66 	mvhi r1,0x4066
  86d6e8:	38 21 16 60 	ori r1,r1,0x1660
  86d6ec:	34 03 00 01 	mvi r3,1
  86d6f0:	58 23 00 00 	sw (r1+0),r3
  86d6f4:	78 01 40 66 	mvhi r1,0x4066
  86d6f8:	38 21 16 54 	ori r1,r1,0x1654
  86d6fc:	28 21 00 00 	lw r1,(r1+0)
  86d700:	00 e3 00 08 	srui r3,r7,8
  86d704:	34 04 00 04 	mvi r4,4
  86d708:	30 24 00 01 	sb (r1+1),r4
  86d70c:	30 23 00 02 	sb (r1+2),r3
  86d710:	30 27 00 03 	sb (r1+3),r7
  86d714:	30 20 00 00 	sb (r1+0),r0
  86d718:	34 03 00 04 	mvi r3,4
  86d71c:	34 01 1d da 	mvi r1,7642
  86d720:	fb ff fd f3 	calli 86ceec <microudp_send>
  86d724:	e3 ff ff c0 	bi 86d624 <rx_callback+0x20>

0086d728 <tftp_get>:
  86d728:	37 9c ff c8 	addi sp,sp,-56
  86d72c:	5b 8b 00 38 	sw (sp+56),r11
  86d730:	5b 8c 00 34 	sw (sp+52),r12
  86d734:	5b 8d 00 30 	sw (sp+48),r13
  86d738:	5b 8e 00 2c 	sw (sp+44),r14
  86d73c:	5b 8f 00 28 	sw (sp+40),r15
  86d740:	5b 90 00 24 	sw (sp+36),r16
  86d744:	5b 91 00 20 	sw (sp+32),r17
  86d748:	5b 92 00 1c 	sw (sp+28),r18
  86d74c:	5b 93 00 18 	sw (sp+24),r19
  86d750:	5b 94 00 14 	sw (sp+20),r20
  86d754:	5b 95 00 10 	sw (sp+16),r21
  86d758:	5b 96 00 0c 	sw (sp+12),r22
  86d75c:	5b 97 00 08 	sw (sp+8),r23
  86d760:	5b 9d 00 04 	sw (sp+4),ra
  86d764:	b8 40 80 00 	mv r16,r2
  86d768:	b8 60 58 00 	mv r11,r3
  86d76c:	fb ff fc dd 	calli 86cae0 <microudp_arp_resolve>
  86d770:	34 02 ff ff 	mvi r2,-1
  86d774:	5c 20 00 12 	bne r1,r0,86d7bc <tftp_get+0x94>
  86d778:	b8 40 08 00 	mv r1,r2
  86d77c:	2b 9d 00 04 	lw ra,(sp+4)
  86d780:	2b 8b 00 38 	lw r11,(sp+56)
  86d784:	2b 8c 00 34 	lw r12,(sp+52)
  86d788:	2b 8d 00 30 	lw r13,(sp+48)
  86d78c:	2b 8e 00 2c 	lw r14,(sp+44)
  86d790:	2b 8f 00 28 	lw r15,(sp+40)
  86d794:	2b 90 00 24 	lw r16,(sp+36)
  86d798:	2b 91 00 20 	lw r17,(sp+32)
  86d79c:	2b 92 00 1c 	lw r18,(sp+28)
  86d7a0:	2b 93 00 18 	lw r19,(sp+24)
  86d7a4:	2b 94 00 14 	lw r20,(sp+20)
  86d7a8:	2b 95 00 10 	lw r21,(sp+16)
  86d7ac:	2b 96 00 0c 	lw r22,(sp+12)
  86d7b0:	2b 97 00 08 	lw r23,(sp+8)
  86d7b4:	37 9c 00 38 	addi sp,sp,56
  86d7b8:	c3 a0 00 00 	ret
  86d7bc:	78 01 00 86 	mvhi r1,0x86
  86d7c0:	38 21 d6 04 	ori r1,r1,0xd604
  86d7c4:	fb ff ff 08 	calli 86d3e4 <microudp_set_callback>
  86d7c8:	fb ff fd c4 	calli 86ced8 <microudp_get_tx_buffer>
  86d7cc:	78 02 00 86 	mvhi r2,0x86
  86d7d0:	38 42 e5 8c 	ori r2,r2,0xe58c
  86d7d4:	b8 20 20 00 	mv r4,r1
  86d7d8:	78 11 40 66 	mvhi r17,0x4066
  86d7dc:	78 01 40 66 	mvhi r1,0x4066
  86d7e0:	78 0e 40 66 	mvhi r14,0x4066
  86d7e4:	78 0c 40 66 	mvhi r12,0x4066
  86d7e8:	28 4f 00 00 	lw r15,(r2+0)
  86d7ec:	3a 31 16 54 	ori r17,r17,0x1654
  86d7f0:	38 21 16 58 	ori r1,r1,0x1658
  86d7f4:	39 ce 16 5c 	ori r14,r14,0x165c
  86d7f8:	39 8c 16 60 	ori r12,r12,0x1660
  86d7fc:	5a 24 00 00 	sw (r17+0),r4
  86d800:	58 2b 00 00 	sw (r1+0),r11
  86d804:	59 c0 00 00 	sw (r14+0),r0
  86d808:	59 80 00 00 	sw (r12+0),r0
  86d80c:	34 17 00 05 	mvi r23,5
  86d810:	34 16 00 01 	mvi r22,1
  86d814:	34 15 00 6f 	mvi r21,111
  86d818:	34 14 00 63 	mvi r20,99
  86d81c:	34 12 00 74 	mvi r18,116
  86d820:	34 13 00 65 	mvi r19,101
  86d824:	34 8b 00 02 	addi r11,r4,2
  86d828:	ba 00 10 00 	mv r2,r16
  86d82c:	30 80 00 00 	sb (r4+0),r0
  86d830:	30 96 00 01 	sb (r4+1),r22
  86d834:	b9 60 08 00 	mv r1,r11
  86d838:	fb ff db 99 	calli 86469c <strcpy>
  86d83c:	ba 00 08 00 	mv r1,r16
  86d840:	fb ff db d2 	calli 864788 <strlen>
  86d844:	b5 61 18 00 	add r3,r11,r1
  86d848:	30 60 00 00 	sb (r3+0),r0
  86d84c:	30 75 00 01 	sb (r3+1),r21
  86d850:	30 74 00 02 	sb (r3+2),r20
  86d854:	30 72 00 03 	sb (r3+3),r18
  86d858:	30 73 00 04 	sb (r3+4),r19
  86d85c:	30 72 00 05 	sb (r3+5),r18
  86d860:	30 60 00 06 	sb (r3+6),r0
  86d864:	ba 00 08 00 	mv r1,r16
  86d868:	fb ff db c8 	calli 864788 <strlen>
  86d86c:	34 23 00 09 	addi r3,r1,9
  86d870:	34 02 00 45 	mvi r2,69
  86d874:	34 01 1d da 	mvi r1,7642
  86d878:	fb ff fd 9d 	calli 86ceec <microudp_send>
  86d87c:	34 0b 00 00 	mvi r11,0
  86d880:	e0 00 00 02 	bi 86d888 <tftp_get+0x160>
  86d884:	45 6f 00 1b 	be r11,r15,86d8f0 <tftp_get+0x1c8>
  86d888:	fb ff ff 25 	calli 86d51c <microudp_service>
  86d88c:	29 cd 00 00 	lw r13,(r14+0)
  86d890:	49 a0 00 08 	bg r13,r0,86d8b0 <tftp_get+0x188>
  86d894:	29 83 00 00 	lw r3,(r12+0)
  86d898:	35 6b 00 01 	addi r11,r11,1
  86d89c:	44 60 ff fa 	be r3,r0,86d884 <tftp_get+0x15c>
  86d8a0:	34 01 00 00 	mvi r1,0
  86d8a4:	fb ff fe d0 	calli 86d3e4 <microudp_set_callback>
  86d8a8:	29 c2 00 00 	lw r2,(r14+0)
  86d8ac:	e3 ff ff b3 	bi 86d778 <tftp_get+0x50>
  86d8b0:	29 81 00 00 	lw r1,(r12+0)
  86d8b4:	5c 20 ff fb 	bne r1,r0,86d8a0 <tftp_get+0x178>
  86d8b8:	b9 a0 08 00 	mv r1,r13
  86d8bc:	44 2d 00 0a 	be r1,r13,86d8e4 <tftp_get+0x1bc>
  86d8c0:	78 01 00 87 	mvhi r1,0x87
  86d8c4:	38 21 15 58 	ori r1,r1,0x1558
  86d8c8:	28 2b 00 00 	lw r11,(r1+0)
  86d8cc:	fb ff ff 14 	calli 86d51c <microudp_service>
  86d8d0:	29 82 00 00 	lw r2,(r12+0)
  86d8d4:	b9 a0 08 00 	mv r1,r13
  86d8d8:	5c 40 ff f2 	bne r2,r0,86d8a0 <tftp_get+0x178>
  86d8dc:	29 cd 00 00 	lw r13,(r14+0)
  86d8e0:	5c 2d ff f8 	bne r1,r13,86d8c0 <tftp_get+0x198>
  86d8e4:	45 60 00 05 	be r11,r0,86d8f8 <tftp_get+0x1d0>
  86d8e8:	35 6b ff ff 	addi r11,r11,-1
  86d8ec:	e3 ff ff f8 	bi 86d8cc <tftp_get+0x1a4>
  86d8f0:	36 f7 ff ff 	addi r23,r23,-1
  86d8f4:	5e e0 00 05 	bne r23,r0,86d908 <tftp_get+0x1e0>
  86d8f8:	34 01 00 00 	mvi r1,0
  86d8fc:	fb ff fe ba 	calli 86d3e4 <microudp_set_callback>
  86d900:	34 02 ff ff 	mvi r2,-1
  86d904:	e3 ff ff 9d 	bi 86d778 <tftp_get+0x50>
  86d908:	2a 24 00 00 	lw r4,(r17+0)
  86d90c:	e3 ff ff c6 	bi 86d824 <tftp_get+0xfc>

0086d910 <get_board_desc_id>:
  86d910:	20 21 ff ff 	andi r1,r1,0xffff
  86d914:	64 21 4d 31 	cmpei r1,r1,19761
  86d918:	78 02 00 87 	mvhi r2,0x87
  86d91c:	38 42 15 74 	ori r2,r2,0x1574
  86d920:	c8 01 08 00 	sub r1,r0,r1
  86d924:	a0 41 08 00 	and r1,r2,r1
  86d928:	c3 a0 00 00 	ret

0086d92c <get_board_desc>:
  86d92c:	78 03 00 86 	mvhi r3,0x86
  86d930:	38 63 ee b8 	ori r3,r3,0xeeb8
  86d934:	28 61 00 00 	lw r1,(r3+0)
  86d938:	78 02 00 87 	mvhi r2,0x87
  86d93c:	38 42 15 74 	ori r2,r2,0x1574
  86d940:	28 21 00 00 	lw r1,(r1+0)
  86d944:	20 21 ff ff 	andi r1,r1,0xffff
  86d948:	64 21 4d 31 	cmpei r1,r1,19761
  86d94c:	c8 01 08 00 	sub r1,r0,r1
  86d950:	a0 41 08 00 	and r1,r2,r1
  86d954:	c3 a0 00 00 	ret

0086d958 <get_pcb_revision>:
  86d958:	78 02 00 87 	mvhi r2,0x87
  86d95c:	38 42 15 5c 	ori r2,r2,0x155c
  86d960:	28 41 00 00 	lw r1,(r2+0)
  86d964:	28 22 00 00 	lw r2,(r1+0)
  86d968:	20 41 00 08 	andi r1,r2,0x8
  86d96c:	20 43 00 10 	andi r3,r2,0x10
  86d970:	7c 21 00 00 	cmpnei r1,r1,0
  86d974:	44 60 00 02 	be r3,r0,86d97c <get_pcb_revision+0x24>
  86d978:	38 21 00 02 	ori r1,r1,0x2
  86d97c:	20 43 00 20 	andi r3,r2,0x20
  86d980:	44 60 00 02 	be r3,r0,86d988 <get_pcb_revision+0x30>
  86d984:	38 21 00 04 	ori r1,r1,0x4
  86d988:	20 42 00 40 	andi r2,r2,0x40
  86d98c:	44 40 00 02 	be r2,r0,86d994 <get_pcb_revision+0x3c>
  86d990:	38 21 00 08 	ori r1,r1,0x8
  86d994:	c3 a0 00 00 	ret

0086d998 <get_soc_version>:
  86d998:	78 06 00 86 	mvhi r6,0x86
  86d99c:	38 c6 ee b8 	ori r6,r6,0xeeb8
  86d9a0:	28 c5 00 00 	lw r5,(r6+0)
  86d9a4:	28 a5 00 00 	lw r5,(r5+0)
  86d9a8:	00 a8 00 1c 	srui r8,r5,28
  86d9ac:	00 a7 00 18 	srui r7,r5,24
  86d9b0:	00 a6 00 14 	srui r6,r5,20
  86d9b4:	58 28 00 00 	sw (r1+0),r8
  86d9b8:	00 a5 00 10 	srui r5,r5,16
  86d9bc:	20 e1 00 0f 	andi r1,r7,0xf
  86d9c0:	58 41 00 00 	sw (r2+0),r1
  86d9c4:	20 c1 00 0f 	andi r1,r6,0xf
  86d9c8:	58 61 00 00 	sw (r3+0),r1
  86d9cc:	20 a5 00 0f 	andi r5,r5,0xf
  86d9d0:	58 85 00 00 	sw (r4+0),r5
  86d9d4:	c3 a0 00 00 	ret

0086d9d8 <get_soc_version_formatted>:
  86d9d8:	37 9c ff f0 	addi sp,sp,-16
  86d9dc:	5b 8b 00 10 	sw (sp+16),r11
  86d9e0:	5b 8c 00 0c 	sw (sp+12),r12
  86d9e4:	5b 8d 00 08 	sw (sp+8),r13
  86d9e8:	5b 9d 00 04 	sw (sp+4),ra
  86d9ec:	78 04 00 86 	mvhi r4,0x86
  86d9f0:	38 84 ee b8 	ori r4,r4,0xeeb8
  86d9f4:	28 83 00 00 	lw r3,(r4+0)
  86d9f8:	78 02 00 87 	mvhi r2,0x87
  86d9fc:	38 42 15 60 	ori r2,r2,0x1560
  86da00:	28 63 00 00 	lw r3,(r3+0)
  86da04:	b8 20 58 00 	mv r11,r1
  86da08:	00 64 00 18 	srui r4,r3,24
  86da0c:	00 6d 00 14 	srui r13,r3,20
  86da10:	00 6c 00 10 	srui r12,r3,16
  86da14:	00 63 00 1c 	srui r3,r3,28
  86da18:	20 84 00 0f 	andi r4,r4,0xf
  86da1c:	fb ff dd b7 	calli 8650f8 <sprintf>
  86da20:	21 ad 00 0f 	andi r13,r13,0xf
  86da24:	21 8c 00 0f 	andi r12,r12,0xf
  86da28:	b5 61 58 00 	add r11,r11,r1
  86da2c:	5d a0 00 0d 	bne r13,r0,86da60 <get_soc_version_formatted+0x88>
  86da30:	45 80 00 06 	be r12,r0,86da48 <get_soc_version_formatted+0x70>
  86da34:	78 02 00 87 	mvhi r2,0x87
  86da38:	b9 60 08 00 	mv r1,r11
  86da3c:	38 42 15 6c 	ori r2,r2,0x156c
  86da40:	b9 80 18 00 	mv r3,r12
  86da44:	fb ff dd ad 	calli 8650f8 <sprintf>
  86da48:	2b 9d 00 04 	lw ra,(sp+4)
  86da4c:	2b 8b 00 10 	lw r11,(sp+16)
  86da50:	2b 8c 00 0c 	lw r12,(sp+12)
  86da54:	2b 8d 00 08 	lw r13,(sp+8)
  86da58:	37 9c 00 10 	addi sp,sp,16
  86da5c:	c3 a0 00 00 	ret
  86da60:	78 02 00 87 	mvhi r2,0x87
  86da64:	b9 60 08 00 	mv r1,r11
  86da68:	38 42 15 68 	ori r2,r2,0x1568
  86da6c:	b9 a0 18 00 	mv r3,r13
  86da70:	fb ff dd a2 	calli 8650f8 <sprintf>
  86da74:	b5 61 58 00 	add r11,r11,r1
  86da78:	e3 ff ff ee 	bi 86da30 <get_soc_version_formatted+0x58>
