
bios.elf:     file format elf32-lm32


Disassembly of section .text:

00860000 <_ftext>:
  860000:	98 00 00 00 	xor r0,r0,r0
  860004:	d0 00 00 00 	wcsr IE,r0
  860008:	78 01 00 86 	mvhi r1,0x86
  86000c:	38 21 00 00 	ori r1,r1,0x0
  860010:	d0 e1 00 00 	wcsr EBA,r1
  860014:	f8 00 10 05 	calli 864028 <_sdram_init>
  860018:	98 42 10 00 	xor r2,r2,r2
  86001c:	e0 00 00 33 	bi 8600e8 <_crt0>

00860020 <_breakpoint_handler>:
  860020:	34 00 00 00 	nop
  860024:	34 00 00 00 	nop
  860028:	34 00 00 00 	nop
  86002c:	34 00 00 00 	nop
  860030:	34 00 00 00 	nop
  860034:	34 00 00 00 	nop
  860038:	34 00 00 00 	nop
  86003c:	34 00 00 00 	nop

00860040 <_instruction_bus_error_handler>:
  860040:	34 00 00 00 	nop
  860044:	34 00 00 00 	nop
  860048:	34 00 00 00 	nop
  86004c:	34 00 00 00 	nop
  860050:	34 00 00 00 	nop
  860054:	34 00 00 00 	nop
  860058:	34 00 00 00 	nop
  86005c:	34 00 00 00 	nop

00860060 <_watchpoint_hander>:
  860060:	34 00 00 00 	nop
  860064:	34 00 00 00 	nop
  860068:	34 00 00 00 	nop
  86006c:	34 00 00 00 	nop
  860070:	34 00 00 00 	nop
  860074:	34 00 00 00 	nop
  860078:	34 00 00 00 	nop
  86007c:	34 00 00 00 	nop

00860080 <_data_bus_error_handler>:
  860080:	34 00 00 00 	nop
  860084:	34 00 00 00 	nop
  860088:	34 00 00 00 	nop
  86008c:	34 00 00 00 	nop
  860090:	34 00 00 00 	nop
  860094:	34 00 00 00 	nop
  860098:	34 00 00 00 	nop
  86009c:	34 00 00 00 	nop

008600a0 <_divide_by_zero_handler>:
  8600a0:	34 00 00 00 	nop
  8600a4:	34 00 00 00 	nop
  8600a8:	34 00 00 00 	nop
  8600ac:	34 00 00 00 	nop
  8600b0:	34 00 00 00 	nop
  8600b4:	34 00 00 00 	nop
  8600b8:	34 00 00 00 	nop
  8600bc:	34 00 00 00 	nop

008600c0 <_interrupt_handler>:
  8600c0:	5b 9d 00 00 	sw (sp+0),ra
  8600c4:	f8 00 00 2b 	calli 860170 <.save_all>
  8600c8:	f8 00 00 54 	calli 860218 <isr>
  8600cc:	e0 00 00 39 	bi 8601b0 <.restore_all_and_eret>
  8600d0:	34 00 00 00 	nop
  8600d4:	34 00 00 00 	nop
  8600d8:	34 00 00 00 	nop
  8600dc:	34 00 00 00 	nop

008600e0 <macaddress>:
  8600e0:	10 e2 d5 00 	lb r2,(r7+-11008)
  8600e4:	00 00 00 00 	srui r0,r0,0

008600e8 <_crt0>:
  8600e8:	78 04 bb bb 	mvhi r4,0xbbbb
  8600ec:	38 84 bb bb 	ori r4,r4,0xbbbb
  8600f0:	78 13 e0 00 	mvhi r19,0xe000
  8600f4:	3a 73 40 04 	ori r19,r19,0x4004
  8600f8:	5a 64 00 00 	sw (r19+0),r4
  8600fc:	78 1c 40 9f 	mvhi sp,0x409f
  860100:	3b 9c ff fc 	ori sp,sp,0xfffc
  860104:	78 1a 00 87 	mvhi gp,0x87
  860108:	3b 5a 19 a0 	ori gp,gp,0x19a0
  86010c:	78 01 40 00 	mvhi r1,0x4000
  860110:	38 21 00 00 	ori r1,r1,0x0
  860114:	78 03 40 66 	mvhi r3,0x4066
  860118:	38 63 16 94 	ori r3,r3,0x1694

0086011c <.clearBSS>:
  86011c:	44 23 00 04 	be r1,r3,86012c <.callMain>
  860120:	58 20 00 00 	sw (r1+0),r0
  860124:	34 21 00 04 	addi r1,r1,4
  860128:	e3 ff ff fd 	bi 86011c <.clearBSS>

0086012c <.callMain>:
  86012c:	78 04 cc cc 	mvhi r4,0xcccc
  860130:	38 84 cc cc 	ori r4,r4,0xcccc
  860134:	78 13 e0 00 	mvhi r19,0xe000
  860138:	3a 73 50 04 	ori r19,r19,0x5004
  86013c:	5a 64 00 00 	sw (r19+0),r4
  860140:	b8 40 08 00 	mv r1,r2
  860144:	34 02 00 00 	mvi r2,0
  860148:	34 03 00 00 	mvi r3,0
  86014c:	e0 00 00 f4 	bi 86051c <main>
  860150:	f8 00 00 27 	calli 8601ec <print_lcd>
  860154:	e0 00 00 01 	bi 860158 <loop>

00860158 <loop>:
  860158:	34 00 00 00 	nop
  86015c:	34 00 00 00 	nop
  860160:	34 00 00 00 	nop
  860164:	34 00 00 00 	nop
  860168:	34 00 00 00 	nop
  86016c:	e3 ff ff fb 	bi 860158 <loop>

00860170 <.save_all>:
  860170:	37 9c ff c8 	addi sp,sp,-56
  860174:	5b 81 00 04 	sw (sp+4),r1
  860178:	5b 82 00 08 	sw (sp+8),r2
  86017c:	5b 83 00 0c 	sw (sp+12),r3
  860180:	5b 84 00 10 	sw (sp+16),r4
  860184:	5b 85 00 14 	sw (sp+20),r5
  860188:	5b 86 00 18 	sw (sp+24),r6
  86018c:	5b 87 00 1c 	sw (sp+28),r7
  860190:	5b 88 00 20 	sw (sp+32),r8
  860194:	5b 89 00 24 	sw (sp+36),r9
  860198:	5b 8a 00 28 	sw (sp+40),r10
  86019c:	5b 9e 00 30 	sw (sp+48),ea
  8601a0:	5b 9f 00 34 	sw (sp+52),ba
  8601a4:	2b 81 00 38 	lw r1,(sp+56)
  8601a8:	5b 81 00 2c 	sw (sp+44),r1
  8601ac:	c3 a0 00 00 	ret

008601b0 <.restore_all_and_eret>:
  8601b0:	2b 81 00 04 	lw r1,(sp+4)
  8601b4:	2b 82 00 08 	lw r2,(sp+8)
  8601b8:	2b 83 00 0c 	lw r3,(sp+12)
  8601bc:	2b 84 00 10 	lw r4,(sp+16)
  8601c0:	2b 85 00 14 	lw r5,(sp+20)
  8601c4:	2b 86 00 18 	lw r6,(sp+24)
  8601c8:	2b 87 00 1c 	lw r7,(sp+28)
  8601cc:	2b 88 00 20 	lw r8,(sp+32)
  8601d0:	2b 89 00 24 	lw r9,(sp+36)
  8601d4:	2b 8a 00 28 	lw r10,(sp+40)
  8601d8:	2b 9d 00 2c 	lw ra,(sp+44)
  8601dc:	2b 9e 00 30 	lw ea,(sp+48)
  8601e0:	2b 9f 00 34 	lw ba,(sp+52)
  8601e4:	37 9c 00 38 	addi sp,sp,56
  8601e8:	c3 c0 00 00 	eret

008601ec <print_lcd>:
  8601ec:	78 13 40 00 	mvhi r19,0x4000
  8601f0:	3a 73 00 00 	ori r19,r19,0x0
  8601f4:	2a 64 00 00 	lw r4,(r19+0)
  8601f8:	2a 65 00 04 	lw r5,(r19+4)
  8601fc:	78 13 e0 00 	mvhi r19,0xe000
  860200:	3a 73 40 04 	ori r19,r19,0x4004
  860204:	5a 64 00 00 	sw (r19+0),r4
  860208:	78 13 e0 00 	mvhi r19,0xe000
  86020c:	3a 73 10 04 	ori r19,r19,0x1004
  860210:	5a 65 00 00 	sw (r19+0),r5
  860214:	c3 a0 00 00 	ret

00860218 <isr>:
  860218:	37 9c ff f8 	addi sp,sp,-8
  86021c:	5b 8b 00 08 	sw (sp+8),r11
  860220:	5b 9d 00 04 	sw (sp+4),ra
  860224:	90 40 08 00 	rcsr r1,IP
  860228:	90 20 58 00 	rcsr r11,IM
  86022c:	a1 61 58 00 	and r11,r11,r1
  860230:	21 61 00 01 	andi r1,r11,0x1
  860234:	5c 20 00 11 	bne r1,r0,860278 <isr+0x60>
  860238:	21 61 00 02 	andi r1,r11,0x2
  86023c:	5c 20 00 0d 	bne r1,r0,860270 <isr+0x58>
  860240:	21 61 04 00 	andi r1,r11,0x400
  860244:	5c 20 00 09 	bne r1,r0,860268 <isr+0x50>
  860248:	78 01 00 02 	mvhi r1,0x2
  86024c:	a1 61 58 00 	and r11,r11,r1
  860250:	45 60 00 02 	be r11,r0,860258 <isr+0x40>
  860254:	f8 00 27 0c 	calli 869e84 <usb_isr>
  860258:	2b 9d 00 04 	lw ra,(sp+4)
  86025c:	2b 8b 00 08 	lw r11,(sp+8)
  860260:	37 9c 00 08 	addi sp,sp,8
  860264:	c3 a0 00 00 	ret
  860268:	f8 00 25 69 	calli 86980c <tmu_isr>
  86026c:	e3 ff ff f7 	bi 860248 <isr+0x30>
  860270:	f8 00 19 22 	calli 8666f8 <uart_isr_tx>
  860274:	e3 ff ff f3 	bi 860240 <isr+0x28>
  860278:	f8 00 18 f7 	calli 866654 <uart_isr_rx>
  86027c:	e3 ff ff ef 	bi 860238 <isr+0x20>

00860280 <lscb>:
  860280:	37 9c ff fc 	addi sp,sp,-4
  860284:	5b 9d 00 04 	sw (sp+4),ra
  860288:	b8 20 20 00 	mv r4,r1
  86028c:	78 01 00 86 	mvhi r1,0x86
  860290:	b8 40 18 00 	mv r3,r2
  860294:	38 21 da 7c 	ori r1,r1,0xda7c
  860298:	b8 80 10 00 	mv r2,r4
  86029c:	f8 00 14 a8 	calli 86553c <printf>
  8602a0:	34 01 00 01 	mvi r1,1
  8602a4:	2b 9d 00 04 	lw ra,(sp+4)
  8602a8:	37 9c 00 04 	addi sp,sp,4
  8602ac:	c3 a0 00 00 	ret

008602b0 <parse_csr>:
  8602b0:	37 9c ff f8 	addi sp,sp,-8
  8602b4:	5b 8b 00 08 	sw (sp+8),r11
  8602b8:	5b 9d 00 04 	sw (sp+4),ra
  8602bc:	78 02 00 86 	mvhi r2,0x86
  8602c0:	38 42 da 88 	ori r2,r2,0xda88
  8602c4:	b8 20 58 00 	mv r11,r1
  8602c8:	f8 00 11 07 	calli 8646e4 <strcmp>
  8602cc:	34 02 00 01 	mvi r2,1
  8602d0:	5c 20 00 06 	bne r1,r0,8602e8 <parse_csr+0x38>
  8602d4:	b8 40 08 00 	mv r1,r2
  8602d8:	2b 9d 00 04 	lw ra,(sp+4)
  8602dc:	2b 8b 00 08 	lw r11,(sp+8)
  8602e0:	37 9c 00 08 	addi sp,sp,8
  8602e4:	c3 a0 00 00 	ret
  8602e8:	78 02 00 86 	mvhi r2,0x86
  8602ec:	38 42 da 8c 	ori r2,r2,0xda8c
  8602f0:	b9 60 08 00 	mv r1,r11
  8602f4:	f8 00 10 fc 	calli 8646e4 <strcmp>
  8602f8:	34 02 00 02 	mvi r2,2
  8602fc:	44 20 ff f6 	be r1,r0,8602d4 <parse_csr+0x24>
  860300:	78 02 00 86 	mvhi r2,0x86
  860304:	38 42 da 90 	ori r2,r2,0xda90
  860308:	b9 60 08 00 	mv r1,r11
  86030c:	f8 00 10 f6 	calli 8646e4 <strcmp>
  860310:	34 02 00 03 	mvi r2,3
  860314:	44 20 ff f0 	be r1,r0,8602d4 <parse_csr+0x24>
  860318:	78 02 00 86 	mvhi r2,0x86
  86031c:	38 42 da 94 	ori r2,r2,0xda94
  860320:	b9 60 08 00 	mv r1,r11
  860324:	f8 00 10 f0 	calli 8646e4 <strcmp>
  860328:	34 02 00 04 	mvi r2,4
  86032c:	44 20 ff ea 	be r1,r0,8602d4 <parse_csr+0x24>
  860330:	78 02 00 86 	mvhi r2,0x86
  860334:	38 42 da 98 	ori r2,r2,0xda98
  860338:	b9 60 08 00 	mv r1,r11
  86033c:	f8 00 10 ea 	calli 8646e4 <strcmp>
  860340:	34 02 00 05 	mvi r2,5
  860344:	44 20 ff e4 	be r1,r0,8602d4 <parse_csr+0x24>
  860348:	78 02 00 86 	mvhi r2,0x86
  86034c:	38 42 da 9c 	ori r2,r2,0xda9c
  860350:	b9 60 08 00 	mv r1,r11
  860354:	f8 00 10 e4 	calli 8646e4 <strcmp>
  860358:	34 02 00 06 	mvi r2,6
  86035c:	44 20 ff de 	be r1,r0,8602d4 <parse_csr+0x24>
  860360:	78 02 00 86 	mvhi r2,0x86
  860364:	38 42 da a0 	ori r2,r2,0xdaa0
  860368:	b9 60 08 00 	mv r1,r11
  86036c:	f8 00 10 de 	calli 8646e4 <strcmp>
  860370:	34 02 00 07 	mvi r2,7
  860374:	44 20 ff d8 	be r1,r0,8602d4 <parse_csr+0x24>
  860378:	78 02 00 86 	mvhi r2,0x86
  86037c:	38 42 da a4 	ori r2,r2,0xdaa4
  860380:	b9 60 08 00 	mv r1,r11
  860384:	f8 00 10 d8 	calli 8646e4 <strcmp>
  860388:	34 02 00 08 	mvi r2,8
  86038c:	44 20 ff d2 	be r1,r0,8602d4 <parse_csr+0x24>
  860390:	78 02 00 86 	mvhi r2,0x86
  860394:	38 42 da a8 	ori r2,r2,0xdaa8
  860398:	b9 60 08 00 	mv r1,r11
  86039c:	f8 00 10 d2 	calli 8646e4 <strcmp>
  8603a0:	34 02 00 09 	mvi r2,9
  8603a4:	44 20 ff cc 	be r1,r0,8602d4 <parse_csr+0x24>
  8603a8:	78 02 00 86 	mvhi r2,0x86
  8603ac:	38 42 da ac 	ori r2,r2,0xdaac
  8603b0:	b9 60 08 00 	mv r1,r11
  8603b4:	f8 00 10 cc 	calli 8646e4 <strcmp>
  8603b8:	34 02 00 0a 	mvi r2,10
  8603bc:	44 20 ff c6 	be r1,r0,8602d4 <parse_csr+0x24>
  8603c0:	78 02 00 86 	mvhi r2,0x86
  8603c4:	38 42 da b4 	ori r2,r2,0xdab4
  8603c8:	b9 60 08 00 	mv r1,r11
  8603cc:	f8 00 10 c6 	calli 8646e4 <strcmp>
  8603d0:	34 02 00 0b 	mvi r2,11
  8603d4:	44 20 ff c0 	be r1,r0,8602d4 <parse_csr+0x24>
  8603d8:	78 02 00 86 	mvhi r2,0x86
  8603dc:	38 42 da b8 	ori r2,r2,0xdab8
  8603e0:	b9 60 08 00 	mv r1,r11
  8603e4:	f8 00 10 c0 	calli 8646e4 <strcmp>
  8603e8:	34 02 00 0c 	mvi r2,12
  8603ec:	44 20 ff ba 	be r1,r0,8602d4 <parse_csr+0x24>
  8603f0:	78 02 00 86 	mvhi r2,0x86
  8603f4:	38 42 da bc 	ori r2,r2,0xdabc
  8603f8:	b9 60 08 00 	mv r1,r11
  8603fc:	f8 00 10 ba 	calli 8646e4 <strcmp>
  860400:	34 02 00 0d 	mvi r2,13
  860404:	44 20 ff b4 	be r1,r0,8602d4 <parse_csr+0x24>
  860408:	78 02 00 86 	mvhi r2,0x86
  86040c:	38 42 da c0 	ori r2,r2,0xdac0
  860410:	b9 60 08 00 	mv r1,r11
  860414:	f8 00 10 b4 	calli 8646e4 <strcmp>
  860418:	34 02 00 0e 	mvi r2,14
  86041c:	44 20 ff ae 	be r1,r0,8602d4 <parse_csr+0x24>
  860420:	78 02 00 86 	mvhi r2,0x86
  860424:	38 42 da c4 	ori r2,r2,0xdac4
  860428:	b9 60 08 00 	mv r1,r11
  86042c:	f8 00 10 ae 	calli 8646e4 <strcmp>
  860430:	34 02 00 0f 	mvi r2,15
  860434:	44 20 ff a8 	be r1,r0,8602d4 <parse_csr+0x24>
  860438:	78 02 00 86 	mvhi r2,0x86
  86043c:	38 42 da c8 	ori r2,r2,0xdac8
  860440:	b9 60 08 00 	mv r1,r11
  860444:	f8 00 10 a8 	calli 8646e4 <strcmp>
  860448:	34 02 00 10 	mvi r2,16
  86044c:	44 20 ff a2 	be r1,r0,8602d4 <parse_csr+0x24>
  860450:	78 02 00 86 	mvhi r2,0x86
  860454:	38 42 da cc 	ori r2,r2,0xdacc
  860458:	b9 60 08 00 	mv r1,r11
  86045c:	f8 00 10 a2 	calli 8646e4 <strcmp>
  860460:	34 02 00 11 	mvi r2,17
  860464:	44 20 ff 9c 	be r1,r0,8602d4 <parse_csr+0x24>
  860468:	78 02 00 86 	mvhi r2,0x86
  86046c:	38 42 da d0 	ori r2,r2,0xdad0
  860470:	b9 60 08 00 	mv r1,r11
  860474:	f8 00 10 9c 	calli 8646e4 <strcmp>
  860478:	34 02 00 12 	mvi r2,18
  86047c:	44 20 ff 96 	be r1,r0,8602d4 <parse_csr+0x24>
  860480:	78 02 00 86 	mvhi r2,0x86
  860484:	38 42 da d4 	ori r2,r2,0xdad4
  860488:	b9 60 08 00 	mv r1,r11
  86048c:	f8 00 10 96 	calli 8646e4 <strcmp>
  860490:	34 02 00 13 	mvi r2,19
  860494:	44 20 ff 90 	be r1,r0,8602d4 <parse_csr+0x24>
  860498:	78 02 00 86 	mvhi r2,0x86
  86049c:	38 42 da d8 	ori r2,r2,0xdad8
  8604a0:	b9 60 08 00 	mv r1,r11
  8604a4:	f8 00 10 90 	calli 8646e4 <strcmp>
  8604a8:	64 21 00 00 	cmpei r1,r1,0
  8604ac:	c8 01 10 00 	sub r2,r0,r1
  8604b0:	20 42 00 14 	andi r2,r2,0x14
  8604b4:	e3 ff ff 88 	bi 8602d4 <parse_csr+0x24>

008604b8 <get_token>:
  8604b8:	37 9c ff f4 	addi sp,sp,-12
  8604bc:	5b 8b 00 0c 	sw (sp+12),r11
  8604c0:	5b 8c 00 08 	sw (sp+8),r12
  8604c4:	5b 9d 00 04 	sw (sp+4),ra
  8604c8:	b8 20 58 00 	mv r11,r1
  8604cc:	28 21 00 00 	lw r1,(r1+0)
  8604d0:	34 02 00 20 	mvi r2,32
  8604d4:	f8 00 10 3a 	calli 8645bc <strchr>
  8604d8:	44 20 00 0b 	be r1,r0,860504 <get_token+0x4c>
  8604dc:	30 20 00 00 	sb (r1+0),r0
  8604e0:	34 21 00 01 	addi r1,r1,1
  8604e4:	29 6c 00 00 	lw r12,(r11+0)
  8604e8:	59 61 00 00 	sw (r11+0),r1
  8604ec:	b9 80 08 00 	mv r1,r12
  8604f0:	2b 9d 00 04 	lw ra,(sp+4)
  8604f4:	2b 8b 00 0c 	lw r11,(sp+12)
  8604f8:	2b 8c 00 08 	lw r12,(sp+8)
  8604fc:	37 9c 00 0c 	addi sp,sp,12
  860500:	c3 a0 00 00 	ret
  860504:	29 6c 00 00 	lw r12,(r11+0)
  860508:	b9 80 08 00 	mv r1,r12
  86050c:	f8 00 10 9f 	calli 864788 <strlen>
  860510:	b5 81 08 00 	add r1,r12,r1
  860514:	59 61 00 00 	sw (r11+0),r1
  860518:	e3 ff ff f5 	bi 8604ec <get_token+0x34>

0086051c <main>:
  86051c:	37 9c ff 00 	addi sp,sp,-256
  860520:	5b 8b 00 44 	sw (sp+68),r11
  860524:	5b 8c 00 40 	sw (sp+64),r12
  860528:	5b 8d 00 3c 	sw (sp+60),r13
  86052c:	5b 8e 00 38 	sw (sp+56),r14
  860530:	5b 8f 00 34 	sw (sp+52),r15
  860534:	5b 90 00 30 	sw (sp+48),r16
  860538:	5b 91 00 2c 	sw (sp+44),r17
  86053c:	5b 92 00 28 	sw (sp+40),r18
  860540:	5b 93 00 24 	sw (sp+36),r19
  860544:	5b 94 00 20 	sw (sp+32),r20
  860548:	5b 95 00 1c 	sw (sp+28),r21
  86054c:	5b 96 00 18 	sw (sp+24),r22
  860550:	5b 97 00 14 	sw (sp+20),r23
  860554:	5b 98 00 10 	sw (sp+16),r24
  860558:	5b 99 00 0c 	sw (sp+12),r25
  86055c:	5b 9b 00 08 	sw (sp+8),fp
  860560:	5b 9d 00 04 	sw (sp+4),ra
  860564:	78 05 00 86 	mvhi r5,0x86
  860568:	38 a5 e0 d0 	ori r5,r5,0xe0d0
  86056c:	28 a3 00 00 	lw r3,(r5+0)
  860570:	78 01 00 86 	mvhi r1,0x86
  860574:	38 21 05 1c 	ori r1,r1,0x51c
  860578:	78 02 00 86 	mvhi r2,0x86
  86057c:	f0 41 10 00 	cmpgeu r2,r2,r1
  860580:	34 04 00 01 	mvi r4,1
  860584:	78 01 40 66 	mvhi r1,0x4066
  860588:	58 64 00 00 	sw (r3+0),r4
  86058c:	38 21 16 68 	ori r1,r1,0x1668
  860590:	58 22 00 00 	sw (r1+0),r2
  860594:	34 01 00 00 	mvi r1,0
  860598:	d0 21 00 00 	wcsr IM,r1
  86059c:	34 01 00 01 	mvi r1,1
  8605a0:	d0 01 00 00 	wcsr IE,r1
  8605a4:	f8 00 18 99 	calli 866808 <uart_init>
  8605a8:	78 01 40 66 	mvhi r1,0x4066
  8605ac:	38 21 16 68 	ori r1,r1,0x1668
  8605b0:	28 21 00 00 	lw r1,(r1+0)
  8605b4:	44 20 03 40 	be r1,r0,8612b4 <main+0xd98>
  8605b8:	f8 00 0d 50 	calli 863af8 <netboot>
  8605bc:	f8 00 0c 73 	calli 863788 <serialboot>
  8605c0:	34 01 00 00 	mvi r1,0
  8605c4:	f8 00 0d ca 	calli 863cec <fsboot>
  8605c8:	f8 00 0e 29 	calli 863e6c <flashboot>
  8605cc:	78 02 00 86 	mvhi r2,0x86
  8605d0:	78 05 00 86 	mvhi r5,0x86
  8605d4:	5b 82 00 48 	sw (sp+72),r2
  8605d8:	5b 85 00 4c 	sw (sp+76),r5
  8605dc:	78 02 00 86 	mvhi r2,0x86
  8605e0:	78 05 00 86 	mvhi r5,0x86
  8605e4:	5b 82 00 50 	sw (sp+80),r2
  8605e8:	5b 85 00 58 	sw (sp+88),r5
  8605ec:	78 02 00 86 	mvhi r2,0x86
  8605f0:	78 05 00 86 	mvhi r5,0x86
  8605f4:	5b 82 00 5c 	sw (sp+92),r2
  8605f8:	5b 85 00 60 	sw (sp+96),r5
  8605fc:	78 02 00 86 	mvhi r2,0x86
  860600:	78 05 00 86 	mvhi r5,0x86
  860604:	5b 82 00 64 	sw (sp+100),r2
  860608:	5b 85 00 68 	sw (sp+104),r5
  86060c:	78 02 00 86 	mvhi r2,0x86
  860610:	78 05 00 86 	mvhi r5,0x86
  860614:	5b 82 00 6c 	sw (sp+108),r2
  860618:	5b 85 00 7c 	sw (sp+124),r5
  86061c:	78 02 00 86 	mvhi r2,0x86
  860620:	78 05 00 86 	mvhi r5,0x86
  860624:	5b 82 00 80 	sw (sp+128),r2
  860628:	5b 85 00 84 	sw (sp+132),r5
  86062c:	78 02 00 86 	mvhi r2,0x86
  860630:	78 05 00 86 	mvhi r5,0x86
  860634:	5b 82 00 88 	sw (sp+136),r2
  860638:	5b 85 00 8c 	sw (sp+140),r5
  86063c:	78 02 00 86 	mvhi r2,0x86
  860640:	78 05 00 86 	mvhi r5,0x86
  860644:	5b 82 00 70 	sw (sp+112),r2
  860648:	5b 85 00 74 	sw (sp+116),r5
  86064c:	78 02 00 86 	mvhi r2,0x86
  860650:	78 05 00 86 	mvhi r5,0x86
  860654:	5b 82 00 78 	sw (sp+120),r2
  860658:	5b 85 00 54 	sw (sp+84),r5
  86065c:	78 02 00 86 	mvhi r2,0x86
  860660:	78 05 00 86 	mvhi r5,0x86
  860664:	5b 82 00 90 	sw (sp+144),r2
  860668:	5b 85 00 94 	sw (sp+148),r5
  86066c:	78 02 00 86 	mvhi r2,0x86
  860670:	78 05 00 86 	mvhi r5,0x86
  860674:	5b 82 00 98 	sw (sp+152),r2
  860678:	5b 85 00 9c 	sw (sp+156),r5
  86067c:	78 02 00 86 	mvhi r2,0x86
  860680:	78 05 00 86 	mvhi r5,0x86
  860684:	5b 82 00 a0 	sw (sp+160),r2
  860688:	5b 85 00 a4 	sw (sp+164),r5
  86068c:	78 02 00 86 	mvhi r2,0x86
  860690:	78 05 00 86 	mvhi r5,0x86
  860694:	78 01 00 86 	mvhi r1,0x86
  860698:	78 1b 00 86 	mvhi fp,0x86
  86069c:	5b 82 00 a8 	sw (sp+168),r2
  8606a0:	5b 85 00 ac 	sw (sp+172),r5
  8606a4:	78 02 00 86 	mvhi r2,0x86
  8606a8:	78 05 00 86 	mvhi r5,0x86
  8606ac:	38 21 da dc 	ori r1,r1,0xdadc
  8606b0:	5b 82 00 b0 	sw (sp+176),r2
  8606b4:	5b 85 00 b4 	sw (sp+180),r5
  8606b8:	f8 00 13 a1 	calli 86553c <printf>
  8606bc:	2b 81 00 48 	lw r1,(sp+72)
  8606c0:	2b 82 00 4c 	lw r2,(sp+76)
  8606c4:	2b 85 00 50 	lw r5,(sp+80)
  8606c8:	38 21 da f8 	ori r1,r1,0xdaf8
  8606cc:	5b 81 00 48 	sw (sp+72),r1
  8606d0:	38 42 db 0c 	ori r2,r2,0xdb0c
  8606d4:	2b 81 00 58 	lw r1,(sp+88)
  8606d8:	5b 82 00 4c 	sw (sp+76),r2
  8606dc:	2b 82 00 5c 	lw r2,(sp+92)
  8606e0:	38 a5 db 14 	ori r5,r5,0xdb14
  8606e4:	38 21 db 1c 	ori r1,r1,0xdb1c
  8606e8:	5b 85 00 50 	sw (sp+80),r5
  8606ec:	5b 81 00 58 	sw (sp+88),r1
  8606f0:	2b 85 00 60 	lw r5,(sp+96)
  8606f4:	2b 81 00 64 	lw r1,(sp+100)
  8606f8:	38 42 db 90 	ori r2,r2,0xdb90
  8606fc:	5b 82 00 5c 	sw (sp+92),r2
  860700:	2b 82 00 68 	lw r2,(sp+104)
  860704:	38 a5 db dc 	ori r5,r5,0xdbdc
  860708:	38 21 dc 34 	ori r1,r1,0xdc34
  86070c:	5b 85 00 60 	sw (sp+96),r5
  860710:	5b 81 00 64 	sw (sp+100),r1
  860714:	2b 85 00 6c 	lw r5,(sp+108)
  860718:	2b 81 00 7c 	lw r1,(sp+124)
  86071c:	38 42 dc 60 	ori r2,r2,0xdc60
  860720:	5b 82 00 68 	sw (sp+104),r2
  860724:	2b 82 00 80 	lw r2,(sp+128)
  860728:	38 a5 dc 64 	ori r5,r5,0xdc64
  86072c:	38 21 dc 88 	ori r1,r1,0xdc88
  860730:	5b 85 00 6c 	sw (sp+108),r5
  860734:	5b 81 00 7c 	sw (sp+124),r1
  860738:	2b 85 00 84 	lw r5,(sp+132)
  86073c:	2b 81 00 88 	lw r1,(sp+136)
  860740:	38 42 dc 90 	ori r2,r2,0xdc90
  860744:	5b 82 00 80 	sw (sp+128),r2
  860748:	2b 82 00 8c 	lw r2,(sp+140)
  86074c:	38 a5 dc 9c 	ori r5,r5,0xdc9c
  860750:	38 21 dc a4 	ori r1,r1,0xdca4
  860754:	5b 85 00 84 	sw (sp+132),r5
  860758:	5b 81 00 88 	sw (sp+136),r1
  86075c:	2b 85 00 70 	lw r5,(sp+112)
  860760:	2b 81 00 74 	lw r1,(sp+116)
  860764:	38 42 dc b0 	ori r2,r2,0xdcb0
  860768:	5b 82 00 8c 	sw (sp+140),r2
  86076c:	2b 82 00 78 	lw r2,(sp+120)
  860770:	38 a5 dc e8 	ori r5,r5,0xdce8
  860774:	38 21 dd 0c 	ori r1,r1,0xdd0c
  860778:	5b 85 00 70 	sw (sp+112),r5
  86077c:	5b 81 00 74 	sw (sp+116),r1
  860780:	38 42 dd 1c 	ori r2,r2,0xdd1c
  860784:	5b 82 00 78 	sw (sp+120),r2
  860788:	2b 85 00 54 	lw r5,(sp+84)
  86078c:	2b 81 00 90 	lw r1,(sp+144)
  860790:	2b 82 00 94 	lw r2,(sp+148)
  860794:	38 a5 db 08 	ori r5,r5,0xdb08
  860798:	38 21 dd 24 	ori r1,r1,0xdd24
  86079c:	5b 85 00 54 	sw (sp+84),r5
  8607a0:	5b 81 00 90 	sw (sp+144),r1
  8607a4:	2b 85 00 98 	lw r5,(sp+152)
  8607a8:	2b 81 00 9c 	lw r1,(sp+156)
  8607ac:	38 42 dd 2c 	ori r2,r2,0xdd2c
  8607b0:	38 a5 e0 44 	ori r5,r5,0xe044
  8607b4:	38 21 e0 50 	ori r1,r1,0xe050
  8607b8:	5b 82 00 94 	sw (sp+148),r2
  8607bc:	5b 85 00 98 	sw (sp+152),r5
  8607c0:	2b 82 00 a0 	lw r2,(sp+160)
  8607c4:	2b 85 00 a4 	lw r5,(sp+164)
  8607c8:	5b 81 00 9c 	sw (sp+156),r1
  8607cc:	2b 81 00 a8 	lw r1,(sp+168)
  8607d0:	38 42 e0 8c 	ori r2,r2,0xe08c
  8607d4:	38 a5 f1 10 	ori r5,r5,0xf110
  8607d8:	38 21 e0 bc 	ori r1,r1,0xe0bc
  8607dc:	5b 82 00 a0 	sw (sp+160),r2
  8607e0:	5b 85 00 a4 	sw (sp+164),r5
  8607e4:	2b 82 00 ac 	lw r2,(sp+172)
  8607e8:	2b 85 00 b0 	lw r5,(sp+176)
  8607ec:	5b 81 00 a8 	sw (sp+168),r1
  8607f0:	2b 81 00 b4 	lw r1,(sp+180)
  8607f4:	38 42 e0 94 	ori r2,r2,0xe094
  8607f8:	38 a5 e1 04 	ori r5,r5,0xe104
  8607fc:	38 21 e0 d4 	ori r1,r1,0xe0d4
  860800:	37 99 00 b8 	addi r25,sp,184
  860804:	3b 7b e4 c8 	ori fp,fp,0xe4c8
  860808:	5b 82 00 ac 	sw (sp+172),r2
  86080c:	5b 85 00 b0 	sw (sp+176),r5
  860810:	5b 81 00 b4 	sw (sp+180),r1
  860814:	2b 81 00 48 	lw r1,(sp+72)
  860818:	34 0b 00 00 	mvi r11,0
  86081c:	34 0c 00 0a 	mvi r12,10
  860820:	f8 00 13 28 	calli 8654c0 <putsnonl>
  860824:	34 0e 00 1b 	mvi r14,27
  860828:	33 80 01 01 	sb (sp+257),r0
  86082c:	34 10 00 7f 	mvi r16,127
  860830:	34 11 00 0d 	mvi r17,13
  860834:	34 0d 00 07 	mvi r13,7
  860838:	34 0f 00 08 	mvi r15,8
  86083c:	f8 00 12 d5 	calli 865390 <readchar>
  860840:	33 81 01 00 	sb (sp+256),r1
  860844:	44 2c 00 0d 	be r1,r12,860878 <main+0x35c>
  860848:	48 2c 00 8e 	bg r1,r12,860a80 <main+0x564>
  86084c:	44 2d ff fc 	be r1,r13,86083c <main+0x320>
  860850:	44 2f 00 90 	be r1,r15,860a90 <main+0x574>
  860854:	37 81 01 00 	addi r1,sp,256
  860858:	f8 00 13 1a 	calli 8654c0 <putsnonl>
  86085c:	43 82 01 00 	lbu r2,(sp+256)
  860860:	b7 2b 18 00 	add r3,r25,r11
  860864:	35 6b 00 01 	addi r11,r11,1
  860868:	30 62 00 00 	sb (r3+0),r2
  86086c:	f8 00 12 c9 	calli 865390 <readchar>
  860870:	33 81 01 00 	sb (sp+256),r1
  860874:	5c 2c ff f5 	bne r1,r12,860848 <main+0x32c>
  860878:	b7 2b 18 00 	add r3,r25,r11
  86087c:	bb 60 08 00 	mv r1,fp
  860880:	30 60 00 00 	sb (r3+0),r0
  860884:	f8 00 13 0f 	calli 8654c0 <putsnonl>
  860888:	bb 20 08 00 	mv r1,r25
  86088c:	34 02 00 20 	mvi r2,32
  860890:	5b 99 00 fc 	sw (sp+252),r25
  860894:	f8 00 0f 4a 	calli 8645bc <strchr>
  860898:	44 20 00 de 	be r1,r0,860c10 <main+0x6f4>
  86089c:	30 20 00 00 	sb (r1+0),r0
  8608a0:	34 23 00 01 	addi r3,r1,1
  8608a4:	2b 8c 00 fc 	lw r12,(sp+252)
  8608a8:	5b 83 00 fc 	sw (sp+252),r3
  8608ac:	2b 82 00 4c 	lw r2,(sp+76)
  8608b0:	b9 80 08 00 	mv r1,r12
  8608b4:	f8 00 0f 8c 	calli 8646e4 <strcmp>
  8608b8:	44 20 00 7f 	be r1,r0,860ab4 <main+0x598>
  8608bc:	2b 82 00 50 	lw r2,(sp+80)
  8608c0:	b9 80 08 00 	mv r1,r12
  8608c4:	f8 00 0f 88 	calli 8646e4 <strcmp>
  8608c8:	44 20 00 7f 	be r1,r0,860ac4 <main+0x5a8>
  8608cc:	2b 82 00 58 	lw r2,(sp+88)
  8608d0:	b9 80 08 00 	mv r1,r12
  8608d4:	f8 00 0f 84 	calli 8646e4 <strcmp>
  8608d8:	b8 20 58 00 	mv r11,r1
  8608dc:	5c 20 00 7c 	bne r1,r0,860acc <main+0x5b0>
  8608e0:	2b 81 00 fc 	lw r1,(sp+252)
  8608e4:	34 02 00 20 	mvi r2,32
  8608e8:	f8 00 0f 35 	calli 8645bc <strchr>
  8608ec:	44 2b 01 b9 	be r1,r11,860fd0 <main+0xab4>
  8608f0:	30 20 00 00 	sb (r1+0),r0
  8608f4:	34 23 00 01 	addi r3,r1,1
  8608f8:	2b 8b 00 fc 	lw r11,(sp+252)
  8608fc:	5b 83 00 fc 	sw (sp+252),r3
  860900:	b8 60 08 00 	mv r1,r3
  860904:	34 02 00 20 	mvi r2,32
  860908:	f8 00 0f 2d 	calli 8645bc <strchr>
  86090c:	44 20 01 ab 	be r1,r0,860fb8 <main+0xa9c>
  860910:	30 20 00 00 	sb (r1+0),r0
  860914:	34 23 00 01 	addi r3,r1,1
  860918:	2b 8c 00 fc 	lw r12,(sp+252)
  86091c:	5b 83 00 fc 	sw (sp+252),r3
  860920:	11 63 00 00 	lb r3,(r11+0)
  860924:	44 60 00 b6 	be r3,r0,860bfc <main+0x6e0>
  860928:	37 8d 00 f8 	addi r13,sp,248
  86092c:	34 03 00 00 	mvi r3,0
  860930:	b9 60 08 00 	mv r1,r11
  860934:	b9 a0 10 00 	mv r2,r13
  860938:	f8 00 10 81 	calli 864b3c <strtoul>
  86093c:	2b 83 00 f8 	lw r3,(sp+248)
  860940:	b8 20 b0 00 	mv r22,r1
  860944:	10 64 00 00 	lb r4,(r3+0)
  860948:	5c 80 00 d9 	bne r4,r0,860cac <main+0x790>
  86094c:	11 83 00 00 	lb r3,(r12+0)
  860950:	44 64 00 dc 	be r3,r4,860cc0 <main+0x7a4>
  860954:	34 03 00 00 	mvi r3,0
  860958:	b9 80 08 00 	mv r1,r12
  86095c:	b9 a0 10 00 	mv r2,r13
  860960:	f8 00 10 77 	calli 864b3c <strtoul>
  860964:	2b 83 00 f8 	lw r3,(sp+248)
  860968:	b8 20 98 00 	mv r19,r1
  86096c:	10 6b 00 00 	lb r11,(r3+0)
  860970:	5d 60 01 0c 	bne r11,r0,860da0 <main+0x884>
  860974:	78 03 00 86 	mvhi r3,0x86
  860978:	b8 60 08 00 	mv r1,r3
  86097c:	38 21 db 60 	ori r1,r1,0xdb60
  860980:	f8 00 12 d0 	calli 8654c0 <putsnonl>
  860984:	4d 73 00 7a 	bge r11,r19,860b6c <main+0x650>
  860988:	ba c0 70 00 	mv r14,r22
  86098c:	78 17 00 86 	mvhi r23,0x86
  860990:	78 11 00 86 	mvhi r17,0x86
  860994:	78 0f 00 86 	mvhi r15,0x86
  860998:	78 10 00 86 	mvhi r16,0x86
  86099c:	78 15 00 86 	mvhi r21,0x86
  8609a0:	78 14 00 86 	mvhi r20,0x86
  8609a4:	3a f7 db 70 	ori r23,r23,0xdb70
  8609a8:	3a 31 db 7c 	ori r17,r17,0xdb7c
  8609ac:	39 ef db 78 	ori r15,r15,0xdb78
  8609b0:	34 18 00 10 	mvi r24,16
  8609b4:	34 0d 00 0f 	mvi r13,15
  8609b8:	3a 10 db 84 	ori r16,r16,0xdb84
  8609bc:	34 12 00 5e 	mvi r18,94
  8609c0:	3a b5 db 8c 	ori r21,r21,0xdb8c
  8609c4:	3a 94 db 88 	ori r20,r20,0xdb88
  8609c8:	ba 60 60 00 	mv r12,r19
  8609cc:	4f 13 00 02 	bge r24,r19,8609d4 <main+0x4b8>
  8609d0:	34 0c 00 10 	mvi r12,16
  8609d4:	ba e0 08 00 	mv r1,r23
  8609d8:	ba c0 10 00 	mv r2,r22
  8609dc:	f8 00 12 d8 	calli 86553c <printf>
  8609e0:	34 0b 00 00 	mvi r11,0
  8609e4:	b5 cb 10 00 	add r2,r14,r11
  8609e8:	40 42 00 00 	lbu r2,(r2+0)
  8609ec:	35 6b 00 01 	addi r11,r11,1
  8609f0:	ba 20 08 00 	mv r1,r17
  8609f4:	f8 00 12 d2 	calli 86553c <printf>
  8609f8:	49 8b ff fb 	bg r12,r11,8609e4 <main+0x4c8>
  8609fc:	4d ab 00 14 	bge r13,r11,860a4c <main+0x530>
  860a00:	b9 e0 08 00 	mv r1,r15
  860a04:	f8 00 12 ce 	calli 86553c <printf>
  860a08:	34 0b 00 00 	mvi r11,0
  860a0c:	b5 cb 10 00 	add r2,r14,r11
  860a10:	10 42 00 00 	lb r2,(r2+0)
  860a14:	34 43 ff e0 	addi r3,r2,-32
  860a18:	20 63 00 ff 	andi r3,r3,0xff
  860a1c:	52 43 00 16 	bgeu r18,r3,860a74 <main+0x558>
  860a20:	ba 80 08 00 	mv r1,r20
  860a24:	f8 00 12 c6 	calli 86553c <printf>
  860a28:	35 6b 00 01 	addi r11,r11,1
  860a2c:	49 8b ff f8 	bg r12,r11,860a0c <main+0x4f0>
  860a30:	4d ab 00 0c 	bge r13,r11,860a60 <main+0x544>
  860a34:	ca 6c 98 00 	sub r19,r19,r12
  860a38:	4c 13 00 4d 	bge r0,r19,860b6c <main+0x650>
  860a3c:	b1 80 18 00 	sextb r3,r12
  860a40:	b5 c3 70 00 	add r14,r14,r3
  860a44:	b6 cc b0 00 	add r22,r22,r12
  860a48:	e3 ff ff e0 	bi 8609c8 <main+0x4ac>
  860a4c:	35 6b 00 01 	addi r11,r11,1
  860a50:	ba 00 08 00 	mv r1,r16
  860a54:	f8 00 12 ba 	calli 86553c <printf>
  860a58:	4d ab ff fd 	bge r13,r11,860a4c <main+0x530>
  860a5c:	e3 ff ff e9 	bi 860a00 <main+0x4e4>
  860a60:	35 6b 00 01 	addi r11,r11,1
  860a64:	b9 e0 08 00 	mv r1,r15
  860a68:	f8 00 12 b5 	calli 86553c <printf>
  860a6c:	4d ab ff fd 	bge r13,r11,860a60 <main+0x544>
  860a70:	e3 ff ff f1 	bi 860a34 <main+0x518>
  860a74:	ba a0 08 00 	mv r1,r21
  860a78:	f8 00 12 b1 	calli 86553c <printf>
  860a7c:	e3 ff ff eb 	bi 860a28 <main+0x50c>
  860a80:	44 2e 00 09 	be r1,r14,860aa4 <main+0x588>
  860a84:	44 30 00 03 	be r1,r16,860a90 <main+0x574>
  860a88:	5c 31 ff 73 	bne r1,r17,860854 <main+0x338>
  860a8c:	e3 ff ff 7b 	bi 860878 <main+0x35c>
  860a90:	45 60 ff 6b 	be r11,r0,86083c <main+0x320>
  860a94:	2b 81 00 54 	lw r1,(sp+84)
  860a98:	35 6b ff ff 	addi r11,r11,-1
  860a9c:	f8 00 12 89 	calli 8654c0 <putsnonl>
  860aa0:	e3 ff ff 67 	bi 86083c <main+0x320>
  860aa4:	f8 00 29 61 	calli 86b028 <vga_get_console>
  860aa8:	64 21 00 00 	cmpei r1,r1,0
  860aac:	f8 00 29 4c 	calli 86afdc <vga_set_console>
  860ab0:	e3 ff ff 63 	bi 86083c <main+0x320>
  860ab4:	f8 00 29 5d 	calli 86b028 <vga_get_console>
  860ab8:	64 21 00 00 	cmpei r1,r1,0
  860abc:	f8 00 29 48 	calli 86afdc <vga_set_console>
  860ac0:	e3 ff ff 55 	bi 860814 <main+0x2f8>
  860ac4:	f8 00 16 2a 	calli 86636c <flush_bridge_cache>
  860ac8:	e3 ff ff 53 	bi 860814 <main+0x2f8>
  860acc:	2b 82 00 5c 	lw r2,(sp+92)
  860ad0:	b9 80 08 00 	mv r1,r12
  860ad4:	f8 00 0f 04 	calli 8646e4 <strcmp>
  860ad8:	b8 20 58 00 	mv r11,r1
  860adc:	44 20 00 27 	be r1,r0,860b78 <main+0x65c>
  860ae0:	2b 82 00 60 	lw r2,(sp+96)
  860ae4:	b9 80 08 00 	mv r1,r12
  860ae8:	f8 00 0e ff 	calli 8646e4 <strcmp>
  860aec:	b8 20 58 00 	mv r11,r1
  860af0:	44 20 00 4e 	be r1,r0,860c28 <main+0x70c>
  860af4:	2b 82 00 64 	lw r2,(sp+100)
  860af8:	b9 80 08 00 	mv r1,r12
  860afc:	f8 00 0e fa 	calli 8646e4 <strcmp>
  860b00:	b8 20 58 00 	mv r11,r1
  860b04:	5c 20 00 76 	bne r1,r0,860cdc <main+0x7c0>
  860b08:	2b 81 00 fc 	lw r1,(sp+252)
  860b0c:	34 02 00 20 	mvi r2,32
  860b10:	f8 00 0e ab 	calli 8645bc <strchr>
  860b14:	44 2b 01 84 	be r1,r11,861124 <main+0xc08>
  860b18:	30 20 00 00 	sb (r1+0),r0
  860b1c:	34 23 00 01 	addi r3,r1,1
  860b20:	2b 8c 00 fc 	lw r12,(sp+252)
  860b24:	5b 83 00 fc 	sw (sp+252),r3
  860b28:	b8 60 08 00 	mv r1,r3
  860b2c:	34 02 00 20 	mvi r2,32
  860b30:	f8 00 0e a3 	calli 8645bc <strchr>
  860b34:	44 20 01 76 	be r1,r0,86110c <main+0xbf0>
  860b38:	30 20 00 00 	sb (r1+0),r0
  860b3c:	34 23 00 01 	addi r3,r1,1
  860b40:	2b 8b 00 fc 	lw r11,(sp+252)
  860b44:	5b 83 00 fc 	sw (sp+252),r3
  860b48:	11 83 00 00 	lb r3,(r12+0)
  860b4c:	44 60 00 03 	be r3,r0,860b58 <main+0x63c>
  860b50:	11 63 00 00 	lb r3,(r11+0)
  860b54:	5c 60 00 db 	bne r3,r0,860ec0 <main+0x9a4>
  860b58:	78 03 00 86 	mvhi r3,0x86
  860b5c:	b8 60 08 00 	mv r1,r3
  860b60:	38 21 dc 38 	ori r1,r1,0xdc38
  860b64:	f8 00 12 76 	calli 86553c <printf>
  860b68:	e3 ff ff 2b 	bi 860814 <main+0x2f8>
  860b6c:	bb 60 08 00 	mv r1,fp
  860b70:	f8 00 12 73 	calli 86553c <printf>
  860b74:	e3 ff ff 28 	bi 860814 <main+0x2f8>
  860b78:	2b 81 00 fc 	lw r1,(sp+252)
  860b7c:	34 02 00 20 	mvi r2,32
  860b80:	f8 00 0e 8f 	calli 8645bc <strchr>
  860b84:	44 2b 01 36 	be r1,r11,86105c <main+0xb40>
  860b88:	30 20 00 00 	sb (r1+0),r0
  860b8c:	34 23 00 01 	addi r3,r1,1
  860b90:	2b 8c 00 fc 	lw r12,(sp+252)
  860b94:	5b 83 00 fc 	sw (sp+252),r3
  860b98:	b8 60 08 00 	mv r1,r3
  860b9c:	34 02 00 20 	mvi r2,32
  860ba0:	f8 00 0e 87 	calli 8645bc <strchr>
  860ba4:	44 20 01 20 	be r1,r0,861024 <main+0xb08>
  860ba8:	30 20 00 00 	sb (r1+0),r0
  860bac:	34 23 00 01 	addi r3,r1,1
  860bb0:	2b 8b 00 fc 	lw r11,(sp+252)
  860bb4:	5b 83 00 fc 	sw (sp+252),r3
  860bb8:	b8 60 08 00 	mv r1,r3
  860bbc:	34 02 00 20 	mvi r2,32
  860bc0:	f8 00 0e 7f 	calli 8645bc <strchr>
  860bc4:	44 20 01 1e 	be r1,r0,86103c <main+0xb20>
  860bc8:	30 20 00 00 	sb (r1+0),r0
  860bcc:	34 23 00 01 	addi r3,r1,1
  860bd0:	2b 8d 00 fc 	lw r13,(sp+252)
  860bd4:	5b 83 00 fc 	sw (sp+252),r3
  860bd8:	11 83 00 00 	lb r3,(r12+0)
  860bdc:	44 60 00 03 	be r3,r0,860be8 <main+0x6cc>
  860be0:	11 63 00 00 	lb r3,(r11+0)
  860be4:	5c 60 00 54 	bne r3,r0,860d34 <main+0x818>
  860be8:	78 03 00 86 	mvhi r3,0x86
  860bec:	b8 60 08 00 	mv r1,r3
  860bf0:	38 21 db 94 	ori r1,r1,0xdb94
  860bf4:	f8 00 12 52 	calli 86553c <printf>
  860bf8:	e3 ff ff 07 	bi 860814 <main+0x2f8>
  860bfc:	78 03 00 86 	mvhi r3,0x86
  860c00:	b8 60 08 00 	mv r1,r3
  860c04:	38 21 db 20 	ori r1,r1,0xdb20
  860c08:	f8 00 12 4d 	calli 86553c <printf>
  860c0c:	e3 ff ff 02 	bi 860814 <main+0x2f8>
  860c10:	2b 8c 00 fc 	lw r12,(sp+252)
  860c14:	b9 80 08 00 	mv r1,r12
  860c18:	f8 00 0e dc 	calli 864788 <strlen>
  860c1c:	b5 81 18 00 	add r3,r12,r1
  860c20:	5b 83 00 fc 	sw (sp+252),r3
  860c24:	e3 ff ff 22 	bi 8608ac <main+0x390>
  860c28:	2b 81 00 fc 	lw r1,(sp+252)
  860c2c:	34 02 00 20 	mvi r2,32
  860c30:	f8 00 0e 63 	calli 8645bc <strchr>
  860c34:	44 2b 01 2c 	be r1,r11,8610e4 <main+0xbc8>
  860c38:	30 20 00 00 	sb (r1+0),r0
  860c3c:	34 23 00 01 	addi r3,r1,1
  860c40:	2b 8d 00 fc 	lw r13,(sp+252)
  860c44:	5b 83 00 fc 	sw (sp+252),r3
  860c48:	b8 60 08 00 	mv r1,r3
  860c4c:	34 02 00 20 	mvi r2,32
  860c50:	f8 00 0e 5b 	calli 8645bc <strchr>
  860c54:	44 20 01 4a 	be r1,r0,86117c <main+0xc60>
  860c58:	30 20 00 00 	sb (r1+0),r0
  860c5c:	34 23 00 01 	addi r3,r1,1
  860c60:	2b 8b 00 fc 	lw r11,(sp+252)
  860c64:	5b 83 00 fc 	sw (sp+252),r3
  860c68:	b8 60 08 00 	mv r1,r3
  860c6c:	34 02 00 20 	mvi r2,32
  860c70:	f8 00 0e 53 	calli 8645bc <strchr>
  860c74:	44 20 01 3c 	be r1,r0,861164 <main+0xc48>
  860c78:	30 20 00 00 	sb (r1+0),r0
  860c7c:	34 23 00 01 	addi r3,r1,1
  860c80:	2b 8c 00 fc 	lw r12,(sp+252)
  860c84:	5b 83 00 fc 	sw (sp+252),r3
  860c88:	11 a3 00 00 	lb r3,(r13+0)
  860c8c:	44 60 00 03 	be r3,r0,860c98 <main+0x77c>
  860c90:	11 63 00 00 	lb r3,(r11+0)
  860c94:	5c 60 00 6d 	bne r3,r0,860e48 <main+0x92c>
  860c98:	78 03 00 86 	mvhi r3,0x86
  860c9c:	b8 60 08 00 	mv r1,r3
  860ca0:	38 21 db e0 	ori r1,r1,0xdbe0
  860ca4:	f8 00 12 26 	calli 86553c <printf>
  860ca8:	e3 ff fe db 	bi 860814 <main+0x2f8>
  860cac:	78 03 00 86 	mvhi r3,0x86
  860cb0:	b8 60 08 00 	mv r1,r3
  860cb4:	38 21 db 38 	ori r1,r1,0xdb38
  860cb8:	f8 00 12 21 	calli 86553c <printf>
  860cbc:	e3 ff fe d6 	bi 860814 <main+0x2f8>
  860cc0:	78 03 00 86 	mvhi r3,0x86
  860cc4:	b8 60 08 00 	mv r1,r3
  860cc8:	38 21 db 60 	ori r1,r1,0xdb60
  860ccc:	ba c0 70 00 	mv r14,r22
  860cd0:	f8 00 11 fc 	calli 8654c0 <putsnonl>
  860cd4:	34 13 00 01 	mvi r19,1
  860cd8:	e3 ff ff 2d 	bi 86098c <main+0x470>
  860cdc:	2b 82 00 68 	lw r2,(sp+104)
  860ce0:	b9 80 08 00 	mv r1,r12
  860ce4:	f8 00 0e 80 	calli 8646e4 <strcmp>
  860ce8:	b8 20 58 00 	mv r11,r1
  860cec:	5c 20 00 32 	bne r1,r0,860db4 <main+0x898>
  860cf0:	2b 81 00 fc 	lw r1,(sp+252)
  860cf4:	34 02 00 20 	mvi r2,32
  860cf8:	f8 00 0e 31 	calli 8645bc <strchr>
  860cfc:	44 2b 01 42 	be r1,r11,861204 <main+0xce8>
  860d00:	30 20 00 00 	sb (r1+0),r0
  860d04:	34 23 00 01 	addi r3,r1,1
  860d08:	5b 83 00 fc 	sw (sp+252),r3
  860d0c:	34 01 00 00 	mvi r1,0
  860d10:	f8 00 12 3e 	calli 865608 <fatfs_init>
  860d14:	44 20 fe c0 	be r1,r0,860814 <main+0x2f8>
  860d18:	78 03 00 86 	mvhi r3,0x86
  860d1c:	b8 60 08 00 	mv r1,r3
  860d20:	34 02 00 00 	mvi r2,0
  860d24:	38 21 02 80 	ori r1,r1,0x280
  860d28:	f8 00 13 08 	calli 865948 <fatfs_list_files>
  860d2c:	f8 00 15 81 	calli 866330 <fatfs_done>
  860d30:	e3 ff fe b9 	bi 860814 <main+0x2f8>
  860d34:	37 8f 00 f8 	addi r15,sp,248
  860d38:	b9 80 08 00 	mv r1,r12
  860d3c:	34 03 00 00 	mvi r3,0
  860d40:	b9 e0 10 00 	mv r2,r15
  860d44:	f8 00 0f 7e 	calli 864b3c <strtoul>
  860d48:	2b 83 00 f8 	lw r3,(sp+248)
  860d4c:	b8 20 80 00 	mv r16,r1
  860d50:	10 6c 00 00 	lb r12,(r3+0)
  860d54:	5d 80 ff d6 	bne r12,r0,860cac <main+0x790>
  860d58:	b9 60 08 00 	mv r1,r11
  860d5c:	34 03 00 00 	mvi r3,0
  860d60:	b9 e0 10 00 	mv r2,r15
  860d64:	f8 00 0f 76 	calli 864b3c <strtoul>
  860d68:	2b 83 00 f8 	lw r3,(sp+248)
  860d6c:	b8 20 58 00 	mv r11,r1
  860d70:	10 6e 00 00 	lb r14,(r3+0)
  860d74:	5d cc 00 d2 	bne r14,r12,8610bc <main+0xba0>
  860d78:	11 a3 00 00 	lb r3,(r13+0)
  860d7c:	5c 6e 00 a0 	bne r3,r14,860ffc <main+0xae0>
  860d80:	34 05 00 01 	mvi r5,1
  860d84:	ba 00 20 00 	mv r4,r16
  860d88:	34 03 00 00 	mvi r3,0
  860d8c:	58 8b 00 00 	sw (r4+0),r11
  860d90:	34 63 00 01 	addi r3,r3,1
  860d94:	34 84 00 04 	addi r4,r4,4
  860d98:	54 a3 ff fd 	bgu r5,r3,860d8c <main+0x870>
  860d9c:	e3 ff fe 9e 	bi 860814 <main+0x2f8>
  860da0:	78 03 00 86 	mvhi r3,0x86
  860da4:	b8 60 08 00 	mv r1,r3
  860da8:	38 21 db 4c 	ori r1,r1,0xdb4c
  860dac:	f8 00 11 e4 	calli 86553c <printf>
  860db0:	e3 ff fe 99 	bi 860814 <main+0x2f8>
  860db4:	2b 82 00 6c 	lw r2,(sp+108)
  860db8:	b9 80 08 00 	mv r1,r12
  860dbc:	f8 00 0e 4a 	calli 8646e4 <strcmp>
  860dc0:	b8 20 58 00 	mv r11,r1
  860dc4:	5c 20 00 59 	bne r1,r0,860f28 <main+0xa0c>
  860dc8:	2b 81 00 fc 	lw r1,(sp+252)
  860dcc:	34 02 00 20 	mvi r2,32
  860dd0:	f8 00 0d fb 	calli 8645bc <strchr>
  860dd4:	44 2b 02 4d 	be r1,r11,861708 <main+0x11ec>
  860dd8:	30 20 00 00 	sb (r1+0),r0
  860ddc:	34 23 00 01 	addi r3,r1,1
  860de0:	2b 8d 00 fc 	lw r13,(sp+252)
  860de4:	5b 83 00 fc 	sw (sp+252),r3
  860de8:	b8 60 08 00 	mv r1,r3
  860dec:	34 02 00 20 	mvi r2,32
  860df0:	f8 00 0d f3 	calli 8645bc <strchr>
  860df4:	44 20 02 3f 	be r1,r0,8616f0 <main+0x11d4>
  860df8:	30 20 00 00 	sb (r1+0),r0
  860dfc:	34 23 00 01 	addi r3,r1,1
  860e00:	2b 8c 00 fc 	lw r12,(sp+252)
  860e04:	5b 83 00 fc 	sw (sp+252),r3
  860e08:	b8 60 08 00 	mv r1,r3
  860e0c:	34 02 00 20 	mvi r2,32
  860e10:	f8 00 0d eb 	calli 8645bc <strchr>
  860e14:	44 20 02 24 	be r1,r0,8616a4 <main+0x1188>
  860e18:	30 20 00 00 	sb (r1+0),r0
  860e1c:	34 23 00 01 	addi r3,r1,1
  860e20:	5b 83 00 fc 	sw (sp+252),r3
  860e24:	11 a3 00 00 	lb r3,(r13+0)
  860e28:	44 60 00 03 	be r3,r0,860e34 <main+0x918>
  860e2c:	11 83 00 00 	lb r3,(r12+0)
  860e30:	5c 60 00 91 	bne r3,r0,861074 <main+0xb58>
  860e34:	78 03 00 86 	mvhi r3,0x86
  860e38:	b8 60 08 00 	mv r1,r3
  860e3c:	38 21 dc 6c 	ori r1,r1,0xdc6c
  860e40:	f8 00 11 bf 	calli 86553c <printf>
  860e44:	e3 ff fe 74 	bi 860814 <main+0x2f8>
  860e48:	37 8e 00 f8 	addi r14,sp,248
  860e4c:	b9 a0 08 00 	mv r1,r13
  860e50:	34 03 00 00 	mvi r3,0
  860e54:	b9 c0 10 00 	mv r2,r14
  860e58:	f8 00 0f 39 	calli 864b3c <strtoul>
  860e5c:	2b 83 00 f8 	lw r3,(sp+248)
  860e60:	b8 20 80 00 	mv r16,r1
  860e64:	10 6d 00 00 	lb r13,(r3+0)
  860e68:	5d a0 00 60 	bne r13,r0,860fe8 <main+0xacc>
  860e6c:	b9 60 08 00 	mv r1,r11
  860e70:	34 03 00 00 	mvi r3,0
  860e74:	b9 c0 10 00 	mv r2,r14
  860e78:	f8 00 0f 31 	calli 864b3c <strtoul>
  860e7c:	2b 83 00 f8 	lw r3,(sp+248)
  860e80:	b8 20 78 00 	mv r15,r1
  860e84:	10 6b 00 00 	lb r11,(r3+0)
  860e88:	5d 6d 00 92 	bne r11,r13,8610d0 <main+0xbb4>
  860e8c:	11 83 00 00 	lb r3,(r12+0)
  860e90:	5c 6b 00 ab 	bne r3,r11,86113c <main+0xc20>
  860e94:	34 07 00 01 	mvi r7,1
  860e98:	ba 00 28 00 	mv r5,r16
  860e9c:	b9 e0 20 00 	mv r4,r15
  860ea0:	34 06 00 00 	mvi r6,0
  860ea4:	28 81 00 00 	lw r1,(r4+0)
  860ea8:	34 c6 00 01 	addi r6,r6,1
  860eac:	34 84 00 04 	addi r4,r4,4
  860eb0:	58 a1 00 00 	sw (r5+0),r1
  860eb4:	34 a5 00 04 	addi r5,r5,4
  860eb8:	54 e6 ff fb 	bgu r7,r6,860ea4 <main+0x988>
  860ebc:	e3 ff fe 56 	bi 860814 <main+0x2f8>
  860ec0:	37 8d 00 f8 	addi r13,sp,248
  860ec4:	b9 80 08 00 	mv r1,r12
  860ec8:	34 03 00 00 	mvi r3,0
  860ecc:	b9 a0 10 00 	mv r2,r13
  860ed0:	f8 00 0f 1b 	calli 864b3c <strtoul>
  860ed4:	2b 83 00 f8 	lw r3,(sp+248)
  860ed8:	b8 20 70 00 	mv r14,r1
  860edc:	10 6c 00 00 	lb r12,(r3+0)
  860ee0:	5d 80 ff 73 	bne r12,r0,860cac <main+0x790>
  860ee4:	34 03 00 00 	mvi r3,0
  860ee8:	b9 60 08 00 	mv r1,r11
  860eec:	b9 a0 10 00 	mv r2,r13
  860ef0:	f8 00 0f 13 	calli 864b3c <strtoul>
  860ef4:	2b 83 00 f8 	lw r3,(sp+248)
  860ef8:	10 63 00 00 	lb r3,(r3+0)
  860efc:	5c 6c ff a9 	bne r3,r12,860da0 <main+0x884>
  860f00:	b8 20 10 00 	mv r2,r1
  860f04:	b9 c0 08 00 	mv r1,r14
  860f08:	f8 00 10 ad 	calli 8651bc <crc32>
  860f0c:	78 03 00 86 	mvhi r3,0x86
  860f10:	b8 20 20 00 	mv r4,r1
  860f14:	b8 60 08 00 	mv r1,r3
  860f18:	b8 80 10 00 	mv r2,r4
  860f1c:	38 21 dc 50 	ori r1,r1,0xdc50
  860f20:	f8 00 11 87 	calli 86553c <printf>
  860f24:	e3 ff fe 3c 	bi 860814 <main+0x2f8>
  860f28:	2b 82 00 7c 	lw r2,(sp+124)
  860f2c:	b9 80 08 00 	mv r1,r12
  860f30:	f8 00 0d ed 	calli 8646e4 <strcmp>
  860f34:	44 20 00 48 	be r1,r0,861054 <main+0xb38>
  860f38:	2b 82 00 80 	lw r2,(sp+128)
  860f3c:	b9 80 08 00 	mv r1,r12
  860f40:	f8 00 0d e9 	calli 8646e4 <strcmp>
  860f44:	44 20 00 6e 	be r1,r0,8610fc <main+0xbe0>
  860f48:	2b 82 00 84 	lw r2,(sp+132)
  860f4c:	b9 80 08 00 	mv r1,r12
  860f50:	f8 00 0d e5 	calli 8646e4 <strcmp>
  860f54:	44 20 00 6c 	be r1,r0,861104 <main+0xbe8>
  860f58:	2b 82 00 88 	lw r2,(sp+136)
  860f5c:	b9 80 08 00 	mv r1,r12
  860f60:	f8 00 0d e1 	calli 8646e4 <strcmp>
  860f64:	44 20 00 8c 	be r1,r0,861194 <main+0xc78>
  860f68:	2b 82 00 8c 	lw r2,(sp+140)
  860f6c:	b9 80 08 00 	mv r1,r12
  860f70:	f8 00 0d dd 	calli 8646e4 <strcmp>
  860f74:	b8 20 58 00 	mv r11,r1
  860f78:	5c 20 00 8e 	bne r1,r0,8611b0 <main+0xc94>
  860f7c:	37 81 00 fc 	addi r1,sp,252
  860f80:	fb ff fd 4e 	calli 8604b8 <get_token>
  860f84:	10 23 00 00 	lb r3,(r1+0)
  860f88:	44 6b 01 aa 	be r3,r11,861630 <main+0x1114>
  860f8c:	34 03 00 00 	mvi r3,0
  860f90:	37 82 00 f8 	addi r2,sp,248
  860f94:	f8 00 0e ea 	calli 864b3c <strtoul>
  860f98:	2b 83 00 f8 	lw r3,(sp+248)
  860f9c:	10 63 00 00 	lb r3,(r3+0)
  860fa0:	44 60 01 c7 	be r3,r0,8616bc <main+0x11a0>
  860fa4:	78 03 00 86 	mvhi r3,0x86
  860fa8:	b8 60 08 00 	mv r1,r3
  860fac:	38 21 dc cc 	ori r1,r1,0xdccc
  860fb0:	f8 00 11 63 	calli 86553c <printf>
  860fb4:	e3 ff fe 18 	bi 860814 <main+0x2f8>
  860fb8:	2b 8c 00 fc 	lw r12,(sp+252)
  860fbc:	b9 80 08 00 	mv r1,r12
  860fc0:	f8 00 0d f2 	calli 864788 <strlen>
  860fc4:	b5 81 18 00 	add r3,r12,r1
  860fc8:	5b 83 00 fc 	sw (sp+252),r3
  860fcc:	e3 ff fe 55 	bi 860920 <main+0x404>
  860fd0:	2b 8b 00 fc 	lw r11,(sp+252)
  860fd4:	b9 60 08 00 	mv r1,r11
  860fd8:	f8 00 0d ec 	calli 864788 <strlen>
  860fdc:	b5 61 18 00 	add r3,r11,r1
  860fe0:	5b 83 00 fc 	sw (sp+252),r3
  860fe4:	e3 ff fe 47 	bi 860900 <main+0x3e4>
  860fe8:	78 03 00 86 	mvhi r3,0x86
  860fec:	b8 60 08 00 	mv r1,r3
  860ff0:	38 21 db f8 	ori r1,r1,0xdbf8
  860ff4:	f8 00 11 52 	calli 86553c <printf>
  860ff8:	e3 ff fe 07 	bi 860814 <main+0x2f8>
  860ffc:	34 03 00 00 	mvi r3,0
  861000:	b9 a0 08 00 	mv r1,r13
  861004:	b9 e0 10 00 	mv r2,r15
  861008:	f8 00 0e cd 	calli 864b3c <strtoul>
  86100c:	2b 83 00 f8 	lw r3,(sp+248)
  861010:	b8 20 28 00 	mv r5,r1
  861014:	10 63 00 00 	lb r3,(r3+0)
  861018:	5c 6e 00 61 	bne r3,r14,86119c <main+0xc80>
  86101c:	5c 23 ff 5a 	bne r1,r3,860d84 <main+0x868>
  861020:	e3 ff fd fd 	bi 860814 <main+0x2f8>
  861024:	2b 8b 00 fc 	lw r11,(sp+252)
  861028:	b9 60 08 00 	mv r1,r11
  86102c:	f8 00 0d d7 	calli 864788 <strlen>
  861030:	b5 61 18 00 	add r3,r11,r1
  861034:	5b 83 00 fc 	sw (sp+252),r3
  861038:	e3 ff fe e0 	bi 860bb8 <main+0x69c>
  86103c:	2b 8d 00 fc 	lw r13,(sp+252)
  861040:	b9 a0 08 00 	mv r1,r13
  861044:	f8 00 0d d1 	calli 864788 <strlen>
  861048:	b5 a1 18 00 	add r3,r13,r1
  86104c:	5b 83 00 fc 	sw (sp+252),r3
  861050:	e3 ff fe e2 	bi 860bd8 <main+0x6bc>
  861054:	f8 00 0a a9 	calli 863af8 <netboot>
  861058:	e3 ff fd ef 	bi 860814 <main+0x2f8>
  86105c:	2b 8c 00 fc 	lw r12,(sp+252)
  861060:	b9 80 08 00 	mv r1,r12
  861064:	f8 00 0d c9 	calli 864788 <strlen>
  861068:	b5 81 18 00 	add r3,r12,r1
  86106c:	5b 83 00 fc 	sw (sp+252),r3
  861070:	e3 ff fe ca 	bi 860b98 <main+0x67c>
  861074:	b9 80 08 00 	mv r1,r12
  861078:	34 03 00 00 	mvi r3,0
  86107c:	37 82 00 f8 	addi r2,sp,248
  861080:	f8 00 0e af 	calli 864b3c <strtoul>
  861084:	2b 83 00 f8 	lw r3,(sp+248)
  861088:	b8 20 60 00 	mv r12,r1
  86108c:	10 6b 00 00 	lb r11,(r3+0)
  861090:	5d 60 ff 07 	bne r11,r0,860cac <main+0x790>
  861094:	34 01 00 00 	mvi r1,0
  861098:	f8 00 11 5c 	calli 865608 <fatfs_init>
  86109c:	44 2b fd de 	be r1,r11,860814 <main+0x2f8>
  8610a0:	b9 80 10 00 	mv r2,r12
  8610a4:	78 03 01 00 	mvhi r3,0x100
  8610a8:	34 04 00 00 	mvi r4,0
  8610ac:	b9 a0 08 00 	mv r1,r13
  8610b0:	f8 00 13 9a 	calli 865f18 <fatfs_load>
  8610b4:	f8 00 14 9f 	calli 866330 <fatfs_done>
  8610b8:	e3 ff fd d7 	bi 860814 <main+0x2f8>
  8610bc:	78 03 00 86 	mvhi r3,0x86
  8610c0:	b8 60 08 00 	mv r1,r3
  8610c4:	38 21 db b4 	ori r1,r1,0xdbb4
  8610c8:	f8 00 11 1d 	calli 86553c <printf>
  8610cc:	e3 ff fd d2 	bi 860814 <main+0x2f8>
  8610d0:	78 03 00 86 	mvhi r3,0x86
  8610d4:	b8 60 08 00 	mv r1,r3
  8610d8:	38 21 dc 18 	ori r1,r1,0xdc18
  8610dc:	f8 00 11 18 	calli 86553c <printf>
  8610e0:	e3 ff fd cd 	bi 860814 <main+0x2f8>
  8610e4:	2b 8d 00 fc 	lw r13,(sp+252)
  8610e8:	b9 a0 08 00 	mv r1,r13
  8610ec:	f8 00 0d a7 	calli 864788 <strlen>
  8610f0:	b5 a1 18 00 	add r3,r13,r1
  8610f4:	5b 83 00 fc 	sw (sp+252),r3
  8610f8:	e3 ff fe d4 	bi 860c48 <main+0x72c>
  8610fc:	f8 00 09 a3 	calli 863788 <serialboot>
  861100:	e3 ff fd c5 	bi 860814 <main+0x2f8>
  861104:	f8 00 0a fa 	calli 863cec <fsboot>
  861108:	e3 ff fd c3 	bi 860814 <main+0x2f8>
  86110c:	2b 8b 00 fc 	lw r11,(sp+252)
  861110:	b9 60 08 00 	mv r1,r11
  861114:	f8 00 0d 9d 	calli 864788 <strlen>
  861118:	b5 61 18 00 	add r3,r11,r1
  86111c:	5b 83 00 fc 	sw (sp+252),r3
  861120:	e3 ff fe 8a 	bi 860b48 <main+0x62c>
  861124:	2b 8c 00 fc 	lw r12,(sp+252)
  861128:	b9 80 08 00 	mv r1,r12
  86112c:	f8 00 0d 97 	calli 864788 <strlen>
  861130:	b5 81 18 00 	add r3,r12,r1
  861134:	5b 83 00 fc 	sw (sp+252),r3
  861138:	e3 ff fe 7c 	bi 860b28 <main+0x60c>
  86113c:	34 03 00 00 	mvi r3,0
  861140:	b9 80 08 00 	mv r1,r12
  861144:	b9 c0 10 00 	mv r2,r14
  861148:	f8 00 0e 7d 	calli 864b3c <strtoul>
  86114c:	2b 83 00 f8 	lw r3,(sp+248)
  861150:	b8 20 38 00 	mv r7,r1
  861154:	10 63 00 00 	lb r3,(r3+0)
  861158:	5c 6b 00 11 	bne r3,r11,86119c <main+0xc80>
  86115c:	44 23 fd ae 	be r1,r3,860814 <main+0x2f8>
  861160:	e3 ff ff 4e 	bi 860e98 <main+0x97c>
  861164:	2b 8c 00 fc 	lw r12,(sp+252)
  861168:	b9 80 08 00 	mv r1,r12
  86116c:	f8 00 0d 87 	calli 864788 <strlen>
  861170:	b5 81 18 00 	add r3,r12,r1
  861174:	5b 83 00 fc 	sw (sp+252),r3
  861178:	e3 ff fe c4 	bi 860c88 <main+0x76c>
  86117c:	2b 8b 00 fc 	lw r11,(sp+252)
  861180:	b9 60 08 00 	mv r1,r11
  861184:	f8 00 0d 81 	calli 864788 <strlen>
  861188:	b5 61 18 00 	add r3,r11,r1
  86118c:	5b 83 00 fc 	sw (sp+252),r3
  861190:	e3 ff fe b6 	bi 860c68 <main+0x74c>
  861194:	f8 00 0b 36 	calli 863e6c <flashboot>
  861198:	e3 ff fd 9f 	bi 860814 <main+0x2f8>
  86119c:	78 03 00 86 	mvhi r3,0x86
  8611a0:	b8 60 08 00 	mv r1,r3
  8611a4:	38 21 db c8 	ori r1,r1,0xdbc8
  8611a8:	f8 00 10 e5 	calli 86553c <printf>
  8611ac:	e3 ff fd 9a 	bi 860814 <main+0x2f8>
  8611b0:	2b 82 00 70 	lw r2,(sp+112)
  8611b4:	b9 80 08 00 	mv r1,r12
  8611b8:	f8 00 0d 4b 	calli 8646e4 <strcmp>
  8611bc:	b8 20 68 00 	mv r13,r1
  8611c0:	5c 20 00 17 	bne r1,r0,86121c <main+0xd00>
  8611c4:	37 8b 00 fc 	addi r11,sp,252
  8611c8:	b9 60 08 00 	mv r1,r11
  8611cc:	fb ff fc bb 	calli 8604b8 <get_token>
  8611d0:	b8 20 60 00 	mv r12,r1
  8611d4:	b9 60 08 00 	mv r1,r11
  8611d8:	fb ff fc b8 	calli 8604b8 <get_token>
  8611dc:	11 83 00 00 	lb r3,(r12+0)
  8611e0:	b8 20 70 00 	mv r14,r1
  8611e4:	44 6d 00 03 	be r3,r13,8611f0 <main+0xcd4>
  8611e8:	10 23 00 00 	lb r3,(r1+0)
  8611ec:	5c 60 01 16 	bne r3,r0,861644 <main+0x1128>
  8611f0:	78 03 00 86 	mvhi r3,0x86
  8611f4:	b8 60 08 00 	mv r1,r3
  8611f8:	38 21 dc f0 	ori r1,r1,0xdcf0
  8611fc:	f8 00 10 d0 	calli 86553c <printf>
  861200:	e3 ff fd 85 	bi 860814 <main+0x2f8>
  861204:	2b 8b 00 fc 	lw r11,(sp+252)
  861208:	b9 60 08 00 	mv r1,r11
  86120c:	f8 00 0d 5f 	calli 864788 <strlen>
  861210:	b5 61 18 00 	add r3,r11,r1
  861214:	5b 83 00 fc 	sw (sp+252),r3
  861218:	e3 ff fe bd 	bi 860d0c <main+0x7f0>
  86121c:	2b 82 00 74 	lw r2,(sp+116)
  861220:	b9 80 08 00 	mv r1,r12
  861224:	f8 00 0d 30 	calli 8646e4 <strcmp>
  861228:	44 20 00 fd 	be r1,r0,86161c <main+0x1100>
  86122c:	2b 82 00 78 	lw r2,(sp+120)
  861230:	b9 80 08 00 	mv r1,r12
  861234:	f8 00 0d 2c 	calli 8646e4 <strcmp>
  861238:	44 20 00 f8 	be r1,r0,861618 <main+0x10fc>
  86123c:	2b 82 00 90 	lw r2,(sp+144)
  861240:	b9 80 08 00 	mv r1,r12
  861244:	f8 00 0d 28 	calli 8646e4 <strcmp>
  861248:	44 20 00 cc 	be r1,r0,861578 <main+0x105c>
  86124c:	2b 82 00 94 	lw r2,(sp+148)
  861250:	b9 80 08 00 	mv r1,r12
  861254:	f8 00 0d 24 	calli 8646e4 <strcmp>
  861258:	44 20 00 6f 	be r1,r0,861414 <main+0xef8>
  86125c:	2b 82 00 98 	lw r2,(sp+152)
  861260:	b9 80 08 00 	mv r1,r12
  861264:	f8 00 0d 20 	calli 8646e4 <strcmp>
  861268:	44 20 00 47 	be r1,r0,861384 <main+0xe68>
  86126c:	2b 82 00 9c 	lw r2,(sp+156)
  861270:	b9 80 08 00 	mv r1,r12
  861274:	f8 00 0d 1c 	calli 8646e4 <strcmp>
  861278:	5c 20 00 37 	bne r1,r0,861354 <main+0xe38>
  86127c:	37 81 00 fc 	addi r1,sp,252
  861280:	fb ff fc 8e 	calli 8604b8 <get_token>
  861284:	10 23 00 00 	lb r3,(r1+0)
  861288:	44 60 00 2e 	be r3,r0,861340 <main+0xe24>
  86128c:	fb ff fc 09 	calli 8602b0 <parse_csr>
  861290:	44 20 00 27 	be r1,r0,86132c <main+0xe10>
  861294:	34 23 ff ff 	addi r3,r1,-1
  861298:	34 04 00 0b 	mvi r4,11
  86129c:	54 64 00 1f 	bgu r3,r4,861318 <main+0xdfc>
  8612a0:	2b 82 00 b4 	lw r2,(sp+180)
  8612a4:	3c 63 00 02 	sli r3,r3,2
  8612a8:	b4 43 18 00 	add r3,r2,r3
  8612ac:	28 63 00 00 	lw r3,(r3+0)
  8612b0:	c0 60 00 00 	b r3
  8612b4:	f8 00 09 35 	calli 863788 <serialboot>
  8612b8:	e3 ff fc c5 	bi 8605cc <main+0xb0>
  8612bc:	91 e0 20 00 	rcsr r4,JRX
  8612c0:	78 03 00 86 	mvhi r3,0x86
  8612c4:	b8 60 08 00 	mv r1,r3
  8612c8:	b8 80 10 00 	mv r2,r4
  8612cc:	38 21 e0 84 	ori r1,r1,0xe084
  8612d0:	f8 00 10 9b 	calli 86553c <printf>
  8612d4:	e3 ff fd 50 	bi 860814 <main+0x2f8>
  8612d8:	91 c0 20 00 	rcsr r4,JTX
  8612dc:	e3 ff ff f9 	bi 8612c0 <main+0xda4>
  8612e0:	91 20 20 00 	rcsr r4,DEBA
  8612e4:	e3 ff ff f7 	bi 8612c0 <main+0xda4>
  8612e8:	90 e0 20 00 	rcsr r4,EBA
  8612ec:	e3 ff ff f5 	bi 8612c0 <main+0xda4>
  8612f0:	90 c0 20 00 	rcsr r4,CFG
  8612f4:	e3 ff ff f3 	bi 8612c0 <main+0xda4>
  8612f8:	90 a0 20 00 	rcsr r4,CC
  8612fc:	e3 ff ff f1 	bi 8612c0 <main+0xda4>
  861300:	90 40 20 00 	rcsr r4,IP
  861304:	e3 ff ff ef 	bi 8612c0 <main+0xda4>
  861308:	90 20 20 00 	rcsr r4,IM
  86130c:	e3 ff ff ed 	bi 8612c0 <main+0xda4>
  861310:	90 00 20 00 	rcsr r4,IE
  861314:	e3 ff ff eb 	bi 8612c0 <main+0xda4>
  861318:	78 03 00 86 	mvhi r3,0x86
  86131c:	b8 60 08 00 	mv r1,r3
  861320:	38 21 e0 74 	ori r1,r1,0xe074
  861324:	f8 00 10 86 	calli 86553c <printf>
  861328:	e3 ff fd 3b 	bi 860814 <main+0x2f8>
  86132c:	78 03 00 86 	mvhi r3,0x86
  861330:	b8 60 08 00 	mv r1,r3
  861334:	38 21 e0 64 	ori r1,r1,0xe064
  861338:	f8 00 10 81 	calli 86553c <printf>
  86133c:	e3 ff fd 36 	bi 860814 <main+0x2f8>
  861340:	78 03 00 86 	mvhi r3,0x86
  861344:	b8 60 08 00 	mv r1,r3
  861348:	38 21 e0 58 	ori r1,r1,0xe058
  86134c:	f8 00 10 7c 	calli 86553c <printf>
  861350:	e3 ff fd 31 	bi 860814 <main+0x2f8>
  861354:	2b 82 00 a0 	lw r2,(sp+160)
  861358:	b9 80 08 00 	mv r1,r12
  86135c:	f8 00 0c e2 	calli 8646e4 <strcmp>
  861360:	b8 20 68 00 	mv r13,r1
  861364:	44 20 00 0a 	be r1,r0,86138c <main+0xe70>
  861368:	2b 82 00 a4 	lw r2,(sp+164)
  86136c:	b9 80 08 00 	mv r1,r12
  861370:	f8 00 0c dd 	calli 8646e4 <strcmp>
  861374:	44 20 fd 28 	be r1,r0,860814 <main+0x2f8>
  861378:	2b 81 00 a8 	lw r1,(sp+168)
  86137c:	f8 00 10 70 	calli 86553c <printf>
  861380:	e3 ff fd 25 	bi 860814 <main+0x2f8>
  861384:	fb ff fb 9a 	calli 8601ec <print_lcd>
  861388:	e3 ff fd 23 	bi 860814 <main+0x2f8>
  86138c:	37 8b 00 fc 	addi r11,sp,252
  861390:	b9 60 08 00 	mv r1,r11
  861394:	fb ff fc 49 	calli 8604b8 <get_token>
  861398:	b8 20 60 00 	mv r12,r1
  86139c:	b9 60 08 00 	mv r1,r11
  8613a0:	fb ff fc 46 	calli 8604b8 <get_token>
  8613a4:	11 83 00 00 	lb r3,(r12+0)
  8613a8:	b8 20 58 00 	mv r11,r1
  8613ac:	44 6d 00 03 	be r3,r13,8613b8 <main+0xe9c>
  8613b0:	10 23 00 00 	lb r3,(r1+0)
  8613b4:	5c 60 00 04 	bne r3,r0,8613c4 <main+0xea8>
  8613b8:	2b 81 00 ac 	lw r1,(sp+172)
  8613bc:	f8 00 10 60 	calli 86553c <printf>
  8613c0:	e3 ff fd 15 	bi 860814 <main+0x2f8>
  8613c4:	b9 80 08 00 	mv r1,r12
  8613c8:	fb ff fb ba 	calli 8602b0 <parse_csr>
  8613cc:	b8 20 60 00 	mv r12,r1
  8613d0:	44 20 ff d7 	be r1,r0,86132c <main+0xe10>
  8613d4:	34 03 00 00 	mvi r3,0
  8613d8:	b9 60 08 00 	mv r1,r11
  8613dc:	37 82 00 f8 	addi r2,sp,248
  8613e0:	f8 00 0d d7 	calli 864b3c <strtoul>
  8613e4:	2b 83 00 f8 	lw r3,(sp+248)
  8613e8:	b8 20 28 00 	mv r5,r1
  8613ec:	10 63 00 00 	lb r3,(r3+0)
  8613f0:	5c 60 ff 33 	bne r3,r0,8610bc <main+0xba0>
  8613f4:	35 83 ff ff 	addi r3,r12,-1
  8613f8:	34 04 00 13 	mvi r4,19
  8613fc:	54 64 00 82 	bgu r3,r4,861604 <main+0x10e8>
  861400:	2b 81 00 b0 	lw r1,(sp+176)
  861404:	3c 63 00 02 	sli r3,r3,2
  861408:	b4 23 18 00 	add r3,r1,r3
  86140c:	28 63 00 00 	lw r3,(r3+0)
  861410:	c0 60 00 00 	b r3
  861414:	78 03 00 86 	mvhi r3,0x86
  861418:	b8 60 08 00 	mv r1,r3
  86141c:	38 21 dd 34 	ori r1,r1,0xdd34
  861420:	f8 00 10 02 	calli 865428 <puts>
  861424:	78 03 00 86 	mvhi r3,0x86
  861428:	b8 60 08 00 	mv r1,r3
  86142c:	38 21 dd 54 	ori r1,r1,0xdd54
  861430:	f8 00 0f fe 	calli 865428 <puts>
  861434:	78 03 00 86 	mvhi r3,0x86
  861438:	b8 60 08 00 	mv r1,r3
  86143c:	38 21 dd 80 	ori r1,r1,0xdd80
  861440:	f8 00 0f fa 	calli 865428 <puts>
  861444:	78 03 00 86 	mvhi r3,0x86
  861448:	b8 60 08 00 	mv r1,r3
  86144c:	38 21 dd 94 	ori r1,r1,0xdd94
  861450:	f8 00 0f f6 	calli 865428 <puts>
  861454:	78 03 00 86 	mvhi r3,0x86
  861458:	b8 60 08 00 	mv r1,r3
  86145c:	38 21 dd b8 	ori r1,r1,0xddb8
  861460:	f8 00 0f f2 	calli 865428 <puts>
  861464:	78 03 00 86 	mvhi r3,0x86
  861468:	b8 60 08 00 	mv r1,r3
  86146c:	38 21 dd dc 	ori r1,r1,0xdddc
  861470:	f8 00 0f ee 	calli 865428 <puts>
  861474:	78 03 00 86 	mvhi r3,0x86
  861478:	b8 60 08 00 	mv r1,r3
  86147c:	38 21 dd fc 	ori r1,r1,0xddfc
  861480:	f8 00 0f ea 	calli 865428 <puts>
  861484:	78 03 00 86 	mvhi r3,0x86
  861488:	b8 60 08 00 	mv r1,r3
  86148c:	38 21 de 20 	ori r1,r1,0xde20
  861490:	f8 00 0f e6 	calli 865428 <puts>
  861494:	78 03 00 86 	mvhi r3,0x86
  861498:	b8 60 08 00 	mv r1,r3
  86149c:	38 21 de 40 	ori r1,r1,0xde40
  8614a0:	f8 00 0f e2 	calli 865428 <puts>
  8614a4:	78 03 00 86 	mvhi r3,0x86
  8614a8:	b8 60 08 00 	mv r1,r3
  8614ac:	38 21 de 7c 	ori r1,r1,0xde7c
  8614b0:	f8 00 0f de 	calli 865428 <puts>
  8614b4:	78 03 00 86 	mvhi r3,0x86
  8614b8:	b8 60 08 00 	mv r1,r3
  8614bc:	38 21 de 9c 	ori r1,r1,0xde9c
  8614c0:	f8 00 0f da 	calli 865428 <puts>
  8614c4:	78 03 00 86 	mvhi r3,0x86
  8614c8:	b8 60 08 00 	mv r1,r3
  8614cc:	38 21 de c0 	ori r1,r1,0xdec0
  8614d0:	f8 00 0f d6 	calli 865428 <puts>
  8614d4:	78 03 00 86 	mvhi r3,0x86
  8614d8:	b8 60 08 00 	mv r1,r3
  8614dc:	38 21 de ec 	ori r1,r1,0xdeec
  8614e0:	f8 00 0f d2 	calli 865428 <puts>
  8614e4:	78 03 00 86 	mvhi r3,0x86
  8614e8:	b8 60 08 00 	mv r1,r3
  8614ec:	38 21 df 1c 	ori r1,r1,0xdf1c
  8614f0:	f8 00 0f ce 	calli 865428 <puts>
  8614f4:	78 03 00 86 	mvhi r3,0x86
  8614f8:	b8 60 08 00 	mv r1,r3
  8614fc:	38 21 df 38 	ori r1,r1,0xdf38
  861500:	f8 00 0f ca 	calli 865428 <puts>
  861504:	78 03 00 86 	mvhi r3,0x86
  861508:	b8 60 08 00 	mv r1,r3
  86150c:	38 21 df 54 	ori r1,r1,0xdf54
  861510:	f8 00 0f c6 	calli 865428 <puts>
  861514:	78 03 00 86 	mvhi r3,0x86
  861518:	b8 60 08 00 	mv r1,r3
  86151c:	38 21 df 7c 	ori r1,r1,0xdf7c
  861520:	f8 00 0f c2 	calli 865428 <puts>
  861524:	78 03 00 86 	mvhi r3,0x86
  861528:	b8 60 08 00 	mv r1,r3
  86152c:	38 21 df 9c 	ori r1,r1,0xdf9c
  861530:	f8 00 0f be 	calli 865428 <puts>
  861534:	78 03 00 86 	mvhi r3,0x86
  861538:	b8 60 08 00 	mv r1,r3
  86153c:	38 21 df bc 	ori r1,r1,0xdfbc
  861540:	f8 00 0f ba 	calli 865428 <puts>
  861544:	78 03 00 86 	mvhi r3,0x86
  861548:	b8 60 08 00 	mv r1,r3
  86154c:	38 21 df e0 	ori r1,r1,0xdfe0
  861550:	f8 00 0f b6 	calli 865428 <puts>
  861554:	78 03 00 86 	mvhi r3,0x86
  861558:	b8 60 08 00 	mv r1,r3
  86155c:	38 21 e0 00 	ori r1,r1,0xe000
  861560:	f8 00 0f b2 	calli 865428 <puts>
  861564:	78 03 00 86 	mvhi r3,0x86
  861568:	b8 60 08 00 	mv r1,r3
  86156c:	38 21 e0 1c 	ori r1,r1,0xe01c
  861570:	f8 00 0f ae 	calli 865428 <puts>
  861574:	e3 ff fc a8 	bi 860814 <main+0x2f8>
  861578:	f8 00 13 92 	calli 8663c0 <reconf>
  86157c:	d3 65 00 00 	wcsr WP3,r5
  861580:	e3 ff fc a5 	bi 860814 <main+0x2f8>
  861584:	d3 45 00 00 	wcsr WP2,r5
  861588:	e3 ff fc a3 	bi 860814 <main+0x2f8>
  86158c:	d3 25 00 00 	wcsr WP1,r5
  861590:	e3 ff fc a1 	bi 860814 <main+0x2f8>
  861594:	d3 05 00 00 	wcsr WP0,r5
  861598:	e3 ff fc 9f 	bi 860814 <main+0x2f8>
  86159c:	d2 65 00 00 	wcsr BP3,r5
  8615a0:	e3 ff fc 9d 	bi 860814 <main+0x2f8>
  8615a4:	d2 45 00 00 	wcsr BP2,r5
  8615a8:	e3 ff fc 9b 	bi 860814 <main+0x2f8>
  8615ac:	d2 25 00 00 	wcsr BP1,r5
  8615b0:	e3 ff fc 99 	bi 860814 <main+0x2f8>
  8615b4:	d2 05 00 00 	wcsr BP0,r5
  8615b8:	e3 ff fc 97 	bi 860814 <main+0x2f8>
  8615bc:	d1 e5 00 00 	wcsr JRX,r5
  8615c0:	e3 ff fc 95 	bi 860814 <main+0x2f8>
  8615c4:	d1 c5 00 00 	wcsr JTX,r5
  8615c8:	e3 ff fc 93 	bi 860814 <main+0x2f8>
  8615cc:	d1 25 00 00 	wcsr DEBA,r5
  8615d0:	e3 ff fc 91 	bi 860814 <main+0x2f8>
  8615d4:	d0 85 00 00 	wcsr DCC,r5
  8615d8:	e3 ff fc 8f 	bi 860814 <main+0x2f8>
  8615dc:	d0 e5 00 00 	wcsr EBA,r5
  8615e0:	e3 ff fc 8d 	bi 860814 <main+0x2f8>
  8615e4:	d0 85 00 00 	wcsr DCC,r5
  8615e8:	e3 ff fc 8b 	bi 860814 <main+0x2f8>
  8615ec:	d0 65 00 00 	wcsr ICC,r5
  8615f0:	e3 ff fc 89 	bi 860814 <main+0x2f8>
  8615f4:	d0 25 00 00 	wcsr IM,r5
  8615f8:	e3 ff fc 87 	bi 860814 <main+0x2f8>
  8615fc:	d0 05 00 00 	wcsr IE,r5
  861600:	e3 ff fc 85 	bi 860814 <main+0x2f8>
  861604:	78 03 00 86 	mvhi r3,0x86
  861608:	b8 60 08 00 	mv r1,r3
  86160c:	38 21 e0 ac 	ori r1,r1,0xe0ac
  861610:	f8 00 0f cb 	calli 86553c <printf>
  861614:	e3 ff fc 80 	bi 860814 <main+0x2f8>
  861618:	f8 00 13 5d 	calli 86638c <reboot>
  86161c:	78 03 00 86 	mvhi r3,0x86
  861620:	b8 60 08 00 	mv r1,r3
  861624:	38 21 dd 14 	ori r1,r1,0xdd14
  861628:	f8 00 0f 80 	calli 865428 <puts>
  86162c:	e3 ff fc 7a 	bi 860814 <main+0x2f8>
  861630:	78 03 00 86 	mvhi r3,0x86
  861634:	b8 60 08 00 	mv r1,r3
  861638:	38 21 dc b8 	ori r1,r1,0xdcb8
  86163c:	f8 00 0f c0 	calli 86553c <printf>
  861640:	e3 ff fc 75 	bi 860814 <main+0x2f8>
  861644:	37 8d 00 f8 	addi r13,sp,248
  861648:	b9 80 08 00 	mv r1,r12
  86164c:	34 03 00 00 	mvi r3,0
  861650:	b9 a0 10 00 	mv r2,r13
  861654:	f8 00 0d 3a 	calli 864b3c <strtoul>
  861658:	2b 83 00 f8 	lw r3,(sp+248)
  86165c:	b8 20 60 00 	mv r12,r1
  861660:	10 6b 00 00 	lb r11,(r3+0)
  861664:	5d 60 fd 92 	bne r11,r0,860cac <main+0x790>
  861668:	34 03 00 00 	mvi r3,0
  86166c:	b9 c0 08 00 	mv r1,r14
  861670:	b9 a0 10 00 	mv r2,r13
  861674:	f8 00 0d 32 	calli 864b3c <strtoul>
  861678:	2b 84 00 f8 	lw r4,(sp+248)
  86167c:	b8 20 18 00 	mv r3,r1
  861680:	10 84 00 00 	lb r4,(r4+0)
  861684:	5c 8b fe 8e 	bne r4,r11,8610bc <main+0xba0>
  861688:	78 04 40 66 	mvhi r4,0x4066
  86168c:	38 84 16 6c 	ori r4,r4,0x166c
  861690:	28 84 00 00 	lw r4,(r4+0)
  861694:	b9 80 10 00 	mv r2,r12
  861698:	28 81 00 28 	lw r1,(r4+40)
  86169c:	f8 00 28 df 	calli 86ba18 <mdio_write>
  8616a0:	e3 ff fc 5d 	bi 860814 <main+0x2f8>
  8616a4:	2b 8b 00 fc 	lw r11,(sp+252)
  8616a8:	b9 60 08 00 	mv r1,r11
  8616ac:	f8 00 0c 37 	calli 864788 <strlen>
  8616b0:	b5 61 18 00 	add r3,r11,r1
  8616b4:	5b 83 00 fc 	sw (sp+252),r3
  8616b8:	e3 ff fd db 	bi 860e24 <main+0x908>
  8616bc:	78 03 40 66 	mvhi r3,0x4066
  8616c0:	38 63 16 6c 	ori r3,r3,0x166c
  8616c4:	28 63 00 00 	lw r3,(r3+0)
  8616c8:	b8 20 10 00 	mv r2,r1
  8616cc:	28 61 00 28 	lw r1,(r3+40)
  8616d0:	f8 00 2a 5b 	calli 86c03c <mdio_read>
  8616d4:	78 03 00 86 	mvhi r3,0x86
  8616d8:	b8 20 20 00 	mv r4,r1
  8616dc:	b8 60 08 00 	mv r1,r3
  8616e0:	b8 80 10 00 	mv r2,r4
  8616e4:	38 21 dc e0 	ori r1,r1,0xdce0
  8616e8:	f8 00 0f 95 	calli 86553c <printf>
  8616ec:	e3 ff fc 4a 	bi 860814 <main+0x2f8>
  8616f0:	2b 8c 00 fc 	lw r12,(sp+252)
  8616f4:	b9 80 08 00 	mv r1,r12
  8616f8:	f8 00 0c 24 	calli 864788 <strlen>
  8616fc:	b5 81 18 00 	add r3,r12,r1
  861700:	5b 83 00 fc 	sw (sp+252),r3
  861704:	e3 ff fd c1 	bi 860e08 <main+0x8ec>
  861708:	2b 8d 00 fc 	lw r13,(sp+252)
  86170c:	b9 a0 08 00 	mv r1,r13
  861710:	f8 00 0c 1e 	calli 864788 <strlen>
  861714:	b5 a1 18 00 	add r3,r13,r1
  861718:	5b 83 00 fc 	sw (sp+252),r3
  86171c:	e3 ff fd b3 	bi 860de8 <main+0x8cc>

00861720 <nofill>:
  861720:	34 01 ff ff 	mvi r1,-1
  861724:	c3 a0 00 00 	ret

00861728 <unlzma>:
  861728:	37 9c ff 4c 	addi sp,sp,-180
  86172c:	5b 9b 00 08 	sw (sp+8),fp
  861730:	34 1b 00 b4 	mvi fp,180
  861734:	b7 7c d8 00 	add fp,fp,sp
  861738:	5b 8b 00 44 	sw (sp+68),r11
  86173c:	5b 8c 00 40 	sw (sp+64),r12
  861740:	5b 8d 00 3c 	sw (sp+60),r13
  861744:	5b 8e 00 38 	sw (sp+56),r14
  861748:	5b 8f 00 34 	sw (sp+52),r15
  86174c:	5b 90 00 30 	sw (sp+48),r16
  861750:	5b 91 00 2c 	sw (sp+44),r17
  861754:	5b 92 00 28 	sw (sp+40),r18
  861758:	5b 93 00 24 	sw (sp+36),r19
  86175c:	5b 94 00 20 	sw (sp+32),r20
  861760:	5b 95 00 1c 	sw (sp+28),r21
  861764:	5b 96 00 18 	sw (sp+24),r22
  861768:	5b 97 00 14 	sw (sp+20),r23
  86176c:	5b 98 00 10 	sw (sp+16),r24
  861770:	5b 99 00 0c 	sw (sp+12),r25
  861774:	5b 9d 00 04 	sw (sp+4),ra
  861778:	5b 61 ff a0 	sw (fp+-96),r1
  86177c:	5b 64 ff b4 	sw (fp+-76),r4
  861780:	5b 66 ff c4 	sw (fp+-60),r6
  861784:	5b 67 ff ac 	sw (fp+-84),r7
  861788:	5b 7c ff a8 	sw (fp+-88),sp
  86178c:	44 20 00 f0 	be r1,r0,861b4c <unlzma+0x424>
  861790:	5b 63 ff a4 	sw (fp+-92),r3
  861794:	44 60 00 ea 	be r3,r0,861b3c <unlzma+0x414>
  861798:	2b 61 ff a0 	lw r1,(fp+-96)
  86179c:	b8 40 20 00 	mv r4,r2
  8617a0:	b4 22 18 00 	add r3,r1,r2
  8617a4:	54 61 00 0a 	bgu r3,r1,8617cc <unlzma+0xa4>
  8617a8:	2b 63 ff a4 	lw r3,(fp+-92)
  8617ac:	5b 65 ff 98 	sw (fp+-104),r5
  8617b0:	78 02 00 01 	mvhi r2,0x1
  8617b4:	d8 60 00 00 	call r3
  8617b8:	b8 20 20 00 	mv r4,r1
  8617bc:	2b 65 ff 98 	lw r5,(fp+-104)
  8617c0:	4c 01 07 8c 	bge r0,r1,8635f0 <unlzma+0x1ec8>
  8617c4:	2b 61 ff a0 	lw r1,(fp+-96)
  8617c8:	b4 24 18 00 	add r3,r1,r4
  8617cc:	2b 61 ff a0 	lw r1,(fp+-96)
  8617d0:	40 29 00 00 	lbu r9,(r1+0)
  8617d4:	34 35 00 01 	addi r21,r1,1
  8617d8:	33 69 ff f4 	sb (fp+-12),r9
  8617dc:	54 75 00 0b 	bgu r3,r21,861808 <unlzma+0xe0>
  8617e0:	2b 63 ff a4 	lw r3,(fp+-92)
  8617e4:	5b 65 ff 98 	sw (fp+-104),r5
  8617e8:	78 02 00 01 	mvhi r2,0x1
  8617ec:	d8 60 00 00 	call r3
  8617f0:	b8 20 20 00 	mv r4,r1
  8617f4:	2b 65 ff 98 	lw r5,(fp+-104)
  8617f8:	4c 01 07 74 	bge r0,r1,8635c8 <unlzma+0x1ea0>
  8617fc:	2b 61 ff a0 	lw r1,(fp+-96)
  861800:	b4 24 18 00 	add r3,r1,r4
  861804:	b8 20 a8 00 	mv r21,r1
  861808:	42 a9 00 00 	lbu r9,(r21+0)
  86180c:	37 6b ff f4 	addi r11,fp,-12
  861810:	36 b5 00 01 	addi r21,r21,1
  861814:	31 69 00 01 	sb (r11+1),r9
  861818:	54 75 00 0c 	bgu r3,r21,861848 <unlzma+0x120>
  86181c:	2b 61 ff a0 	lw r1,(fp+-96)
  861820:	2b 63 ff a4 	lw r3,(fp+-92)
  861824:	5b 65 ff 98 	sw (fp+-104),r5
  861828:	78 02 00 01 	mvhi r2,0x1
  86182c:	d8 60 00 00 	call r3
  861830:	b8 20 20 00 	mv r4,r1
  861834:	2b 65 ff 98 	lw r5,(fp+-104)
  861838:	4c 01 07 50 	bge r0,r1,863578 <unlzma+0x1e50>
  86183c:	2b 61 ff a0 	lw r1,(fp+-96)
  861840:	b4 24 18 00 	add r3,r1,r4
  861844:	b8 20 a8 00 	mv r21,r1
  861848:	42 a9 00 00 	lbu r9,(r21+0)
  86184c:	36 b5 00 01 	addi r21,r21,1
  861850:	31 69 00 02 	sb (r11+2),r9
  861854:	54 75 00 0c 	bgu r3,r21,861884 <unlzma+0x15c>
  861858:	2b 61 ff a0 	lw r1,(fp+-96)
  86185c:	2b 63 ff a4 	lw r3,(fp+-92)
  861860:	5b 65 ff 98 	sw (fp+-104),r5
  861864:	78 02 00 01 	mvhi r2,0x1
  861868:	d8 60 00 00 	call r3
  86186c:	b8 20 20 00 	mv r4,r1
  861870:	2b 65 ff 98 	lw r5,(fp+-104)
  861874:	4c 01 07 4b 	bge r0,r1,8635a0 <unlzma+0x1e78>
  861878:	2b 61 ff a0 	lw r1,(fp+-96)
  86187c:	b4 24 18 00 	add r3,r1,r4
  861880:	b8 20 a8 00 	mv r21,r1
  861884:	42 a9 00 00 	lbu r9,(r21+0)
  861888:	36 b5 00 01 	addi r21,r21,1
  86188c:	31 69 00 03 	sb (r11+3),r9
  861890:	54 75 00 0c 	bgu r3,r21,8618c0 <unlzma+0x198>
  861894:	2b 61 ff a0 	lw r1,(fp+-96)
  861898:	2b 63 ff a4 	lw r3,(fp+-92)
  86189c:	5b 65 ff 98 	sw (fp+-104),r5
  8618a0:	78 02 00 01 	mvhi r2,0x1
  8618a4:	d8 60 00 00 	call r3
  8618a8:	b8 20 20 00 	mv r4,r1
  8618ac:	2b 65 ff 98 	lw r5,(fp+-104)
  8618b0:	4c 01 07 0a 	bge r0,r1,8634d8 <unlzma+0x1db0>
  8618b4:	2b 61 ff a0 	lw r1,(fp+-96)
  8618b8:	b4 24 18 00 	add r3,r1,r4
  8618bc:	b8 20 a8 00 	mv r21,r1
  8618c0:	42 a9 00 00 	lbu r9,(r21+0)
  8618c4:	36 b5 00 01 	addi r21,r21,1
  8618c8:	31 69 00 04 	sb (r11+4),r9
  8618cc:	54 75 00 0c 	bgu r3,r21,8618fc <unlzma+0x1d4>
  8618d0:	2b 61 ff a0 	lw r1,(fp+-96)
  8618d4:	2b 63 ff a4 	lw r3,(fp+-92)
  8618d8:	5b 65 ff 98 	sw (fp+-104),r5
  8618dc:	78 02 00 01 	mvhi r2,0x1
  8618e0:	d8 60 00 00 	call r3
  8618e4:	b8 20 20 00 	mv r4,r1
  8618e8:	2b 65 ff 98 	lw r5,(fp+-104)
  8618ec:	4c 01 07 05 	bge r0,r1,863500 <unlzma+0x1dd8>
  8618f0:	2b 61 ff a0 	lw r1,(fp+-96)
  8618f4:	b4 24 18 00 	add r3,r1,r4
  8618f8:	b8 20 a8 00 	mv r21,r1
  8618fc:	42 a9 00 00 	lbu r9,(r21+0)
  861900:	36 b5 00 01 	addi r21,r21,1
  861904:	31 69 00 05 	sb (r11+5),r9
  861908:	54 75 00 0c 	bgu r3,r21,861938 <unlzma+0x210>
  86190c:	2b 61 ff a0 	lw r1,(fp+-96)
  861910:	2b 63 ff a4 	lw r3,(fp+-92)
  861914:	5b 65 ff 98 	sw (fp+-104),r5
  861918:	78 02 00 01 	mvhi r2,0x1
  86191c:	d8 60 00 00 	call r3
  861920:	b8 20 20 00 	mv r4,r1
  861924:	2b 65 ff 98 	lw r5,(fp+-104)
  861928:	4c 01 07 00 	bge r0,r1,863528 <unlzma+0x1e00>
  86192c:	2b 61 ff a0 	lw r1,(fp+-96)
  861930:	b4 24 18 00 	add r3,r1,r4
  861934:	b8 20 a8 00 	mv r21,r1
  861938:	42 a9 00 00 	lbu r9,(r21+0)
  86193c:	36 b5 00 01 	addi r21,r21,1
  861940:	31 69 00 06 	sb (r11+6),r9
  861944:	54 75 00 0c 	bgu r3,r21,861974 <unlzma+0x24c>
  861948:	2b 61 ff a0 	lw r1,(fp+-96)
  86194c:	2b 63 ff a4 	lw r3,(fp+-92)
  861950:	5b 65 ff 98 	sw (fp+-104),r5
  861954:	78 02 00 01 	mvhi r2,0x1
  861958:	d8 60 00 00 	call r3
  86195c:	b8 20 20 00 	mv r4,r1
  861960:	2b 65 ff 98 	lw r5,(fp+-104)
  861964:	4c 01 06 fb 	bge r0,r1,863550 <unlzma+0x1e28>
  861968:	2b 61 ff a0 	lw r1,(fp+-96)
  86196c:	b4 24 18 00 	add r3,r1,r4
  861970:	b8 20 a8 00 	mv r21,r1
  861974:	42 a9 00 00 	lbu r9,(r21+0)
  861978:	36 b5 00 01 	addi r21,r21,1
  86197c:	31 69 00 07 	sb (r11+7),r9
  861980:	54 75 00 0c 	bgu r3,r21,8619b0 <unlzma+0x288>
  861984:	2b 61 ff a0 	lw r1,(fp+-96)
  861988:	2b 63 ff a4 	lw r3,(fp+-92)
  86198c:	5b 65 ff 98 	sw (fp+-104),r5
  861990:	78 02 00 01 	mvhi r2,0x1
  861994:	d8 60 00 00 	call r3
  861998:	b8 20 20 00 	mv r4,r1
  86199c:	2b 65 ff 98 	lw r5,(fp+-104)
  8619a0:	4c 01 06 a6 	bge r0,r1,863438 <unlzma+0x1d10>
  8619a4:	2b 61 ff a0 	lw r1,(fp+-96)
  8619a8:	b4 24 18 00 	add r3,r1,r4
  8619ac:	b8 20 a8 00 	mv r21,r1
  8619b0:	42 a9 00 00 	lbu r9,(r21+0)
  8619b4:	36 b5 00 01 	addi r21,r21,1
  8619b8:	31 69 00 08 	sb (r11+8),r9
  8619bc:	54 75 00 0c 	bgu r3,r21,8619ec <unlzma+0x2c4>
  8619c0:	2b 61 ff a0 	lw r1,(fp+-96)
  8619c4:	2b 63 ff a4 	lw r3,(fp+-92)
  8619c8:	5b 65 ff 98 	sw (fp+-104),r5
  8619cc:	78 02 00 01 	mvhi r2,0x1
  8619d0:	d8 60 00 00 	call r3
  8619d4:	b8 20 20 00 	mv r4,r1
  8619d8:	2b 65 ff 98 	lw r5,(fp+-104)
  8619dc:	4c 01 06 a1 	bge r0,r1,863460 <unlzma+0x1d38>
  8619e0:	2b 61 ff a0 	lw r1,(fp+-96)
  8619e4:	b4 24 18 00 	add r3,r1,r4
  8619e8:	b8 20 a8 00 	mv r21,r1
  8619ec:	42 a9 00 00 	lbu r9,(r21+0)
  8619f0:	36 b5 00 01 	addi r21,r21,1
  8619f4:	31 69 00 09 	sb (r11+9),r9
  8619f8:	54 75 00 0c 	bgu r3,r21,861a28 <unlzma+0x300>
  8619fc:	2b 61 ff a0 	lw r1,(fp+-96)
  861a00:	2b 63 ff a4 	lw r3,(fp+-92)
  861a04:	5b 65 ff 98 	sw (fp+-104),r5
  861a08:	78 02 00 01 	mvhi r2,0x1
  861a0c:	d8 60 00 00 	call r3
  861a10:	b8 20 20 00 	mv r4,r1
  861a14:	2b 65 ff 98 	lw r5,(fp+-104)
  861a18:	4c 01 06 9c 	bge r0,r1,863488 <unlzma+0x1d60>
  861a1c:	2b 61 ff a0 	lw r1,(fp+-96)
  861a20:	b4 24 18 00 	add r3,r1,r4
  861a24:	b8 20 a8 00 	mv r21,r1
  861a28:	42 a9 00 00 	lbu r9,(r21+0)
  861a2c:	36 b5 00 01 	addi r21,r21,1
  861a30:	31 69 00 0a 	sb (r11+10),r9
  861a34:	54 75 00 0c 	bgu r3,r21,861a64 <unlzma+0x33c>
  861a38:	2b 61 ff a0 	lw r1,(fp+-96)
  861a3c:	2b 63 ff a4 	lw r3,(fp+-92)
  861a40:	5b 65 ff 98 	sw (fp+-104),r5
  861a44:	78 02 00 01 	mvhi r2,0x1
  861a48:	d8 60 00 00 	call r3
  861a4c:	b8 20 20 00 	mv r4,r1
  861a50:	2b 65 ff 98 	lw r5,(fp+-104)
  861a54:	4c 01 06 97 	bge r0,r1,8634b0 <unlzma+0x1d88>
  861a58:	2b 61 ff a0 	lw r1,(fp+-96)
  861a5c:	b4 24 18 00 	add r3,r1,r4
  861a60:	b8 20 a8 00 	mv r21,r1
  861a64:	42 a9 00 00 	lbu r9,(r21+0)
  861a68:	36 b5 00 01 	addi r21,r21,1
  861a6c:	31 69 00 0b 	sb (r11+11),r9
  861a70:	54 75 00 14 	bgu r3,r21,861ac0 <unlzma+0x398>
  861a74:	2b 61 ff a0 	lw r1,(fp+-96)
  861a78:	2b 63 ff a4 	lw r3,(fp+-92)
  861a7c:	5b 65 ff 98 	sw (fp+-104),r5
  861a80:	78 02 00 01 	mvhi r2,0x1
  861a84:	d8 60 00 00 	call r3
  861a88:	b8 20 20 00 	mv r4,r1
  861a8c:	2b 65 ff 98 	lw r5,(fp+-104)
  861a90:	48 20 00 09 	bg r1,r0,861ab4 <unlzma+0x38c>
  861a94:	78 09 00 86 	mvhi r9,0x86
  861a98:	2b 62 ff ac 	lw r2,(fp+-84)
  861a9c:	b9 20 08 00 	mv r1,r9
  861aa0:	5b 64 ff 94 	sw (fp+-108),r4
  861aa4:	38 21 e1 54 	ori r1,r1,0xe154
  861aa8:	d8 40 00 00 	call r2
  861aac:	2b 65 ff 98 	lw r5,(fp+-104)
  861ab0:	2b 64 ff 94 	lw r4,(fp+-108)
  861ab4:	2b 61 ff a0 	lw r1,(fp+-96)
  861ab8:	b4 24 18 00 	add r3,r1,r4
  861abc:	b8 20 a8 00 	mv r21,r1
  861ac0:	42 a9 00 00 	lbu r9,(r21+0)
  861ac4:	43 68 ff f4 	lbu r8,(fp+-12)
  861ac8:	36 b5 00 01 	addi r21,r21,1
  861acc:	31 69 00 0c 	sb (r11+12),r9
  861ad0:	34 09 00 e0 	mvi r9,224
  861ad4:	51 28 00 27 	bgeu r9,r8,861b70 <unlzma+0x448>
  861ad8:	2b 62 ff ac 	lw r2,(fp+-84)
  861adc:	78 01 00 86 	mvhi r1,0x86
  861ae0:	38 21 e1 64 	ori r1,r1,0xe164
  861ae4:	d8 40 00 00 	call r2
  861ae8:	34 01 ff ff 	mvi r1,-1
  861aec:	2b 7c ff a8 	lw sp,(fp+-88)
  861af0:	2b 9d 00 04 	lw ra,(sp+4)
  861af4:	2b 8b 00 44 	lw r11,(sp+68)
  861af8:	2b 8c 00 40 	lw r12,(sp+64)
  861afc:	2b 8d 00 3c 	lw r13,(sp+60)
  861b00:	2b 8e 00 38 	lw r14,(sp+56)
  861b04:	2b 8f 00 34 	lw r15,(sp+52)
  861b08:	2b 90 00 30 	lw r16,(sp+48)
  861b0c:	2b 91 00 2c 	lw r17,(sp+44)
  861b10:	2b 92 00 28 	lw r18,(sp+40)
  861b14:	2b 93 00 24 	lw r19,(sp+36)
  861b18:	2b 94 00 20 	lw r20,(sp+32)
  861b1c:	2b 95 00 1c 	lw r21,(sp+28)
  861b20:	2b 96 00 18 	lw r22,(sp+24)
  861b24:	2b 97 00 14 	lw r23,(sp+20)
  861b28:	2b 98 00 10 	lw r24,(sp+16)
  861b2c:	2b 99 00 0c 	lw r25,(sp+12)
  861b30:	2b 9b 00 08 	lw fp,(sp+8)
  861b34:	37 9c 00 b4 	addi sp,sp,180
  861b38:	c3 a0 00 00 	ret
  861b3c:	78 03 00 86 	mvhi r3,0x86
  861b40:	38 63 17 20 	ori r3,r3,0x1720
  861b44:	5b 63 ff a4 	sw (fp+-92),r3
  861b48:	e3 ff ff 14 	bi 861798 <unlzma+0x70>
  861b4c:	78 01 00 86 	mvhi r1,0x86
  861b50:	38 21 e1 88 	ori r1,r1,0xe188
  861b54:	28 28 00 00 	lw r8,(r1+0)
  861b58:	b7 88 e0 00 	add sp,sp,r8
  861b5c:	37 88 00 0b 	addi r8,sp,11
  861b60:	01 08 00 03 	srui r8,r8,3
  861b64:	3d 08 00 03 	sli r8,r8,3
  861b68:	5b 68 ff a0 	sw (fp+-96),r8
  861b6c:	e3 ff ff 09 	bi 861790 <unlzma+0x68>
  861b70:	b9 00 30 00 	mv r6,r8
  861b74:	5b 60 ff b8 	sw (fp+-72),r0
  861b78:	5b 60 ff b0 	sw (fp+-80),r0
  861b7c:	34 0b 00 08 	mvi r11,8
  861b80:	34 08 00 00 	mvi r8,0
  861b84:	4d 66 00 10 	bge r11,r6,861bc4 <unlzma+0x49c>
  861b88:	34 09 00 08 	mvi r9,8
  861b8c:	b8 c0 08 00 	mv r1,r6
  861b90:	34 21 ff f7 	addi r1,r1,-9
  861b94:	35 08 00 01 	addi r8,r8,1
  861b98:	48 29 ff fe 	bg r1,r9,861b90 <unlzma+0x468>
  861b9c:	34 0b 00 04 	mvi r11,4
  861ba0:	b8 20 30 00 	mv r6,r1
  861ba4:	34 09 00 00 	mvi r9,0
  861ba8:	34 0a 00 04 	mvi r10,4
  861bac:	49 0b 00 fa 	bg r8,r11,861f94 <unlzma+0x86c>
  861bb0:	34 0a 00 01 	mvi r10,1
  861bb4:	bd 48 50 00 	sl r10,r10,r8
  861bb8:	5b 60 ff b0 	sw (fp+-80),r0
  861bbc:	35 4a ff ff 	addi r10,r10,-1
  861bc0:	5b 6a ff b8 	sw (fp+-72),r10
  861bc4:	37 6a ff f9 	addi r10,fp,-7
  861bc8:	41 4e 00 07 	lbu r14,(r10+7)
  861bcc:	37 6b ff f5 	addi r11,fp,-11
  861bd0:	41 6c 00 03 	lbu r12,(r11+3)
  861bd4:	41 4d 00 06 	lbu r13,(r10+6)
  861bd8:	41 70 00 02 	lbu r16,(r11+2)
  861bdc:	3d ce 00 08 	sli r14,r14,8
  861be0:	3d 8c 00 08 	sli r12,r12,8
  861be4:	b9 cd 70 00 	or r14,r14,r13
  861be8:	41 4d 00 05 	lbu r13,(r10+5)
  861bec:	41 6f 00 01 	lbu r15,(r11+1)
  861bf0:	b9 90 60 00 	or r12,r12,r16
  861bf4:	3d cb 00 08 	sli r11,r14,8
  861bf8:	3d 8c 00 08 	sli r12,r12,8
  861bfc:	b9 6d 58 00 	or r11,r11,r13
  861c00:	41 4d 00 04 	lbu r13,(r10+4)
  861c04:	b9 8f 60 00 	or r12,r12,r15
  861c08:	01 ce 00 18 	srui r14,r14,24
  861c0c:	3d 6f 00 08 	sli r15,r11,8
  861c10:	43 70 ff f5 	lbu r16,(fp+-11)
  861c14:	b9 ed 68 00 	or r13,r15,r13
  861c18:	01 6b 00 18 	srui r11,r11,24
  861c1c:	41 4f 00 03 	lbu r15,(r10+3)
  861c20:	78 01 00 86 	mvhi r1,0x86
  861c24:	3d ca 00 08 	sli r10,r14,8
  861c28:	3d 8c 00 08 	sli r12,r12,8
  861c2c:	38 21 e1 8c 	ori r1,r1,0xe18c
  861c30:	28 29 00 00 	lw r9,(r1+0)
  861c34:	b9 6a 50 00 	or r10,r11,r10
  861c38:	2b 6b ff f8 	lw r11,(fp+-8)
  861c3c:	b9 90 60 00 	or r12,r12,r16
  861c40:	3d b0 00 08 	sli r16,r13,8
  861c44:	3d 8e 00 18 	sli r14,r12,24
  861c48:	ba 0f 78 00 	or r15,r16,r15
  861c4c:	01 ad 00 18 	srui r13,r13,24
  861c50:	a1 69 58 00 	and r11,r11,r9
  861c54:	3d 4a 00 08 	sli r10,r10,8
  861c58:	b9 6e 58 00 	or r11,r11,r14
  861c5c:	3d ee 00 08 	sli r14,r15,8
  861c60:	b9 aa 50 00 	or r10,r13,r10
  861c64:	21 6d 00 ff 	andi r13,r11,0xff
  861c68:	b9 cd 70 00 	or r14,r14,r13
  861c6c:	01 ef 00 18 	srui r15,r15,24
  861c70:	01 6d 00 08 	srui r13,r11,8
  861c74:	3d 4a 00 08 	sli r10,r10,8
  861c78:	3d d0 00 08 	sli r16,r14,8
  861c7c:	b9 ea 50 00 	or r10,r15,r10
  861c80:	21 ad 00 ff 	andi r13,r13,0xff
  861c84:	ba 0d 68 00 	or r13,r16,r13
  861c88:	01 ce 00 18 	srui r14,r14,24
  861c8c:	01 70 00 10 	srui r16,r11,16
  861c90:	3d 4a 00 08 	sli r10,r10,8
  861c94:	3d af 00 08 	sli r15,r13,8
  861c98:	b9 ca 50 00 	or r10,r14,r10
  861c9c:	2b 71 ff fc 	lw r17,(fp+-4)
  861ca0:	22 0e 00 ff 	andi r14,r16,0xff
  861ca4:	b9 ee b0 00 	or r22,r15,r14
  861ca8:	3d 4a 00 08 	sli r10,r10,8
  861cac:	01 ae 00 18 	srui r14,r13,24
  861cb0:	02 cf 00 08 	srui r15,r22,8
  861cb4:	78 0d ff 00 	mvhi r13,0xff00
  861cb8:	2b 74 ff f4 	lw r20,(fp+-12)
  861cbc:	2b 73 00 00 	lw r19,(fp+0)
  861cc0:	b9 ca 50 00 	or r10,r14,r10
  861cc4:	a2 2d 88 00 	and r17,r17,r13
  861cc8:	ba 2f 88 00 	or r17,r17,r15
  861ccc:	01 8e 00 08 	srui r14,r12,8
  861cd0:	3e d0 00 18 	sli r16,r22,24
  861cd4:	01 52 00 08 	srui r18,r10,8
  861cd8:	3d 4f 00 18 	sli r15,r10,24
  861cdc:	a2 8d a0 00 	and r20,r20,r13
  861ce0:	a2 69 98 00 	and r19,r19,r9
  861ce4:	a1 6d 58 00 	and r11,r11,r13
  861ce8:	a2 29 88 00 	and r17,r17,r9
  861cec:	ba 70 80 00 	or r16,r19,r16
  861cf0:	ba 8e 70 00 	or r14,r20,r14
  861cf4:	b9 72 58 00 	or r11,r11,r18
  861cf8:	ba 2f 78 00 	or r15,r17,r15
  861cfc:	5b 70 00 00 	sw (fp+0),r16
  861d00:	5b 6e ff f4 	sw (fp+-12),r14
  861d04:	5b 6b ff f8 	sw (fp+-8),r11
  861d08:	5b 6f ff fc 	sw (fp+-4),r15
  861d0c:	b9 40 80 00 	mv r16,r10
  861d10:	5d 80 00 08 	bne r12,r0,861d30 <unlzma+0x608>
  861d14:	78 0c 01 00 	mvhi r12,0x100
  861d18:	a1 69 58 00 	and r11,r11,r9
  861d1c:	b9 6c 58 00 	or r11,r11,r12
  861d20:	a1 cd 68 00 	and r13,r14,r13
  861d24:	5b 6d ff f4 	sw (fp+-12),r13
  861d28:	5b 6b ff f8 	sw (fp+-8),r11
  861d2c:	34 0c 00 01 	mvi r12,1
  861d30:	5b 65 ff bc 	sw (fp+-68),r5
  861d34:	44 a0 02 e5 	be r5,r0,8628c8 <unlzma+0x11a0>
  861d38:	b5 06 28 00 	add r5,r8,r6
  861d3c:	34 0b 03 00 	mvi r11,768
  861d40:	bd 65 58 00 	sl r11,r11,r5
  861d44:	35 6b 07 36 	addi r11,r11,1846
  861d48:	3d 65 00 01 	sli r5,r11,1
  861d4c:	34 a5 00 0a 	addi r5,r5,10
  861d50:	00 a5 00 02 	srui r5,r5,2
  861d54:	3c a5 00 02 	sli r5,r5,2
  861d58:	cb 85 e0 00 	sub sp,sp,r5
  861d5c:	37 85 00 0b 	addi r5,sp,11
  861d60:	00 a5 00 03 	srui r5,r5,3
  861d64:	3c a5 00 03 	sli r5,r5,3
  861d68:	5b 65 ff c8 	sw (fp+-56),r5
  861d6c:	4c 0b 00 17 	bge r0,r11,861dc8 <unlzma+0x6a0>
  861d70:	01 6d 00 01 	srui r13,r11,1
  861d74:	34 05 00 00 	mvi r5,0
  861d78:	3d ae 00 01 	sli r14,r13,1
  861d7c:	45 c0 00 0b 	be r14,r0,861da8 <unlzma+0x680>
  861d80:	78 02 00 86 	mvhi r2,0x86
  861d84:	38 42 e1 90 	ori r2,r2,0xe190
  861d88:	28 4c 00 00 	lw r12,(r2+0)
  861d8c:	2b 68 ff c8 	lw r8,(fp+-56)
  861d90:	59 0c 00 00 	sw (r8+0),r12
  861d94:	34 a5 00 01 	addi r5,r5,1
  861d98:	35 08 00 04 	addi r8,r8,4
  861d9c:	55 a5 ff fd 	bgu r13,r5,861d90 <unlzma+0x668>
  861da0:	b9 c0 28 00 	mv r5,r14
  861da4:	45 cb 00 09 	be r14,r11,861dc8 <unlzma+0x6a0>
  861da8:	2b 61 ff c8 	lw r1,(fp+-56)
  861dac:	3c ae 00 01 	sli r14,r5,1
  861db0:	34 0c 04 00 	mvi r12,1024
  861db4:	b4 2e 40 00 	add r8,r1,r14
  861db8:	0d 0c 00 00 	sh (r8+0),r12
  861dbc:	34 a5 00 01 	addi r5,r5,1
  861dc0:	35 08 00 02 	addi r8,r8,2
  861dc4:	49 65 ff fd 	bg r11,r5,861db8 <unlzma+0x690>
  861dc8:	54 75 00 0c 	bgu r3,r21,861df8 <unlzma+0x6d0>
  861dcc:	2b 61 ff a0 	lw r1,(fp+-96)
  861dd0:	2b 63 ff a4 	lw r3,(fp+-92)
  861dd4:	5b 66 ff 98 	sw (fp+-104),r6
  861dd8:	78 02 00 01 	mvhi r2,0x1
  861ddc:	d8 60 00 00 	call r3
  861de0:	b8 20 20 00 	mv r4,r1
  861de4:	2b 66 ff 98 	lw r6,(fp+-104)
  861de8:	4c 01 05 37 	bge r0,r1,8632c4 <unlzma+0x1b9c>
  861dec:	2b 61 ff a0 	lw r1,(fp+-96)
  861df0:	b4 24 18 00 	add r3,r1,r4
  861df4:	b8 20 a8 00 	mv r21,r1
  861df8:	36 ab 00 01 	addi r11,r21,1
  861dfc:	42 b2 00 00 	lbu r18,(r21+0)
  861e00:	54 6b 00 0c 	bgu r3,r11,861e30 <unlzma+0x708>
  861e04:	2b 61 ff a0 	lw r1,(fp+-96)
  861e08:	2b 63 ff a4 	lw r3,(fp+-92)
  861e0c:	5b 66 ff 98 	sw (fp+-104),r6
  861e10:	78 02 00 01 	mvhi r2,0x1
  861e14:	d8 60 00 00 	call r3
  861e18:	b8 20 20 00 	mv r4,r1
  861e1c:	2b 66 ff 98 	lw r6,(fp+-104)
  861e20:	4c 01 05 15 	bge r0,r1,863274 <unlzma+0x1b4c>
  861e24:	2b 61 ff a0 	lw r1,(fp+-96)
  861e28:	b4 24 18 00 	add r3,r1,r4
  861e2c:	b8 20 58 00 	mv r11,r1
  861e30:	41 71 00 00 	lbu r17,(r11+0)
  861e34:	3e 45 00 08 	sli r5,r18,8
  861e38:	35 6b 00 01 	addi r11,r11,1
  861e3c:	ba 25 88 00 	or r17,r17,r5
  861e40:	54 6b 00 0c 	bgu r3,r11,861e70 <unlzma+0x748>
  861e44:	2b 61 ff a0 	lw r1,(fp+-96)
  861e48:	2b 63 ff a4 	lw r3,(fp+-92)
  861e4c:	5b 66 ff 98 	sw (fp+-104),r6
  861e50:	78 02 00 01 	mvhi r2,0x1
  861e54:	d8 60 00 00 	call r3
  861e58:	b8 20 20 00 	mv r4,r1
  861e5c:	2b 66 ff 98 	lw r6,(fp+-104)
  861e60:	4c 01 05 0f 	bge r0,r1,86329c <unlzma+0x1b74>
  861e64:	2b 61 ff a0 	lw r1,(fp+-96)
  861e68:	b4 24 18 00 	add r3,r1,r4
  861e6c:	b8 20 58 00 	mv r11,r1
  861e70:	41 72 00 00 	lbu r18,(r11+0)
  861e74:	3e 25 00 08 	sli r5,r17,8
  861e78:	35 6b 00 01 	addi r11,r11,1
  861e7c:	ba 45 90 00 	or r18,r18,r5
  861e80:	54 6b 00 0c 	bgu r3,r11,861eb0 <unlzma+0x788>
  861e84:	2b 61 ff a0 	lw r1,(fp+-96)
  861e88:	2b 63 ff a4 	lw r3,(fp+-92)
  861e8c:	5b 66 ff 98 	sw (fp+-104),r6
  861e90:	78 02 00 01 	mvhi r2,0x1
  861e94:	d8 60 00 00 	call r3
  861e98:	b8 20 20 00 	mv r4,r1
  861e9c:	2b 66 ff 98 	lw r6,(fp+-104)
  861ea0:	4c 01 04 eb 	bge r0,r1,86324c <unlzma+0x1b24>
  861ea4:	2b 61 ff a0 	lw r1,(fp+-96)
  861ea8:	b4 24 18 00 	add r3,r1,r4
  861eac:	b8 20 58 00 	mv r11,r1
  861eb0:	41 71 00 00 	lbu r17,(r11+0)
  861eb4:	3e 45 00 08 	sli r5,r18,8
  861eb8:	35 6b 00 01 	addi r11,r11,1
  861ebc:	ba 25 88 00 	or r17,r17,r5
  861ec0:	51 63 03 c0 	bgeu r11,r3,862dc0 <unlzma+0x1698>
  861ec4:	2b 74 ff a0 	lw r20,(fp+-96)
  861ec8:	34 01 00 01 	mvi r1,1
  861ecc:	41 65 00 00 	lbu r5,(r11+0)
  861ed0:	78 02 00 86 	mvhi r2,0x86
  861ed4:	5b 61 ff cc 	sw (fp+-52),r1
  861ed8:	5b 61 ff e4 	sw (fp+-28),r1
  861edc:	5b 61 ff e0 	sw (fp+-32),r1
  861ee0:	5b 61 ff ec 	sw (fp+-20),r1
  861ee4:	78 01 00 86 	mvhi r1,0x86
  861ee8:	5b 62 ff d0 	sw (fp+-48),r2
  861eec:	38 21 e1 8c 	ori r1,r1,0xe18c
  861ef0:	28 29 00 00 	lw r9,(r1+0)
  861ef4:	2b 61 ff d0 	lw r1,(fp+-48)
  861ef8:	3e 31 00 08 	sli r17,r17,8
  861efc:	34 0c 00 08 	mvi r12,8
  861f00:	34 02 00 00 	mvi r2,0
  861f04:	38 21 e1 54 	ori r1,r1,0xe154
  861f08:	c9 86 60 00 	sub r12,r12,r6
  861f0c:	b8 b1 c0 00 	or r24,r5,r17
  861f10:	35 79 00 01 	addi r25,r11,1
  861f14:	34 17 ff ff 	mvi r23,-1
  861f18:	34 13 00 00 	mvi r19,0
  861f1c:	34 0b 00 00 	mvi r11,0
  861f20:	5b 60 ff d4 	sw (fp+-44),r0
  861f24:	5b 61 ff d0 	sw (fp+-48),r1
  861f28:	5b 6c ff d8 	sw (fp+-40),r12
  861f2c:	34 07 00 ff 	mvi r7,255
  861f30:	5b 66 ff dc 	sw (fp+-36),r6
  861f34:	5b 62 ff 9c 	sw (fp+-100),r2
  861f38:	b8 60 88 00 	mv r17,r3
  861f3c:	b8 80 90 00 	mv r18,r4
  861f40:	2b 63 ff d4 	lw r3,(fp+-44)
  861f44:	b4 73 18 00 	add r3,r3,r19
  861f48:	14 68 00 1f 	sri r8,r3,31
  861f4c:	5b 63 ff c0 	sw (fp+-64),r3
  861f50:	56 08 00 1c 	bgu r16,r8,861fc0 <unlzma+0x898>
  861f54:	5e 08 00 02 	bne r16,r8,861f5c <unlzma+0x834>
  861f58:	56 c3 00 1a 	bgu r22,r3,861fc0 <unlzma+0x898>
  861f5c:	2b 61 ff c4 	lw r1,(fp+-60)
  861f60:	44 20 00 04 	be r1,r0,861f70 <unlzma+0x848>
  861f64:	2b 62 ff a0 	lw r2,(fp+-96)
  861f68:	cb 22 18 00 	sub r3,r25,r2
  861f6c:	58 23 00 00 	sw (r1+0),r3
  861f70:	2b 63 ff b4 	lw r3,(fp+-76)
  861f74:	34 01 00 00 	mvi r1,0
  861f78:	44 60 fe dd 	be r3,r0,861aec <unlzma+0x3c4>
  861f7c:	2b 61 ff bc 	lw r1,(fp+-68)
  861f80:	ba 60 10 00 	mv r2,r19
  861f84:	d8 60 00 00 	call r3
  861f88:	e4 33 08 00 	cmpe r1,r1,r19
  861f8c:	34 21 ff ff 	addi r1,r1,-1
  861f90:	e3 ff fe d7 	bi 861aec <unlzma+0x3c4>
  861f94:	35 08 ff fb 	addi r8,r8,-5
  861f98:	35 29 00 01 	addi r9,r9,1
  861f9c:	49 0a ff fe 	bg r8,r10,861f94 <unlzma+0x86c>
  861fa0:	34 0a 00 01 	mvi r10,1
  861fa4:	bd 49 48 00 	sl r9,r10,r9
  861fa8:	bd 48 50 00 	sl r10,r10,r8
  861fac:	35 29 ff ff 	addi r9,r9,-1
  861fb0:	35 4a ff ff 	addi r10,r10,-1
  861fb4:	5b 69 ff b0 	sw (fp+-80),r9
  861fb8:	5b 6a ff b8 	sw (fp+-72),r10
  861fbc:	e3 ff ff 02 	bi 861bc4 <unlzma+0x49c>
  861fc0:	2b 62 ff 9c 	lw r2,(fp+-100)
  861fc4:	2b 63 ff c0 	lw r3,(fp+-64)
  861fc8:	2b 61 ff b0 	lw r1,(fp+-80)
  861fcc:	3c 48 00 04 	sli r8,r2,4
  861fd0:	2b 62 ff c8 	lw r2,(fp+-56)
  861fd4:	a0 61 b0 00 	and r22,r3,r1
  861fd8:	b6 c8 a8 00 	add r21,r22,r8
  861fdc:	3e a8 00 01 	sli r8,r21,1
  861fe0:	b4 48 78 00 	add r15,r2,r8
  861fe4:	56 e9 00 18 	bgu r23,r9,862044 <unlzma+0x91c>
  861fe8:	56 39 00 12 	bgu r17,r25,862030 <unlzma+0x908>
  861fec:	2b 63 ff a4 	lw r3,(fp+-92)
  861ff0:	5b 67 ff 94 	sw (fp+-108),r7
  861ff4:	5b 69 ff 98 	sw (fp+-104),r9
  861ff8:	ba 80 08 00 	mv r1,r20
  861ffc:	78 02 00 01 	mvhi r2,0x1
  862000:	d8 60 00 00 	call r3
  862004:	b8 20 90 00 	mv r18,r1
  862008:	2b 67 ff 94 	lw r7,(fp+-108)
  86200c:	2b 69 ff 98 	lw r9,(fp+-104)
  862010:	48 20 00 06 	bg r1,r0,862028 <unlzma+0x900>
  862014:	2b 61 ff d0 	lw r1,(fp+-48)
  862018:	2b 62 ff ac 	lw r2,(fp+-84)
  86201c:	d8 40 00 00 	call r2
  862020:	2b 69 ff 98 	lw r9,(fp+-104)
  862024:	2b 67 ff 94 	lw r7,(fp+-108)
  862028:	b6 92 88 00 	add r17,r20,r18
  86202c:	ba 80 c8 00 	mv r25,r20
  862030:	43 2a 00 00 	lbu r10,(r25+0)
  862034:	3f 05 00 08 	sli r5,r24,8
  862038:	3e f7 00 08 	sli r23,r23,8
  86203c:	b9 45 c0 00 	or r24,r10,r5
  862040:	37 39 00 01 	addi r25,r25,1
  862044:	2d ec 00 00 	lhu r12,(r15+0)
  862048:	02 e8 00 0b 	srui r8,r23,11
  86204c:	89 0c 70 00 	mul r14,r8,r12
  862050:	53 0e 00 c6 	bgeu r24,r14,862368 <unlzma+0xc40>
  862054:	2b 63 ff c0 	lw r3,(fp+-64)
  862058:	2b 61 ff b8 	lw r1,(fp+-72)
  86205c:	2b 62 ff dc 	lw r2,(fp+-36)
  862060:	b9 c0 b8 00 	mv r23,r14
  862064:	a0 61 30 00 	and r6,r3,r1
  862068:	2b 63 ff d8 	lw r3,(fp+-40)
  86206c:	bc c2 30 00 	sl r6,r6,r2
  862070:	34 01 08 00 	mvi r1,2048
  862074:	95 63 58 00 	sr r11,r11,r3
  862078:	c8 2c 50 00 	sub r10,r1,r12
  86207c:	b4 cb 30 00 	add r6,r6,r11
  862080:	3c cb 00 09 	sli r11,r6,9
  862084:	15 4a 00 05 	sri r10,r10,5
  862088:	3c c6 00 0b 	sli r6,r6,11
  86208c:	2b 62 ff c8 	lw r2,(fp+-56)
  862090:	2b 61 ff 9c 	lw r1,(fp+-100)
  862094:	b5 8a 50 00 	add r10,r12,r10
  862098:	c8 cb 30 00 	sub r6,r6,r11
  86209c:	34 c6 0e 6c 	addi r6,r6,3692
  8620a0:	0d ea 00 00 	sh (r15+0),r10
  8620a4:	34 03 00 06 	mvi r3,6
  8620a8:	b4 46 80 00 	add r16,r2,r6
  8620ac:	34 0d 00 01 	mvi r13,1
  8620b0:	4c 61 00 7a 	bge r3,r1,862298 <unlzma+0xb70>
  8620b4:	2b 62 ff b4 	lw r2,(fp+-76)
  8620b8:	44 40 03 57 	be r2,r0,862e14 <unlzma+0x16ec>
  8620bc:	2b 6b ff f4 	lw r11,(fp+-12)
  8620c0:	43 65 ff f8 	lbu r5,(fp+-8)
  8620c4:	2b 61 ff cc 	lw r1,(fp+-52)
  8620c8:	3d 6b 00 08 	sli r11,r11,8
  8620cc:	ca 61 50 00 	sub r10,r19,r1
  8620d0:	b8 ab 58 00 	or r11,r5,r11
  8620d4:	55 6a 00 06 	bgu r11,r10,8620ec <unlzma+0x9c4>
  8620d8:	2b 62 ff 9c 	lw r2,(fp+-100)
  8620dc:	b5 4b 50 00 	add r10,r10,r11
  8620e0:	b5 4b 08 00 	add r1,r10,r11
  8620e4:	51 4b 00 5e 	bgeu r10,r11,86225c <unlzma+0xb34>
  8620e8:	5b 62 ff 9c 	sw (fp+-100),r2
  8620ec:	2b 62 ff bc 	lw r2,(fp+-68)
  8620f0:	b4 4a 50 00 	add r10,r2,r10
  8620f4:	41 48 00 00 	lbu r8,(r10+0)
  8620f8:	2b 75 ff 9c 	lw r21,(fp+-100)
  8620fc:	b9 00 78 00 	mv r15,r8
  862100:	34 0d 00 01 	mvi r13,1
  862104:	3d ef 00 01 	sli r15,r15,1
  862108:	35 a2 01 00 	addi r2,r13,256
  86210c:	21 ec 01 00 	andi r12,r15,0x100
  862110:	b4 4c 10 00 	add r2,r2,r12
  862114:	3c 42 00 01 	sli r2,r2,1
  862118:	b6 02 58 00 	add r11,r16,r2
  86211c:	55 c9 00 18 	bgu r14,r9,86217c <unlzma+0xa54>
  862120:	56 39 00 12 	bgu r17,r25,862168 <unlzma+0xa40>
  862124:	2b 63 ff a4 	lw r3,(fp+-92)
  862128:	5b 67 ff 94 	sw (fp+-108),r7
  86212c:	5b 69 ff 98 	sw (fp+-104),r9
  862130:	ba 80 08 00 	mv r1,r20
  862134:	78 02 00 01 	mvhi r2,0x1
  862138:	d8 60 00 00 	call r3
  86213c:	b8 20 90 00 	mv r18,r1
  862140:	2b 67 ff 94 	lw r7,(fp+-108)
  862144:	2b 69 ff 98 	lw r9,(fp+-104)
  862148:	48 20 00 06 	bg r1,r0,862160 <unlzma+0xa38>
  86214c:	2b 61 ff d0 	lw r1,(fp+-48)
  862150:	2b 62 ff ac 	lw r2,(fp+-84)
  862154:	d8 40 00 00 	call r2
  862158:	2b 69 ff 98 	lw r9,(fp+-104)
  86215c:	2b 67 ff 94 	lw r7,(fp+-108)
  862160:	b6 92 88 00 	add r17,r20,r18
  862164:	ba 80 c8 00 	mv r25,r20
  862168:	43 24 00 00 	lbu r4,(r25+0)
  86216c:	3f 03 00 08 	sli r3,r24,8
  862170:	3d ce 00 08 	sli r14,r14,8
  862174:	b8 83 c0 00 	or r24,r4,r3
  862178:	37 39 00 01 	addi r25,r25,1
  86217c:	2d 65 00 00 	lhu r5,(r11+0)
  862180:	01 c2 00 0b 	srui r2,r14,11
  862184:	88 45 b8 00 	mul r23,r2,r5
  862188:	53 17 00 37 	bgeu r24,r23,862264 <unlzma+0xb3c>
  86218c:	34 03 08 00 	mvi r3,2048
  862190:	c8 65 20 00 	sub r4,r3,r5
  862194:	14 84 00 05 	sri r4,r4,5
  862198:	3d ad 00 01 	sli r13,r13,1
  86219c:	b4 a4 18 00 	add r3,r5,r4
  8621a0:	0d 63 00 00 	sh (r11+0),r3
  8621a4:	5d 80 03 a1 	bne r12,r0,863028 <unlzma+0x1900>
  8621a8:	ba e0 70 00 	mv r14,r23
  8621ac:	4c ed ff d6 	bge r7,r13,862104 <unlzma+0x9dc>
  8621b0:	5b 75 ff 9c 	sw (fp+-100),r21
  8621b4:	b9 c0 b8 00 	mv r23,r14
  8621b8:	2b 63 ff 9c 	lw r3,(fp+-100)
  8621bc:	34 08 00 09 	mvi r8,9
  8621c0:	48 68 01 bf 	bg r3,r8,8628bc <unlzma+0x1194>
  8621c4:	34 63 ff fd 	addi r3,r3,-3
  8621c8:	5b 63 ff 9c 	sw (fp+-100),r3
  8621cc:	2b 62 ff bc 	lw r2,(fp+-68)
  8621d0:	21 ab 00 ff 	andi r11,r13,0xff
  8621d4:	b4 53 40 00 	add r8,r2,r19
  8621d8:	31 0b 00 00 	sb (r8+0),r11
  8621dc:	2b 63 ff b4 	lw r3,(fp+-76)
  8621e0:	36 73 00 01 	addi r19,r19,1
  8621e4:	44 60 00 06 	be r3,r0,8621fc <unlzma+0xad4>
  8621e8:	2b 68 ff f4 	lw r8,(fp+-12)
  8621ec:	43 6a ff f8 	lbu r10,(fp+-8)
  8621f0:	3d 08 00 08 	sli r8,r8,8
  8621f4:	b9 48 40 00 	or r8,r10,r8
  8621f8:	46 68 00 0b 	be r19,r8,862224 <unlzma+0xafc>
  8621fc:	4c 12 01 bd 	bge r0,r18,8628f0 <unlzma+0x11c8>
  862200:	2b 68 ff fc 	lw r8,(fp+-4)
  862204:	2b 6a ff f8 	lw r10,(fp+-8)
  862208:	43 66 00 00 	lbu r6,(fp+0)
  86220c:	3d 0c 00 08 	sli r12,r8,8
  862210:	3d 4a 00 08 	sli r10,r10,8
  862214:	01 08 00 18 	srui r8,r8,24
  862218:	b8 cc b0 00 	or r22,r6,r12
  86221c:	b9 0a 80 00 	or r16,r8,r10
  862220:	e3 ff ff 48 	bi 861f40 <unlzma+0x818>
  862224:	2b 61 ff bc 	lw r1,(fp+-68)
  862228:	5b 67 ff 94 	sw (fp+-108),r7
  86222c:	5b 69 ff 98 	sw (fp+-104),r9
  862230:	ba 60 10 00 	mv r2,r19
  862234:	d8 60 00 00 	call r3
  862238:	2b 67 ff 94 	lw r7,(fp+-108)
  86223c:	2b 69 ff 98 	lw r9,(fp+-104)
  862240:	46 61 02 70 	be r19,r1,862c00 <unlzma+0x14d8>
  862244:	2b 62 ff ac 	lw r2,(fp+-84)
  862248:	78 01 00 86 	mvhi r1,0x86
  86224c:	38 21 e1 70 	ori r1,r1,0xe170
  862250:	d8 40 00 00 	call r2
  862254:	34 01 ff ff 	mvi r1,-1
  862258:	e3 ff fe 25 	bi 861aec <unlzma+0x3c4>
  86225c:	b8 20 50 00 	mv r10,r1
  862260:	e3 ff ff a0 	bi 8620e0 <unlzma+0x9b8>
  862264:	00 a4 00 05 	srui r4,r5,5
  862268:	3d a6 00 01 	sli r6,r13,1
  86226c:	c8 a4 18 00 	sub r3,r5,r4
  862270:	0d 63 00 00 	sh (r11+0),r3
  862274:	c9 d7 70 00 	sub r14,r14,r23
  862278:	cb 17 c0 00 	sub r24,r24,r23
  86227c:	34 cd 00 01 	addi r13,r6,1
  862280:	5d 80 ff cb 	bne r12,r0,8621ac <unlzma+0xa84>
  862284:	5b 75 ff 9c 	sw (fp+-100),r21
  862288:	b9 c0 b8 00 	mv r23,r14
  86228c:	4c ed 02 ca 	bge r7,r13,862db4 <unlzma+0x168c>
  862290:	ba e0 70 00 	mv r14,r23
  862294:	e3 ff ff c8 	bi 8621b4 <unlzma+0xa8c>
  862298:	2b 6e ff a4 	lw r14,(fp+-92)
  86229c:	b8 20 78 00 	mv r15,r1
  8622a0:	3d ab 00 01 	sli r11,r13,1
  8622a4:	b6 0b 60 00 	add r12,r16,r11
  8622a8:	56 e9 00 17 	bgu r23,r9,862304 <unlzma+0xbdc>
  8622ac:	3e f7 00 08 	sli r23,r23,8
  8622b0:	56 39 00 11 	bgu r17,r25,8622f4 <unlzma+0xbcc>
  8622b4:	5b 67 ff 94 	sw (fp+-108),r7
  8622b8:	5b 69 ff 98 	sw (fp+-104),r9
  8622bc:	78 02 00 01 	mvhi r2,0x1
  8622c0:	ba 80 08 00 	mv r1,r20
  8622c4:	d9 c0 00 00 	call r14
  8622c8:	b8 20 90 00 	mv r18,r1
  8622cc:	2b 67 ff 94 	lw r7,(fp+-108)
  8622d0:	2b 69 ff 98 	lw r9,(fp+-104)
  8622d4:	48 20 00 06 	bg r1,r0,8622ec <unlzma+0xbc4>
  8622d8:	2b 61 ff d0 	lw r1,(fp+-48)
  8622dc:	2b 62 ff ac 	lw r2,(fp+-84)
  8622e0:	d8 40 00 00 	call r2
  8622e4:	2b 69 ff 98 	lw r9,(fp+-104)
  8622e8:	2b 67 ff 94 	lw r7,(fp+-108)
  8622ec:	ba 80 c8 00 	mv r25,r20
  8622f0:	b6 92 88 00 	add r17,r20,r18
  8622f4:	43 23 00 00 	lbu r3,(r25+0)
  8622f8:	3f 02 00 08 	sli r2,r24,8
  8622fc:	37 39 00 01 	addi r25,r25,1
  862300:	b8 62 c0 00 	or r24,r3,r2
  862304:	2d 83 00 00 	lhu r3,(r12+0)
  862308:	02 e2 00 0b 	srui r2,r23,11
  86230c:	35 6d 00 01 	addi r13,r11,1
  862310:	88 43 28 00 	mul r5,r2,r3
  862314:	00 62 00 05 	srui r2,r3,5
  862318:	c8 62 10 00 	sub r2,r3,r2
  86231c:	53 05 00 0f 	bgeu r24,r5,862358 <unlzma+0xc30>
  862320:	34 01 08 00 	mvi r1,2048
  862324:	c8 23 20 00 	sub r4,r1,r3
  862328:	14 84 00 05 	sri r4,r4,5
  86232c:	b9 60 68 00 	mv r13,r11
  862330:	b4 64 18 00 	add r3,r3,r4
  862334:	0d 83 00 00 	sh (r12+0),r3
  862338:	b8 a0 b8 00 	mv r23,r5
  86233c:	4c ed ff d9 	bge r7,r13,8622a0 <unlzma+0xb78>
  862340:	5b 6f ff 9c 	sw (fp+-100),r15
  862344:	34 02 00 03 	mvi r2,3
  862348:	4c 4f 00 02 	bge r2,r15,862350 <unlzma+0xc28>
  86234c:	e3 ff ff 9b 	bi 8621b8 <unlzma+0xa90>
  862350:	5b 60 ff 9c 	sw (fp+-100),r0
  862354:	e3 ff ff 9e 	bi 8621cc <unlzma+0xaa4>
  862358:	0d 82 00 00 	sh (r12+0),r2
  86235c:	ca e5 b8 00 	sub r23,r23,r5
  862360:	cb 05 c0 00 	sub r24,r24,r5
  862364:	e3 ff ff f6 	bi 86233c <unlzma+0xc14>
  862368:	2b 63 ff 9c 	lw r3,(fp+-100)
  86236c:	01 8b 00 05 	srui r11,r12,5
  862370:	2b 61 ff c8 	lw r1,(fp+-56)
  862374:	34 6a 00 c0 	addi r10,r3,192
  862378:	c9 8b 60 00 	sub r12,r12,r11
  86237c:	3d 4a 00 01 	sli r10,r10,1
  862380:	ca ee b8 00 	sub r23,r23,r14
  862384:	0d ec 00 00 	sh (r15+0),r12
  862388:	cb 0e c0 00 	sub r24,r24,r14
  86238c:	b4 2a 70 00 	add r14,r1,r10
  862390:	56 e9 00 18 	bgu r23,r9,8623f0 <unlzma+0xcc8>
  862394:	56 39 00 12 	bgu r17,r25,8623dc <unlzma+0xcb4>
  862398:	2b 63 ff a4 	lw r3,(fp+-92)
  86239c:	5b 67 ff 94 	sw (fp+-108),r7
  8623a0:	5b 69 ff 98 	sw (fp+-104),r9
  8623a4:	ba 80 08 00 	mv r1,r20
  8623a8:	78 02 00 01 	mvhi r2,0x1
  8623ac:	d8 60 00 00 	call r3
  8623b0:	b8 20 90 00 	mv r18,r1
  8623b4:	2b 67 ff 94 	lw r7,(fp+-108)
  8623b8:	2b 69 ff 98 	lw r9,(fp+-104)
  8623bc:	48 20 00 06 	bg r1,r0,8623d4 <unlzma+0xcac>
  8623c0:	2b 61 ff d0 	lw r1,(fp+-48)
  8623c4:	2b 62 ff ac 	lw r2,(fp+-84)
  8623c8:	d8 40 00 00 	call r2
  8623cc:	2b 69 ff 98 	lw r9,(fp+-104)
  8623d0:	2b 67 ff 94 	lw r7,(fp+-108)
  8623d4:	b6 92 88 00 	add r17,r20,r18
  8623d8:	ba 80 c8 00 	mv r25,r20
  8623dc:	43 2c 00 00 	lbu r12,(r25+0)
  8623e0:	3f 05 00 08 	sli r5,r24,8
  8623e4:	3e f7 00 08 	sli r23,r23,8
  8623e8:	b9 85 c0 00 	or r24,r12,r5
  8623ec:	37 39 00 01 	addi r25,r25,1
  8623f0:	2d c5 00 00 	lhu r5,(r14+0)
  8623f4:	02 ea 00 0b 	srui r10,r23,11
  8623f8:	89 45 78 00 	mul r15,r10,r5
  8623fc:	53 0f 01 8d 	bgeu r24,r15,862a30 <unlzma+0x1308>
  862400:	34 03 08 00 	mvi r3,2048
  862404:	c8 65 40 00 	sub r8,r3,r5
  862408:	15 08 00 05 	sri r8,r8,5
  86240c:	2b 61 ff 9c 	lw r1,(fp+-100)
  862410:	b4 a8 40 00 	add r8,r5,r8
  862414:	0d c8 00 00 	sh (r14+0),r8
  862418:	34 02 00 06 	mvi r2,6
  86241c:	48 22 01 80 	bg r1,r2,862a1c <unlzma+0x12f4>
  862420:	34 03 00 07 	mvi r3,7
  862424:	5b 63 ff f0 	sw (fp+-16),r3
  862428:	5b 60 ff 9c 	sw (fp+-100),r0
  86242c:	2b 63 ff e0 	lw r3,(fp+-32)
  862430:	2b 62 ff e4 	lw r2,(fp+-28)
  862434:	2b 61 ff c8 	lw r1,(fp+-56)
  862438:	5b 63 ff ec 	sw (fp+-20),r3
  86243c:	2b 63 ff cc 	lw r3,(fp+-52)
  862440:	34 2e 06 64 	addi r14,r1,1636
  862444:	5b 62 ff e0 	sw (fp+-32),r2
  862448:	5b 63 ff e4 	sw (fp+-28),r3
  86244c:	55 e9 00 18 	bgu r15,r9,8624ac <unlzma+0xd84>
  862450:	56 39 00 12 	bgu r17,r25,862498 <unlzma+0xd70>
  862454:	2b 63 ff a4 	lw r3,(fp+-92)
  862458:	5b 67 ff 94 	sw (fp+-108),r7
  86245c:	5b 69 ff 98 	sw (fp+-104),r9
  862460:	ba 80 08 00 	mv r1,r20
  862464:	78 02 00 01 	mvhi r2,0x1
  862468:	d8 60 00 00 	call r3
  86246c:	b8 20 90 00 	mv r18,r1
  862470:	2b 67 ff 94 	lw r7,(fp+-108)
  862474:	2b 69 ff 98 	lw r9,(fp+-104)
  862478:	48 20 00 06 	bg r1,r0,862490 <unlzma+0xd68>
  86247c:	2b 61 ff d0 	lw r1,(fp+-48)
  862480:	2b 62 ff ac 	lw r2,(fp+-84)
  862484:	d8 40 00 00 	call r2
  862488:	2b 69 ff 98 	lw r9,(fp+-104)
  86248c:	2b 67 ff 94 	lw r7,(fp+-108)
  862490:	b6 92 88 00 	add r17,r20,r18
  862494:	ba 80 c8 00 	mv r25,r20
  862498:	43 2c 00 00 	lbu r12,(r25+0)
  86249c:	3f 05 00 08 	sli r5,r24,8
  8624a0:	3d ef 00 08 	sli r15,r15,8
  8624a4:	b9 85 c0 00 	or r24,r12,r5
  8624a8:	37 39 00 01 	addi r25,r25,1
  8624ac:	2d c5 00 00 	lhu r5,(r14+0)
  8624b0:	01 e8 00 0b 	srui r8,r15,11
  8624b4:	89 05 b8 00 	mul r23,r8,r5
  8624b8:	53 17 02 12 	bgeu r24,r23,862d00 <unlzma+0x15d8>
  8624bc:	34 03 08 00 	mvi r3,2048
  8624c0:	c8 65 40 00 	sub r8,r3,r5
  8624c4:	15 08 00 05 	sri r8,r8,5
  8624c8:	3e cb 00 04 	sli r11,r22,4
  8624cc:	b4 a8 50 00 	add r10,r5,r8
  8624d0:	35 68 00 04 	addi r8,r11,4
  8624d4:	0d ca 00 00 	sh (r14+0),r10
  8624d8:	34 0f ff f8 	mvi r15,-8
  8624dc:	b5 c8 70 00 	add r14,r14,r8
  8624e0:	34 0d 00 03 	mvi r13,3
  8624e4:	2b 75 ff 9c 	lw r21,(fp+-100)
  8624e8:	2b 70 ff a4 	lw r16,(fp+-92)
  8624ec:	34 0b 00 01 	mvi r11,1
  8624f0:	45 a0 00 2e 	be r13,r0,8625a8 <unlzma+0xe80>
  8624f4:	3d 6b 00 01 	sli r11,r11,1
  8624f8:	b5 cb 60 00 	add r12,r14,r11
  8624fc:	56 e9 00 17 	bgu r23,r9,862558 <unlzma+0xe30>
  862500:	56 39 00 11 	bgu r17,r25,862544 <unlzma+0xe1c>
  862504:	5b 67 ff 94 	sw (fp+-108),r7
  862508:	5b 69 ff 98 	sw (fp+-104),r9
  86250c:	ba 80 08 00 	mv r1,r20
  862510:	78 02 00 01 	mvhi r2,0x1
  862514:	da 00 00 00 	call r16
  862518:	b8 20 90 00 	mv r18,r1
  86251c:	2b 67 ff 94 	lw r7,(fp+-108)
  862520:	2b 69 ff 98 	lw r9,(fp+-104)
  862524:	48 20 00 06 	bg r1,r0,86253c <unlzma+0xe14>
  862528:	2b 61 ff d0 	lw r1,(fp+-48)
  86252c:	2b 62 ff ac 	lw r2,(fp+-84)
  862530:	d8 40 00 00 	call r2
  862534:	2b 69 ff 98 	lw r9,(fp+-104)
  862538:	2b 67 ff 94 	lw r7,(fp+-108)
  86253c:	b6 92 88 00 	add r17,r20,r18
  862540:	ba 80 c8 00 	mv r25,r20
  862544:	43 23 00 00 	lbu r3,(r25+0)
  862548:	3f 02 00 08 	sli r2,r24,8
  86254c:	3e f7 00 08 	sli r23,r23,8
  862550:	b8 62 c0 00 	or r24,r3,r2
  862554:	37 39 00 01 	addi r25,r25,1
  862558:	2d 83 00 00 	lhu r3,(r12+0)
  86255c:	02 e2 00 0b 	srui r2,r23,11
  862560:	88 43 28 00 	mul r5,r2,r3
  862564:	53 05 00 09 	bgeu r24,r5,862588 <unlzma+0xe60>
  862568:	34 01 08 00 	mvi r1,2048
  86256c:	c8 23 20 00 	sub r4,r1,r3
  862570:	14 84 00 05 	sri r4,r4,5
  862574:	b8 a0 b8 00 	mv r23,r5
  862578:	b4 64 18 00 	add r3,r3,r4
  86257c:	0d 83 00 00 	sh (r12+0),r3
  862580:	35 ad ff ff 	addi r13,r13,-1
  862584:	e3 ff ff db 	bi 8624f0 <unlzma+0xdc8>
  862588:	00 64 00 05 	srui r4,r3,5
  86258c:	ca e5 b8 00 	sub r23,r23,r5
  862590:	c8 64 18 00 	sub r3,r3,r4
  862594:	cb 05 c0 00 	sub r24,r24,r5
  862598:	0d 83 00 00 	sh (r12+0),r3
  86259c:	35 6b 00 01 	addi r11,r11,1
  8625a0:	35 ad ff ff 	addi r13,r13,-1
  8625a4:	e3 ff ff d3 	bi 8624f0 <unlzma+0xdc8>
  8625a8:	b5 6f 78 00 	add r15,r11,r15
  8625ac:	5b 75 ff 9c 	sw (fp+-100),r21
  8625b0:	5b 6f ff e8 	sw (fp+-24),r15
  8625b4:	34 02 00 03 	mvi r2,3
  8625b8:	4a a2 01 06 	bg r21,r2,8629d0 <unlzma+0x12a8>
  8625bc:	2b 68 ff e8 	lw r8,(fp+-24)
  8625c0:	34 03 00 03 	mvi r3,3
  8625c4:	4c 68 00 02 	bge r3,r8,8625cc <unlzma+0xea4>
  8625c8:	34 08 00 03 	mvi r8,3
  8625cc:	3d 08 00 07 	sli r8,r8,7
  8625d0:	2b 61 ff c8 	lw r1,(fp+-56)
  8625d4:	35 08 03 60 	addi r8,r8,864
  8625d8:	b4 28 b0 00 	add r22,r1,r8
  8625dc:	56 e9 00 07 	bgu r23,r9,8625f8 <unlzma+0xed0>
  8625e0:	53 31 02 c1 	bgeu r25,r17,8630e4 <unlzma+0x19bc>
  8625e4:	43 23 00 00 	lbu r3,(r25+0)
  8625e8:	3f 05 00 08 	sli r5,r24,8
  8625ec:	3e f7 00 08 	sli r23,r23,8
  8625f0:	b8 65 c0 00 	or r24,r3,r5
  8625f4:	37 39 00 01 	addi r25,r25,1
  8625f8:	2e c5 00 02 	lhu r5,(r22+2)
  8625fc:	02 e8 00 0b 	srui r8,r23,11
  862600:	89 05 40 00 	mul r8,r8,r5
  862604:	53 08 01 86 	bgeu r24,r8,862c1c <unlzma+0x14f4>
  862608:	34 03 08 00 	mvi r3,2048
  86260c:	c8 65 50 00 	sub r10,r3,r5
  862610:	15 4a 00 05 	sri r10,r10,5
  862614:	b9 00 b8 00 	mv r23,r8
  862618:	b4 aa 28 00 	add r5,r5,r10
  86261c:	0e c5 00 02 	sh (r22+2),r5
  862620:	34 0d 00 04 	mvi r13,4
  862624:	34 05 00 04 	mvi r5,4
  862628:	b6 c5 70 00 	add r14,r22,r5
  86262c:	56 e9 00 07 	bgu r23,r9,862648 <unlzma+0xf20>
  862630:	53 31 02 ba 	bgeu r25,r17,863118 <unlzma+0x19f0>
  862634:	43 23 00 00 	lbu r3,(r25+0)
  862638:	3f 05 00 08 	sli r5,r24,8
  86263c:	3e f7 00 08 	sli r23,r23,8
  862640:	b8 65 c0 00 	or r24,r3,r5
  862644:	37 39 00 01 	addi r25,r25,1
  862648:	2d cc 00 00 	lhu r12,(r14+0)
  86264c:	02 e8 00 0b 	srui r8,r23,11
  862650:	89 0c 40 00 	mul r8,r8,r12
  862654:	53 08 01 9d 	bgeu r24,r8,862cc8 <unlzma+0x15a0>
  862658:	34 03 08 00 	mvi r3,2048
  86265c:	c8 6c 50 00 	sub r10,r3,r12
  862660:	15 4a 00 05 	sri r10,r10,5
  862664:	b9 00 b8 00 	mv r23,r8
  862668:	b5 8a 28 00 	add r5,r12,r10
  86266c:	0d c5 00 00 	sh (r14+0),r5
  862670:	3d ad 00 01 	sli r13,r13,1
  862674:	b6 cd 70 00 	add r14,r22,r13
  862678:	56 e9 00 07 	bgu r23,r9,862694 <unlzma+0xf6c>
  86267c:	53 31 02 7a 	bgeu r25,r17,863064 <unlzma+0x193c>
  862680:	43 24 00 00 	lbu r4,(r25+0)
  862684:	3f 05 00 08 	sli r5,r24,8
  862688:	3e f7 00 08 	sli r23,r23,8
  86268c:	b8 85 c0 00 	or r24,r4,r5
  862690:	37 39 00 01 	addi r25,r25,1
  862694:	2d c5 00 00 	lhu r5,(r14+0)
  862698:	02 e8 00 0b 	srui r8,r23,11
  86269c:	89 05 40 00 	mul r8,r8,r5
  8626a0:	53 08 01 91 	bgeu r24,r8,862ce4 <unlzma+0x15bc>
  8626a4:	34 03 08 00 	mvi r3,2048
  8626a8:	c8 65 50 00 	sub r10,r3,r5
  8626ac:	15 4a 00 05 	sri r10,r10,5
  8626b0:	b9 a0 18 00 	mv r3,r13
  8626b4:	b4 aa 28 00 	add r5,r5,r10
  8626b8:	0d c5 00 00 	sh (r14+0),r5
  8626bc:	b9 00 b8 00 	mv r23,r8
  8626c0:	3c 6d 00 01 	sli r13,r3,1
  8626c4:	b6 cd 70 00 	add r14,r22,r13
  8626c8:	56 e9 00 07 	bgu r23,r9,8626e4 <unlzma+0xfbc>
  8626cc:	53 31 02 73 	bgeu r25,r17,863098 <unlzma+0x1970>
  8626d0:	43 24 00 00 	lbu r4,(r25+0)
  8626d4:	3f 05 00 08 	sli r5,r24,8
  8626d8:	3e f7 00 08 	sli r23,r23,8
  8626dc:	b8 85 c0 00 	or r24,r4,r5
  8626e0:	37 39 00 01 	addi r25,r25,1
  8626e4:	2d c5 00 00 	lhu r5,(r14+0)
  8626e8:	02 e8 00 0b 	srui r8,r23,11
  8626ec:	89 05 40 00 	mul r8,r8,r5
  8626f0:	53 08 01 6f 	bgeu r24,r8,862cac <unlzma+0x1584>
  8626f4:	34 03 08 00 	mvi r3,2048
  8626f8:	c8 65 50 00 	sub r10,r3,r5
  8626fc:	15 4a 00 05 	sri r10,r10,5
  862700:	b9 a0 18 00 	mv r3,r13
  862704:	b4 aa 28 00 	add r5,r5,r10
  862708:	0d c5 00 00 	sh (r14+0),r5
  86270c:	b9 00 b8 00 	mv r23,r8
  862710:	3c 6d 00 01 	sli r13,r3,1
  862714:	b6 cd 70 00 	add r14,r22,r13
  862718:	56 e9 00 07 	bgu r23,r9,862734 <unlzma+0x100c>
  86271c:	53 31 02 8c 	bgeu r25,r17,86314c <unlzma+0x1a24>
  862720:	43 24 00 00 	lbu r4,(r25+0)
  862724:	3f 05 00 08 	sli r5,r24,8
  862728:	3e f7 00 08 	sli r23,r23,8
  86272c:	b8 85 c0 00 	or r24,r4,r5
  862730:	37 39 00 01 	addi r25,r25,1
  862734:	2d c5 00 00 	lhu r5,(r14+0)
  862738:	02 e8 00 0b 	srui r8,r23,11
  86273c:	89 05 40 00 	mul r8,r8,r5
  862740:	53 08 01 54 	bgeu r24,r8,862c90 <unlzma+0x1568>
  862744:	34 03 08 00 	mvi r3,2048
  862748:	c8 65 50 00 	sub r10,r3,r5
  86274c:	15 4a 00 05 	sri r10,r10,5
  862750:	b9 a0 18 00 	mv r3,r13
  862754:	b4 aa 28 00 	add r5,r5,r10
  862758:	0d c5 00 00 	sh (r14+0),r5
  86275c:	b9 00 b8 00 	mv r23,r8
  862760:	3c 70 00 01 	sli r16,r3,1
  862764:	b6 d0 60 00 	add r12,r22,r16
  862768:	56 e9 00 07 	bgu r23,r9,862784 <unlzma+0x105c>
  86276c:	53 31 02 31 	bgeu r25,r17,863030 <unlzma+0x1908>
  862770:	43 24 00 00 	lbu r4,(r25+0)
  862774:	3f 05 00 08 	sli r5,r24,8
  862778:	3e f7 00 08 	sli r23,r23,8
  86277c:	b8 85 c0 00 	or r24,r4,r5
  862780:	37 39 00 01 	addi r25,r25,1
  862784:	2d 85 00 00 	lhu r5,(r12+0)
  862788:	02 e8 00 0b 	srui r8,r23,11
  86278c:	89 05 40 00 	mul r8,r8,r5
  862790:	53 08 01 39 	bgeu r24,r8,862c74 <unlzma+0x154c>
  862794:	34 03 08 00 	mvi r3,2048
  862798:	c8 65 50 00 	sub r10,r3,r5
  86279c:	15 4a 00 05 	sri r10,r10,5
  8627a0:	b9 00 b8 00 	mv r23,r8
  8627a4:	b4 aa 28 00 	add r5,r5,r10
  8627a8:	0d 85 00 00 	sh (r12+0),r5
  8627ac:	36 10 ff c0 	addi r16,r16,-64
  8627b0:	34 01 00 03 	mvi r1,3
  8627b4:	ba 00 28 00 	mv r5,r16
  8627b8:	4c 30 00 50 	bge r1,r16,8628f8 <unlzma+0x11d0>
  8627bc:	16 0c 00 01 	sri r12,r16,1
  8627c0:	22 08 00 01 	andi r8,r16,0x1
  8627c4:	34 02 00 0d 	mvi r2,13
  8627c8:	35 83 ff ff 	addi r3,r12,-1
  8627cc:	39 08 00 02 	ori r8,r8,0x2
  8627d0:	4a 02 01 e7 	bg r16,r2,862f6c <unlzma+0x1844>
  8627d4:	bd 03 80 00 	sl r16,r8,r3
  8627d8:	34 03 02 af 	mvi r3,687
  8627dc:	c8 65 28 00 	sub r5,r3,r5
  8627e0:	b4 b0 28 00 	add r5,r5,r16
  8627e4:	2b 61 ff c8 	lw r1,(fp+-56)
  8627e8:	3c a5 00 01 	sli r5,r5,1
  8627ec:	35 8e ff fe 	addi r14,r12,-2
  8627f0:	b4 25 a8 00 	add r21,r1,r5
  8627f4:	2b 6d ff a4 	lw r13,(fp+-92)
  8627f8:	34 0b 00 01 	mvi r11,1
  8627fc:	34 0f 00 01 	mvi r15,1
  862800:	3d 6b 00 01 	sli r11,r11,1
  862804:	b6 ab 60 00 	add r12,r21,r11
  862808:	56 e9 00 17 	bgu r23,r9,862864 <unlzma+0x113c>
  86280c:	56 39 00 11 	bgu r17,r25,862850 <unlzma+0x1128>
  862810:	5b 67 ff 94 	sw (fp+-108),r7
  862814:	5b 69 ff 98 	sw (fp+-104),r9
  862818:	ba 80 08 00 	mv r1,r20
  86281c:	78 02 00 01 	mvhi r2,0x1
  862820:	d9 a0 00 00 	call r13
  862824:	b8 20 90 00 	mv r18,r1
  862828:	2b 67 ff 94 	lw r7,(fp+-108)
  86282c:	2b 69 ff 98 	lw r9,(fp+-104)
  862830:	48 20 00 06 	bg r1,r0,862848 <unlzma+0x1120>
  862834:	2b 61 ff d0 	lw r1,(fp+-48)
  862838:	2b 62 ff ac 	lw r2,(fp+-84)
  86283c:	d8 40 00 00 	call r2
  862840:	2b 69 ff 98 	lw r9,(fp+-104)
  862844:	2b 67 ff 94 	lw r7,(fp+-108)
  862848:	b6 92 88 00 	add r17,r20,r18
  86284c:	ba 80 c8 00 	mv r25,r20
  862850:	43 23 00 00 	lbu r3,(r25+0)
  862854:	3f 02 00 08 	sli r2,r24,8
  862858:	3e f7 00 08 	sli r23,r23,8
  86285c:	b8 62 c0 00 	or r24,r3,r2
  862860:	37 39 00 01 	addi r25,r25,1
  862864:	2d 83 00 00 	lhu r3,(r12+0)
  862868:	02 e2 00 0b 	srui r2,r23,11
  86286c:	88 43 28 00 	mul r5,r2,r3
  862870:	53 05 00 0b 	bgeu r24,r5,86289c <unlzma+0x1174>
  862874:	34 01 08 00 	mvi r1,2048
  862878:	c8 23 20 00 	sub r4,r1,r3
  86287c:	14 84 00 05 	sri r4,r4,5
  862880:	b8 a0 b8 00 	mv r23,r5
  862884:	b4 64 18 00 	add r3,r3,r4
  862888:	0d 83 00 00 	sh (r12+0),r3
  86288c:	45 c0 00 1b 	be r14,r0,8628f8 <unlzma+0x11d0>
  862890:	3d ef 00 01 	sli r15,r15,1
  862894:	35 ce ff ff 	addi r14,r14,-1
  862898:	e3 ff ff da 	bi 862800 <unlzma+0x10d8>
  86289c:	00 64 00 05 	srui r4,r3,5
  8628a0:	ca e5 b8 00 	sub r23,r23,r5
  8628a4:	c8 64 18 00 	sub r3,r3,r4
  8628a8:	cb 05 c0 00 	sub r24,r24,r5
  8628ac:	0d 83 00 00 	sh (r12+0),r3
  8628b0:	35 6b 00 01 	addi r11,r11,1
  8628b4:	ba 0f 80 00 	or r16,r16,r15
  8628b8:	e3 ff ff f5 	bi 86288c <unlzma+0x1164>
  8628bc:	34 61 ff fa 	addi r1,r3,-6
  8628c0:	5b 61 ff 9c 	sw (fp+-100),r1
  8628c4:	e3 ff fe 42 	bi 8621cc <unlzma+0xaa4>
  8628c8:	44 aa 02 2e 	be r5,r10,863180 <unlzma+0x1a58>
  8628cc:	35 85 00 0a 	addi r5,r12,10
  8628d0:	00 a5 00 02 	srui r5,r5,2
  8628d4:	3c a5 00 02 	sli r5,r5,2
  8628d8:	cb 85 e0 00 	sub sp,sp,r5
  8628dc:	37 85 00 0b 	addi r5,sp,11
  8628e0:	00 a5 00 03 	srui r5,r5,3
  8628e4:	3c a5 00 03 	sli r5,r5,3
  8628e8:	5b 65 ff bc 	sw (fp+-68),r5
  8628ec:	e3 ff fd 13 	bi 861d38 <unlzma+0x610>
  8628f0:	34 01 ff ff 	mvi r1,-1
  8628f4:	e3 ff fc 7e 	bi 861aec <unlzma+0x3c4>
  8628f8:	36 10 00 01 	addi r16,r16,1
  8628fc:	5b 70 ff cc 	sw (fp+-52),r16
  862900:	46 00 fd 97 	be r16,r0,861f5c <unlzma+0x834>
  862904:	2b 6e ff f4 	lw r14,(fp+-12)
  862908:	2b 65 ff f8 	lw r5,(fp+-8)
  86290c:	3d ca 00 08 	sli r10,r14,8
  862910:	00 a8 00 18 	srui r8,r5,24
  862914:	b9 0a 40 00 	or r8,r8,r10
  862918:	56 08 fe 4b 	bgu r16,r8,862244 <unlzma+0xb1c>
  86291c:	2b 62 ff c0 	lw r2,(fp+-64)
  862920:	56 02 fe 49 	bgu r16,r2,862244 <unlzma+0xb1c>
  862924:	2b 63 ff f0 	lw r3,(fp+-16)
  862928:	5b 63 ff 9c 	sw (fp+-100),r3
  86292c:	b8 60 68 00 	mv r13,r3
  862930:	3d ce 00 08 	sli r14,r14,8
  862934:	00 a5 00 18 	srui r5,r5,24
  862938:	2b 61 ff e8 	lw r1,(fp+-24)
  86293c:	2b 62 ff cc 	lw r2,(fp+-52)
  862940:	2b 6c ff bc 	lw r12,(fp+-68)
  862944:	b8 ae 70 00 	or r14,r5,r14
  862948:	34 35 00 02 	addi r21,r1,2
  86294c:	c8 0e 78 00 	sub r15,r0,r14
  862950:	c8 4e 80 00 	sub r16,r2,r14
  862954:	2b 63 ff b4 	lw r3,(fp+-76)
  862958:	44 60 00 22 	be r3,r0,8629e0 <unlzma+0x12b8>
  86295c:	2b 61 ff cc 	lw r1,(fp+-52)
  862960:	ca 61 20 00 	sub r4,r19,r1
  862964:	55 c4 00 04 	bgu r14,r4,862974 <unlzma+0x124c>
  862968:	b4 8e 20 00 	add r4,r4,r14
  86296c:	b4 8e 08 00 	add r1,r4,r14
  862970:	50 8e 00 16 	bgeu r4,r14,8629c8 <unlzma+0x12a0>
  862974:	b5 84 20 00 	add r4,r12,r4
  862978:	40 8b 00 00 	lbu r11,(r4+0)
  86297c:	b5 93 18 00 	add r3,r12,r19
  862980:	36 73 00 01 	addi r19,r19,1
  862984:	30 6b 00 00 	sb (r3+0),r11
  862988:	46 6e 00 ad 	be r19,r14,862c3c <unlzma+0x1514>
  86298c:	36 b5 ff ff 	addi r21,r21,-1
  862990:	46 a0 02 9c 	be r21,r0,863400 <unlzma+0x1cd8>
  862994:	2b 64 ff fc 	lw r4,(fp+-4)
  862998:	2b 63 ff f8 	lw r3,(fp+-8)
  86299c:	43 68 00 00 	lbu r8,(fp+0)
  8629a0:	00 86 00 18 	srui r6,r4,24
  8629a4:	3c 63 00 08 	sli r3,r3,8
  8629a8:	3c 84 00 08 	sli r4,r4,8
  8629ac:	16 65 00 1f 	sri r5,r19,31
  8629b0:	b8 c3 18 00 	or r3,r6,r3
  8629b4:	b9 04 20 00 	or r4,r8,r4
  8629b8:	54 65 ff e7 	bgu r3,r5,862954 <unlzma+0x122c>
  8629bc:	5c 65 fe 22 	bne r3,r5,862244 <unlzma+0xb1c>
  8629c0:	54 93 ff e5 	bgu r4,r19,862954 <unlzma+0x122c>
  8629c4:	e3 ff fe 20 	bi 862244 <unlzma+0xb1c>
  8629c8:	b8 20 20 00 	mv r4,r1
  8629cc:	e3 ff ff e8 	bi 86296c <unlzma+0x1244>
  8629d0:	2b 6e ff f4 	lw r14,(fp+-12)
  8629d4:	2b 65 ff f8 	lw r5,(fp+-8)
  8629d8:	2b 6d ff 9c 	lw r13,(fp+-100)
  8629dc:	e3 ff ff d5 	bi 862930 <unlzma+0x1208>
  8629e0:	2b 65 ff cc 	lw r5,(fp+-52)
  8629e4:	51 c5 00 05 	bgeu r14,r5,8629f8 <unlzma+0x12d0>
  8629e8:	ba 00 28 00 	mv r5,r16
  8629ec:	b4 af 10 00 	add r2,r5,r15
  8629f0:	b4 4e 08 00 	add r1,r2,r14
  8629f4:	54 2e 00 08 	bgu r1,r14,862a14 <unlzma+0x12ec>
  8629f8:	ca 65 18 00 	sub r3,r19,r5
  8629fc:	b5 83 18 00 	add r3,r12,r3
  862a00:	40 6b 00 00 	lbu r11,(r3+0)
  862a04:	b5 93 10 00 	add r2,r12,r19
  862a08:	36 73 00 01 	addi r19,r19,1
  862a0c:	30 4b 00 00 	sb (r2+0),r11
  862a10:	e3 ff ff df 	bi 86298c <unlzma+0x1264>
  862a14:	b8 40 28 00 	mv r5,r2
  862a18:	e3 ff ff f5 	bi 8629ec <unlzma+0x12c4>
  862a1c:	34 01 00 0a 	mvi r1,10
  862a20:	34 02 00 03 	mvi r2,3
  862a24:	5b 61 ff f0 	sw (fp+-16),r1
  862a28:	5b 62 ff 9c 	sw (fp+-100),r2
  862a2c:	e3 ff fe 80 	bi 86242c <unlzma+0xd04>
  862a30:	2b 61 ff 9c 	lw r1,(fp+-100)
  862a34:	00 ad 00 05 	srui r13,r5,5
  862a38:	2b 62 ff c8 	lw r2,(fp+-56)
  862a3c:	34 2c 00 cc 	addi r12,r1,204
  862a40:	c8 ad 68 00 	sub r13,r5,r13
  862a44:	3d 8c 00 01 	sli r12,r12,1
  862a48:	ca ef b8 00 	sub r23,r23,r15
  862a4c:	0d cd 00 00 	sh (r14+0),r13
  862a50:	cb 0f c0 00 	sub r24,r24,r15
  862a54:	b4 4c 60 00 	add r12,r2,r12
  862a58:	56 e9 00 18 	bgu r23,r9,862ab8 <unlzma+0x1390>
  862a5c:	56 39 00 12 	bgu r17,r25,862aa4 <unlzma+0x137c>
  862a60:	2b 63 ff a4 	lw r3,(fp+-92)
  862a64:	5b 67 ff 94 	sw (fp+-108),r7
  862a68:	5b 69 ff 98 	sw (fp+-104),r9
  862a6c:	ba 80 08 00 	mv r1,r20
  862a70:	78 02 00 01 	mvhi r2,0x1
  862a74:	d8 60 00 00 	call r3
  862a78:	b8 20 90 00 	mv r18,r1
  862a7c:	2b 67 ff 94 	lw r7,(fp+-108)
  862a80:	2b 69 ff 98 	lw r9,(fp+-104)
  862a84:	48 20 00 06 	bg r1,r0,862a9c <unlzma+0x1374>
  862a88:	2b 61 ff d0 	lw r1,(fp+-48)
  862a8c:	2b 62 ff ac 	lw r2,(fp+-84)
  862a90:	d8 40 00 00 	call r2
  862a94:	2b 69 ff 98 	lw r9,(fp+-104)
  862a98:	2b 67 ff 94 	lw r7,(fp+-108)
  862a9c:	b6 92 88 00 	add r17,r20,r18
  862aa0:	ba 80 c8 00 	mv r25,r20
  862aa4:	43 23 00 00 	lbu r3,(r25+0)
  862aa8:	3f 05 00 08 	sli r5,r24,8
  862aac:	3e f7 00 08 	sli r23,r23,8
  862ab0:	b8 65 c0 00 	or r24,r3,r5
  862ab4:	37 39 00 01 	addi r25,r25,1
  862ab8:	2d 83 00 00 	lhu r3,(r12+0)
  862abc:	02 e5 00 0b 	srui r5,r23,11
  862ac0:	88 a3 78 00 	mul r15,r5,r3
  862ac4:	53 0f 00 f1 	bgeu r24,r15,862e88 <unlzma+0x1760>
  862ac8:	34 01 08 00 	mvi r1,2048
  862acc:	c8 23 28 00 	sub r5,r1,r3
  862ad0:	14 aa 00 05 	sri r10,r5,5
  862ad4:	36 a8 00 f0 	addi r8,r21,240
  862ad8:	2b 62 ff c8 	lw r2,(fp+-56)
  862adc:	b4 6a 50 00 	add r10,r3,r10
  862ae0:	3d 08 00 01 	sli r8,r8,1
  862ae4:	0d 8a 00 00 	sh (r12+0),r10
  862ae8:	b4 48 58 00 	add r11,r2,r8
  862aec:	55 e9 00 18 	bgu r15,r9,862b4c <unlzma+0x1424>
  862af0:	56 39 00 12 	bgu r17,r25,862b38 <unlzma+0x1410>
  862af4:	2b 63 ff a4 	lw r3,(fp+-92)
  862af8:	5b 67 ff 94 	sw (fp+-108),r7
  862afc:	5b 69 ff 98 	sw (fp+-104),r9
  862b00:	ba 80 08 00 	mv r1,r20
  862b04:	78 02 00 01 	mvhi r2,0x1
  862b08:	d8 60 00 00 	call r3
  862b0c:	b8 20 90 00 	mv r18,r1
  862b10:	2b 67 ff 94 	lw r7,(fp+-108)
  862b14:	2b 69 ff 98 	lw r9,(fp+-104)
  862b18:	48 20 00 06 	bg r1,r0,862b30 <unlzma+0x1408>
  862b1c:	2b 61 ff d0 	lw r1,(fp+-48)
  862b20:	2b 62 ff ac 	lw r2,(fp+-84)
  862b24:	d8 40 00 00 	call r2
  862b28:	2b 69 ff 98 	lw r9,(fp+-104)
  862b2c:	2b 67 ff 94 	lw r7,(fp+-108)
  862b30:	b6 92 88 00 	add r17,r20,r18
  862b34:	ba 80 c8 00 	mv r25,r20
  862b38:	43 23 00 00 	lbu r3,(r25+0)
  862b3c:	3f 18 00 08 	sli r24,r24,8
  862b40:	3d ef 00 08 	sli r15,r15,8
  862b44:	b8 78 c0 00 	or r24,r3,r24
  862b48:	37 39 00 01 	addi r25,r25,1
  862b4c:	2d 63 00 00 	lhu r3,(r11+0)
  862b50:	01 f7 00 0b 	srui r23,r15,11
  862b54:	8a e3 b8 00 	mul r23,r23,r3
  862b58:	53 17 01 5d 	bgeu r24,r23,8630cc <unlzma+0x19a4>
  862b5c:	2b 62 ff 9c 	lw r2,(fp+-100)
  862b60:	34 01 08 00 	mvi r1,2048
  862b64:	c8 23 28 00 	sub r5,r1,r3
  862b68:	68 46 00 06 	cmpgi r6,r2,6
  862b6c:	14 a5 00 05 	sri r5,r5,5
  862b70:	c8 06 30 00 	sub r6,r0,r6
  862b74:	b4 65 28 00 	add r5,r3,r5
  862b78:	20 c6 00 02 	andi r6,r6,0x2
  862b7c:	2b 61 ff b4 	lw r1,(fp+-76)
  862b80:	0d 65 00 00 	sh (r11+0),r5
  862b84:	34 c3 00 09 	addi r3,r6,9
  862b88:	5b 63 ff 9c 	sw (fp+-100),r3
  862b8c:	44 20 01 f0 	be r1,r0,86334c <unlzma+0x1c24>
  862b90:	2b 66 ff f4 	lw r6,(fp+-12)
  862b94:	43 62 ff f8 	lbu r2,(fp+-8)
  862b98:	2b 63 ff cc 	lw r3,(fp+-52)
  862b9c:	3c c6 00 08 	sli r6,r6,8
  862ba0:	ca 63 28 00 	sub r5,r19,r3
  862ba4:	b8 46 30 00 	or r6,r2,r6
  862ba8:	54 c5 00 06 	bgu r6,r5,862bc0 <unlzma+0x1498>
  862bac:	2b 62 ff 9c 	lw r2,(fp+-100)
  862bb0:	b4 a6 28 00 	add r5,r5,r6
  862bb4:	b4 a6 08 00 	add r1,r5,r6
  862bb8:	50 a6 00 17 	bgeu r5,r6,862c14 <unlzma+0x14ec>
  862bbc:	5b 62 ff 9c 	sw (fp+-100),r2
  862bc0:	2b 61 ff bc 	lw r1,(fp+-68)
  862bc4:	b4 25 28 00 	add r5,r1,r5
  862bc8:	40 ab 00 00 	lbu r11,(r5+0)
  862bcc:	b4 33 28 00 	add r5,r1,r19
  862bd0:	36 73 00 01 	addi r19,r19,1
  862bd4:	30 ab 00 00 	sb (r5+0),r11
  862bd8:	5c d3 fd 89 	bne r6,r19,8621fc <unlzma+0xad4>
  862bdc:	2b 61 ff bc 	lw r1,(fp+-68)
  862be0:	2b 63 ff b4 	lw r3,(fp+-76)
  862be4:	5b 67 ff 94 	sw (fp+-108),r7
  862be8:	5b 69 ff 98 	sw (fp+-104),r9
  862bec:	ba 60 10 00 	mv r2,r19
  862bf0:	d8 60 00 00 	call r3
  862bf4:	2b 67 ff 94 	lw r7,(fp+-108)
  862bf8:	2b 69 ff 98 	lw r9,(fp+-104)
  862bfc:	5e 61 fd 92 	bne r19,r1,862244 <unlzma+0xb1c>
  862c00:	2b 61 ff d4 	lw r1,(fp+-44)
  862c04:	b6 61 08 00 	add r1,r19,r1
  862c08:	5b 61 ff d4 	sw (fp+-44),r1
  862c0c:	34 13 00 00 	mvi r19,0
  862c10:	e3 ff fd 7b 	bi 8621fc <unlzma+0xad4>
  862c14:	b8 20 28 00 	mv r5,r1
  862c18:	e3 ff ff e7 	bi 862bb4 <unlzma+0x148c>
  862c1c:	00 aa 00 05 	srui r10,r5,5
  862c20:	ca e8 b8 00 	sub r23,r23,r8
  862c24:	c8 aa 28 00 	sub r5,r5,r10
  862c28:	0e c5 00 02 	sh (r22+2),r5
  862c2c:	cb 08 c0 00 	sub r24,r24,r8
  862c30:	34 0d 00 06 	mvi r13,6
  862c34:	34 05 00 06 	mvi r5,6
  862c38:	e3 ff fe 7c 	bi 862628 <unlzma+0xf00>
  862c3c:	2b 63 ff b4 	lw r3,(fp+-76)
  862c40:	5b 67 ff 94 	sw (fp+-108),r7
  862c44:	5b 69 ff 98 	sw (fp+-104),r9
  862c48:	b9 80 08 00 	mv r1,r12
  862c4c:	ba 60 10 00 	mv r2,r19
  862c50:	d8 60 00 00 	call r3
  862c54:	2b 67 ff 94 	lw r7,(fp+-108)
  862c58:	2b 69 ff 98 	lw r9,(fp+-104)
  862c5c:	5c 33 fd 7a 	bne r1,r19,862244 <unlzma+0xb1c>
  862c60:	2b 61 ff d4 	lw r1,(fp+-44)
  862c64:	b4 33 08 00 	add r1,r1,r19
  862c68:	5b 61 ff d4 	sw (fp+-44),r1
  862c6c:	34 13 00 00 	mvi r19,0
  862c70:	e3 ff ff 47 	bi 86298c <unlzma+0x1264>
  862c74:	00 aa 00 05 	srui r10,r5,5
  862c78:	ca e8 b8 00 	sub r23,r23,r8
  862c7c:	c8 aa 28 00 	sub r5,r5,r10
  862c80:	cb 08 c0 00 	sub r24,r24,r8
  862c84:	0d 85 00 00 	sh (r12+0),r5
  862c88:	36 10 00 01 	addi r16,r16,1
  862c8c:	e3 ff fe c8 	bi 8627ac <unlzma+0x1084>
  862c90:	00 aa 00 05 	srui r10,r5,5
  862c94:	ca e8 b8 00 	sub r23,r23,r8
  862c98:	c8 aa 28 00 	sub r5,r5,r10
  862c9c:	cb 08 c0 00 	sub r24,r24,r8
  862ca0:	0d c5 00 00 	sh (r14+0),r5
  862ca4:	35 a3 00 01 	addi r3,r13,1
  862ca8:	e3 ff fe ae 	bi 862760 <unlzma+0x1038>
  862cac:	00 aa 00 05 	srui r10,r5,5
  862cb0:	ca e8 b8 00 	sub r23,r23,r8
  862cb4:	c8 aa 28 00 	sub r5,r5,r10
  862cb8:	cb 08 c0 00 	sub r24,r24,r8
  862cbc:	0d c5 00 00 	sh (r14+0),r5
  862cc0:	35 a3 00 01 	addi r3,r13,1
  862cc4:	e3 ff fe 93 	bi 862710 <unlzma+0xfe8>
  862cc8:	01 8a 00 05 	srui r10,r12,5
  862ccc:	ca e8 b8 00 	sub r23,r23,r8
  862cd0:	c9 8a 60 00 	sub r12,r12,r10
  862cd4:	cb 08 c0 00 	sub r24,r24,r8
  862cd8:	0d cc 00 00 	sh (r14+0),r12
  862cdc:	35 ad 00 01 	addi r13,r13,1
  862ce0:	e3 ff fe 64 	bi 862670 <unlzma+0xf48>
  862ce4:	00 aa 00 05 	srui r10,r5,5
  862ce8:	ca e8 b8 00 	sub r23,r23,r8
  862cec:	c8 aa 28 00 	sub r5,r5,r10
  862cf0:	cb 08 c0 00 	sub r24,r24,r8
  862cf4:	0d c5 00 00 	sh (r14+0),r5
  862cf8:	35 a3 00 01 	addi r3,r13,1
  862cfc:	e3 ff fe 71 	bi 8626c0 <unlzma+0xf98>
  862d00:	00 ac 00 05 	srui r12,r5,5
  862d04:	c9 f7 78 00 	sub r15,r15,r23
  862d08:	c8 ac 28 00 	sub r5,r5,r12
  862d0c:	0d c5 00 00 	sh (r14+0),r5
  862d10:	cb 17 c0 00 	sub r24,r24,r23
  862d14:	35 cb 00 02 	addi r11,r14,2
  862d18:	55 e9 00 18 	bgu r15,r9,862d78 <unlzma+0x1650>
  862d1c:	56 39 00 12 	bgu r17,r25,862d64 <unlzma+0x163c>
  862d20:	2b 63 ff a4 	lw r3,(fp+-92)
  862d24:	5b 67 ff 94 	sw (fp+-108),r7
  862d28:	5b 69 ff 98 	sw (fp+-104),r9
  862d2c:	ba 80 08 00 	mv r1,r20
  862d30:	78 02 00 01 	mvhi r2,0x1
  862d34:	d8 60 00 00 	call r3
  862d38:	b8 20 90 00 	mv r18,r1
  862d3c:	2b 67 ff 94 	lw r7,(fp+-108)
  862d40:	2b 69 ff 98 	lw r9,(fp+-104)
  862d44:	48 20 00 06 	bg r1,r0,862d5c <unlzma+0x1634>
  862d48:	2b 61 ff d0 	lw r1,(fp+-48)
  862d4c:	2b 62 ff ac 	lw r2,(fp+-84)
  862d50:	d8 40 00 00 	call r2
  862d54:	2b 69 ff 98 	lw r9,(fp+-104)
  862d58:	2b 67 ff 94 	lw r7,(fp+-108)
  862d5c:	b6 92 88 00 	add r17,r20,r18
  862d60:	ba 80 c8 00 	mv r25,r20
  862d64:	43 23 00 00 	lbu r3,(r25+0)
  862d68:	3f 05 00 08 	sli r5,r24,8
  862d6c:	3d ef 00 08 	sli r15,r15,8
  862d70:	b8 65 c0 00 	or r24,r3,r5
  862d74:	37 39 00 01 	addi r25,r25,1
  862d78:	2d 63 00 00 	lhu r3,(r11+0)
  862d7c:	01 f7 00 0b 	srui r23,r15,11
  862d80:	8a e3 b8 00 	mul r23,r23,r3
  862d84:	53 17 00 38 	bgeu r24,r23,862e64 <unlzma+0x173c>
  862d88:	34 01 08 00 	mvi r1,2048
  862d8c:	c8 23 50 00 	sub r10,r1,r3
  862d90:	15 4a 00 05 	sri r10,r10,5
  862d94:	3e c5 00 04 	sli r5,r22,4
  862d98:	b4 6a 50 00 	add r10,r3,r10
  862d9c:	34 a5 01 04 	addi r5,r5,260
  862da0:	0d 6a 00 00 	sh (r11+0),r10
  862da4:	b5 c5 70 00 	add r14,r14,r5
  862da8:	34 0f 00 00 	mvi r15,0
  862dac:	34 0d 00 03 	mvi r13,3
  862db0:	e3 ff fd cd 	bi 8624e4 <unlzma+0xdbc>
  862db4:	2b 6f ff 9c 	lw r15,(fp+-100)
  862db8:	2b 6e ff a4 	lw r14,(fp+-92)
  862dbc:	e3 ff fd 39 	bi 8622a0 <unlzma+0xb78>
  862dc0:	2b 61 ff a0 	lw r1,(fp+-96)
  862dc4:	2b 63 ff a4 	lw r3,(fp+-92)
  862dc8:	5b 66 ff 98 	sw (fp+-104),r6
  862dcc:	78 02 00 01 	mvhi r2,0x1
  862dd0:	d8 60 00 00 	call r3
  862dd4:	b8 20 20 00 	mv r4,r1
  862dd8:	2b 66 ff 98 	lw r6,(fp+-104)
  862ddc:	48 20 00 09 	bg r1,r0,862e00 <unlzma+0x16d8>
  862de0:	78 0b 00 86 	mvhi r11,0x86
  862de4:	2b 62 ff ac 	lw r2,(fp+-84)
  862de8:	b9 60 08 00 	mv r1,r11
  862dec:	5b 64 ff 94 	sw (fp+-108),r4
  862df0:	38 21 e1 54 	ori r1,r1,0xe154
  862df4:	d8 40 00 00 	call r2
  862df8:	2b 66 ff 98 	lw r6,(fp+-104)
  862dfc:	2b 64 ff 94 	lw r4,(fp+-108)
  862e00:	2b 61 ff a0 	lw r1,(fp+-96)
  862e04:	b4 24 18 00 	add r3,r1,r4
  862e08:	b8 20 58 00 	mv r11,r1
  862e0c:	b8 20 a0 00 	mv r20,r1
  862e10:	e3 ff fc 2e 	bi 861ec8 <unlzma+0x7a0>
  862e14:	2b 68 ff f4 	lw r8,(fp+-12)
  862e18:	43 62 ff f8 	lbu r2,(fp+-8)
  862e1c:	2b 65 ff cc 	lw r5,(fp+-52)
  862e20:	3d 08 00 08 	sli r8,r8,8
  862e24:	b8 48 40 00 	or r8,r2,r8
  862e28:	51 05 00 08 	bgeu r8,r5,862e48 <unlzma+0x1720>
  862e2c:	c8 08 58 00 	sub r11,r0,r8
  862e30:	c8 a8 28 00 	sub r5,r5,r8
  862e34:	b8 20 18 00 	mv r3,r1
  862e38:	b4 ab 10 00 	add r2,r5,r11
  862e3c:	b4 48 08 00 	add r1,r2,r8
  862e40:	54 28 00 07 	bgu r1,r8,862e5c <unlzma+0x1734>
  862e44:	5b 63 ff 9c 	sw (fp+-100),r3
  862e48:	2b 63 ff bc 	lw r3,(fp+-68)
  862e4c:	ca 65 28 00 	sub r5,r19,r5
  862e50:	b4 65 28 00 	add r5,r3,r5
  862e54:	40 a8 00 00 	lbu r8,(r5+0)
  862e58:	e3 ff fc a8 	bi 8620f8 <unlzma+0x9d0>
  862e5c:	b8 40 28 00 	mv r5,r2
  862e60:	e3 ff ff f6 	bi 862e38 <unlzma+0x1710>
  862e64:	00 65 00 05 	srui r5,r3,5
  862e68:	cb 17 c0 00 	sub r24,r24,r23
  862e6c:	c8 65 28 00 	sub r5,r3,r5
  862e70:	c9 f7 b8 00 	sub r23,r15,r23
  862e74:	0d 65 00 00 	sh (r11+0),r5
  862e78:	35 ce 02 04 	addi r14,r14,516
  862e7c:	34 0f ff 10 	mvi r15,-240
  862e80:	34 0d 00 08 	mvi r13,8
  862e84:	e3 ff fd 98 	bi 8624e4 <unlzma+0xdbc>
  862e88:	2b 62 ff 9c 	lw r2,(fp+-100)
  862e8c:	00 6a 00 05 	srui r10,r3,5
  862e90:	ca ef 70 00 	sub r14,r23,r15
  862e94:	c8 6a 18 00 	sub r3,r3,r10
  862e98:	34 48 00 d8 	addi r8,r2,216
  862e9c:	0d 83 00 00 	sh (r12+0),r3
  862ea0:	2b 63 ff c8 	lw r3,(fp+-56)
  862ea4:	3d 08 00 01 	sli r8,r8,1
  862ea8:	cb 0f c0 00 	sub r24,r24,r15
  862eac:	b4 68 58 00 	add r11,r3,r8
  862eb0:	55 c9 00 18 	bgu r14,r9,862f10 <unlzma+0x17e8>
  862eb4:	56 39 00 12 	bgu r17,r25,862efc <unlzma+0x17d4>
  862eb8:	2b 63 ff a4 	lw r3,(fp+-92)
  862ebc:	5b 67 ff 94 	sw (fp+-108),r7
  862ec0:	5b 69 ff 98 	sw (fp+-104),r9
  862ec4:	ba 80 08 00 	mv r1,r20
  862ec8:	78 02 00 01 	mvhi r2,0x1
  862ecc:	d8 60 00 00 	call r3
  862ed0:	b8 20 90 00 	mv r18,r1
  862ed4:	2b 67 ff 94 	lw r7,(fp+-108)
  862ed8:	2b 69 ff 98 	lw r9,(fp+-104)
  862edc:	48 20 00 06 	bg r1,r0,862ef4 <unlzma+0x17cc>
  862ee0:	2b 61 ff d0 	lw r1,(fp+-48)
  862ee4:	2b 62 ff ac 	lw r2,(fp+-84)
  862ee8:	d8 40 00 00 	call r2
  862eec:	2b 69 ff 98 	lw r9,(fp+-104)
  862ef0:	2b 67 ff 94 	lw r7,(fp+-108)
  862ef4:	b6 92 88 00 	add r17,r20,r18
  862ef8:	ba 80 c8 00 	mv r25,r20
  862efc:	43 23 00 00 	lbu r3,(r25+0)
  862f00:	3f 05 00 08 	sli r5,r24,8
  862f04:	3d ce 00 08 	sli r14,r14,8
  862f08:	b8 65 c0 00 	or r24,r3,r5
  862f0c:	37 39 00 01 	addi r25,r25,1
  862f10:	2d 63 00 00 	lhu r3,(r11+0)
  862f14:	01 c8 00 0b 	srui r8,r14,11
  862f18:	89 03 78 00 	mul r15,r8,r3
  862f1c:	53 0f 00 9d 	bgeu r24,r15,863190 <unlzma+0x1a68>
  862f20:	34 01 08 00 	mvi r1,2048
  862f24:	c8 23 60 00 	sub r12,r1,r3
  862f28:	15 8c 00 05 	sri r12,r12,5
  862f2c:	2b 62 ff e4 	lw r2,(fp+-28)
  862f30:	b4 6c 28 00 	add r5,r3,r12
  862f34:	0d 65 00 00 	sh (r11+0),r5
  862f38:	2b 61 ff cc 	lw r1,(fp+-52)
  862f3c:	5b 62 ff cc 	sw (fp+-52),r2
  862f40:	5b 61 ff e4 	sw (fp+-28),r1
  862f44:	2b 62 ff 9c 	lw r2,(fp+-100)
  862f48:	34 03 00 06 	mvi r3,6
  862f4c:	48 43 00 32 	bg r2,r3,863014 <unlzma+0x18ec>
  862f50:	34 01 00 0f 	mvi r1,15
  862f54:	34 02 00 08 	mvi r2,8
  862f58:	5b 61 ff f0 	sw (fp+-16),r1
  862f5c:	5b 62 ff 9c 	sw (fp+-100),r2
  862f60:	2b 62 ff c8 	lw r2,(fp+-56)
  862f64:	34 4e 0a 68 	addi r14,r2,2664
  862f68:	e3 ff fd 39 	bi 86244c <unlzma+0xd24>
  862f6c:	35 85 ff fb 	addi r5,r12,-5
  862f70:	44 a0 00 24 	be r5,r0,863000 <unlzma+0x18d8>
  862f74:	35 8c ff fa 	addi r12,r12,-6
  862f78:	e0 00 00 02 	bi 862f80 <unlzma+0x1858>
  862f7c:	35 8c ff ff 	addi r12,r12,-1
  862f80:	3d 0b 00 01 	sli r11,r8,1
  862f84:	56 e9 00 18 	bgu r23,r9,862fe4 <unlzma+0x18bc>
  862f88:	3e f7 00 08 	sli r23,r23,8
  862f8c:	56 39 00 12 	bgu r17,r25,862fd4 <unlzma+0x18ac>
  862f90:	2b 63 ff a4 	lw r3,(fp+-92)
  862f94:	5b 67 ff 94 	sw (fp+-108),r7
  862f98:	5b 69 ff 98 	sw (fp+-104),r9
  862f9c:	78 02 00 01 	mvhi r2,0x1
  862fa0:	ba 80 08 00 	mv r1,r20
  862fa4:	d8 60 00 00 	call r3
  862fa8:	b8 20 90 00 	mv r18,r1
  862fac:	2b 67 ff 94 	lw r7,(fp+-108)
  862fb0:	2b 69 ff 98 	lw r9,(fp+-104)
  862fb4:	48 20 00 06 	bg r1,r0,862fcc <unlzma+0x18a4>
  862fb8:	2b 61 ff d0 	lw r1,(fp+-48)
  862fbc:	2b 62 ff ac 	lw r2,(fp+-84)
  862fc0:	d8 40 00 00 	call r2
  862fc4:	2b 69 ff 98 	lw r9,(fp+-104)
  862fc8:	2b 67 ff 94 	lw r7,(fp+-108)
  862fcc:	ba 80 c8 00 	mv r25,r20
  862fd0:	b6 92 88 00 	add r17,r20,r18
  862fd4:	43 24 00 00 	lbu r4,(r25+0)
  862fd8:	3f 03 00 08 	sli r3,r24,8
  862fdc:	37 39 00 01 	addi r25,r25,1
  862fe0:	b8 83 c0 00 	or r24,r4,r3
  862fe4:	02 f7 00 01 	srui r23,r23,1
  862fe8:	34 02 00 00 	mvi r2,0
  862fec:	56 f8 00 03 	bgu r23,r24,862ff8 <unlzma+0x18d0>
  862ff0:	34 02 00 01 	mvi r2,1
  862ff4:	cb 17 c0 00 	sub r24,r24,r23
  862ff8:	b8 4b 40 00 	or r8,r2,r11
  862ffc:	5d 80 ff e0 	bne r12,r0,862f7c <unlzma+0x1854>
  863000:	2b 63 ff c8 	lw r3,(fp+-56)
  863004:	3d 10 00 04 	sli r16,r8,4
  863008:	34 0e 00 03 	mvi r14,3
  86300c:	34 75 06 44 	addi r21,r3,1604
  863010:	e3 ff fd f9 	bi 8627f4 <unlzma+0x10cc>
  863014:	34 03 00 12 	mvi r3,18
  863018:	34 01 00 0b 	mvi r1,11
  86301c:	5b 63 ff f0 	sw (fp+-16),r3
  863020:	5b 61 ff 9c 	sw (fp+-100),r1
  863024:	e3 ff ff cf 	bi 862f60 <unlzma+0x1838>
  863028:	5b 75 ff 9c 	sw (fp+-100),r21
  86302c:	e3 ff fc 98 	bi 86228c <unlzma+0xb64>
  863030:	2b 63 ff a4 	lw r3,(fp+-92)
  863034:	5b 67 ff 94 	sw (fp+-108),r7
  863038:	5b 69 ff 98 	sw (fp+-104),r9
  86303c:	ba 80 08 00 	mv r1,r20
  863040:	78 02 00 01 	mvhi r2,0x1
  863044:	d8 60 00 00 	call r3
  863048:	b8 20 90 00 	mv r18,r1
  86304c:	2b 67 ff 94 	lw r7,(fp+-108)
  863050:	2b 69 ff 98 	lw r9,(fp+-104)
  863054:	4c 01 00 b6 	bge r0,r1,86332c <unlzma+0x1c04>
  863058:	b6 92 88 00 	add r17,r20,r18
  86305c:	ba 80 c8 00 	mv r25,r20
  863060:	e3 ff fd c4 	bi 862770 <unlzma+0x1048>
  863064:	2b 63 ff a4 	lw r3,(fp+-92)
  863068:	5b 67 ff 94 	sw (fp+-108),r7
  86306c:	5b 69 ff 98 	sw (fp+-104),r9
  863070:	ba 80 08 00 	mv r1,r20
  863074:	78 02 00 01 	mvhi r2,0x1
  863078:	d8 60 00 00 	call r3
  86307c:	b8 20 90 00 	mv r18,r1
  863080:	2b 67 ff 94 	lw r7,(fp+-108)
  863084:	2b 69 ff 98 	lw r9,(fp+-104)
  863088:	4c 01 00 ce 	bge r0,r1,8633c0 <unlzma+0x1c98>
  86308c:	b6 92 88 00 	add r17,r20,r18
  863090:	ba 80 c8 00 	mv r25,r20
  863094:	e3 ff fd 7b 	bi 862680 <unlzma+0xf58>
  863098:	2b 63 ff a4 	lw r3,(fp+-92)
  86309c:	5b 67 ff 94 	sw (fp+-108),r7
  8630a0:	5b 69 ff 98 	sw (fp+-104),r9
  8630a4:	ba 80 08 00 	mv r1,r20
  8630a8:	78 02 00 01 	mvhi r2,0x1
  8630ac:	d8 60 00 00 	call r3
  8630b0:	b8 20 90 00 	mv r18,r1
  8630b4:	2b 67 ff 94 	lw r7,(fp+-108)
  8630b8:	2b 69 ff 98 	lw r9,(fp+-104)
  8630bc:	4c 01 00 b9 	bge r0,r1,8633a0 <unlzma+0x1c78>
  8630c0:	b6 92 88 00 	add r17,r20,r18
  8630c4:	ba 80 c8 00 	mv r25,r20
  8630c8:	e3 ff fd 82 	bi 8626d0 <unlzma+0xfa8>
  8630cc:	00 6c 00 05 	srui r12,r3,5
  8630d0:	c9 f7 78 00 	sub r15,r15,r23
  8630d4:	c8 6c 60 00 	sub r12,r3,r12
  8630d8:	cb 17 c0 00 	sub r24,r24,r23
  8630dc:	0d 6c 00 00 	sh (r11+0),r12
  8630e0:	e3 ff ff 99 	bi 862f44 <unlzma+0x181c>
  8630e4:	2b 63 ff a4 	lw r3,(fp+-92)
  8630e8:	5b 67 ff 94 	sw (fp+-108),r7
  8630ec:	5b 69 ff 98 	sw (fp+-104),r9
  8630f0:	ba 80 08 00 	mv r1,r20
  8630f4:	78 02 00 01 	mvhi r2,0x1
  8630f8:	d8 60 00 00 	call r3
  8630fc:	b8 20 90 00 	mv r18,r1
  863100:	2b 67 ff 94 	lw r7,(fp+-108)
  863104:	2b 69 ff 98 	lw r9,(fp+-104)
  863108:	4c 01 00 81 	bge r0,r1,86330c <unlzma+0x1be4>
  86310c:	b6 92 88 00 	add r17,r20,r18
  863110:	ba 80 c8 00 	mv r25,r20
  863114:	e3 ff fd 34 	bi 8625e4 <unlzma+0xebc>
  863118:	2b 63 ff a4 	lw r3,(fp+-92)
  86311c:	5b 67 ff 94 	sw (fp+-108),r7
  863120:	5b 69 ff 98 	sw (fp+-104),r9
  863124:	ba 80 08 00 	mv r1,r20
  863128:	78 02 00 01 	mvhi r2,0x1
  86312c:	d8 60 00 00 	call r3
  863130:	b8 20 90 00 	mv r18,r1
  863134:	2b 67 ff 94 	lw r7,(fp+-108)
  863138:	2b 69 ff 98 	lw r9,(fp+-104)
  86313c:	4c 01 00 a9 	bge r0,r1,8633e0 <unlzma+0x1cb8>
  863140:	b6 92 88 00 	add r17,r20,r18
  863144:	ba 80 c8 00 	mv r25,r20
  863148:	e3 ff fd 3b 	bi 862634 <unlzma+0xf0c>
  86314c:	2b 63 ff a4 	lw r3,(fp+-92)
  863150:	5b 67 ff 94 	sw (fp+-108),r7
  863154:	5b 69 ff 98 	sw (fp+-104),r9
  863158:	ba 80 08 00 	mv r1,r20
  86315c:	78 02 00 01 	mvhi r2,0x1
  863160:	d8 60 00 00 	call r3
  863164:	b8 20 90 00 	mv r18,r1
  863168:	2b 67 ff 94 	lw r7,(fp+-108)
  86316c:	2b 69 ff 98 	lw r9,(fp+-104)
  863170:	4c 01 00 5f 	bge r0,r1,8632ec <unlzma+0x1bc4>
  863174:	b6 92 88 00 	add r17,r20,r18
  863178:	ba 80 c8 00 	mv r25,r20
  86317c:	e3 ff fd 69 	bi 862720 <unlzma+0xff8>
  863180:	55 96 00 02 	bgu r12,r22,863188 <unlzma+0x1a60>
  863184:	e3 ff fd d2 	bi 8628cc <unlzma+0x11a4>
  863188:	ba c0 60 00 	mv r12,r22
  86318c:	e3 ff fd d0 	bi 8628cc <unlzma+0x11a4>
  863190:	2b 62 ff 9c 	lw r2,(fp+-100)
  863194:	00 6d 00 05 	srui r13,r3,5
  863198:	c9 cf 70 00 	sub r14,r14,r15
  86319c:	c8 6d 18 00 	sub r3,r3,r13
  8631a0:	0d 63 00 00 	sh (r11+0),r3
  8631a4:	34 4c 00 e4 	addi r12,r2,228
  8631a8:	2b 63 ff c8 	lw r3,(fp+-56)
  8631ac:	3d 8c 00 01 	sli r12,r12,1
  8631b0:	cb 0f c0 00 	sub r24,r24,r15
  8631b4:	b4 6c 58 00 	add r11,r3,r12
  8631b8:	55 c9 00 18 	bgu r14,r9,863218 <unlzma+0x1af0>
  8631bc:	56 39 00 12 	bgu r17,r25,863204 <unlzma+0x1adc>
  8631c0:	2b 63 ff a4 	lw r3,(fp+-92)
  8631c4:	5b 67 ff 94 	sw (fp+-108),r7
  8631c8:	5b 69 ff 98 	sw (fp+-104),r9
  8631cc:	ba 80 08 00 	mv r1,r20
  8631d0:	78 02 00 01 	mvhi r2,0x1
  8631d4:	d8 60 00 00 	call r3
  8631d8:	b8 20 90 00 	mv r18,r1
  8631dc:	2b 67 ff 94 	lw r7,(fp+-108)
  8631e0:	2b 69 ff 98 	lw r9,(fp+-104)
  8631e4:	48 20 00 06 	bg r1,r0,8631fc <unlzma+0x1ad4>
  8631e8:	2b 61 ff d0 	lw r1,(fp+-48)
  8631ec:	2b 62 ff ac 	lw r2,(fp+-84)
  8631f0:	d8 40 00 00 	call r2
  8631f4:	2b 69 ff 98 	lw r9,(fp+-104)
  8631f8:	2b 67 ff 94 	lw r7,(fp+-108)
  8631fc:	b6 92 88 00 	add r17,r20,r18
  863200:	ba 80 c8 00 	mv r25,r20
  863204:	43 23 00 00 	lbu r3,(r25+0)
  863208:	3f 05 00 08 	sli r5,r24,8
  86320c:	3d ce 00 08 	sli r14,r14,8
  863210:	b8 65 c0 00 	or r24,r3,r5
  863214:	37 39 00 01 	addi r25,r25,1
  863218:	2d 6a 00 00 	lhu r10,(r11+0)
  86321c:	01 c8 00 0b 	srui r8,r14,11
  863220:	89 0a 78 00 	mul r15,r8,r10
  863224:	53 0f 00 7b 	bgeu r24,r15,863410 <unlzma+0x1ce8>
  863228:	34 03 08 00 	mvi r3,2048
  86322c:	c8 6a 28 00 	sub r5,r3,r10
  863230:	14 a5 00 05 	sri r5,r5,5
  863234:	b5 45 28 00 	add r5,r10,r5
  863238:	0d 65 00 00 	sh (r11+0),r5
  86323c:	2b 63 ff e4 	lw r3,(fp+-28)
  863240:	2b 62 ff e0 	lw r2,(fp+-32)
  863244:	5b 63 ff e0 	sw (fp+-32),r3
  863248:	e3 ff ff 3c 	bi 862f38 <unlzma+0x1810>
  86324c:	78 0b 00 86 	mvhi r11,0x86
  863250:	2b 62 ff ac 	lw r2,(fp+-84)
  863254:	b9 60 08 00 	mv r1,r11
  863258:	5b 64 ff 94 	sw (fp+-108),r4
  86325c:	5b 66 ff 98 	sw (fp+-104),r6
  863260:	38 21 e1 54 	ori r1,r1,0xe154
  863264:	d8 40 00 00 	call r2
  863268:	2b 64 ff 94 	lw r4,(fp+-108)
  86326c:	2b 66 ff 98 	lw r6,(fp+-104)
  863270:	e3 ff fb 0d 	bi 861ea4 <unlzma+0x77c>
  863274:	78 0b 00 86 	mvhi r11,0x86
  863278:	2b 62 ff ac 	lw r2,(fp+-84)
  86327c:	b9 60 08 00 	mv r1,r11
  863280:	5b 64 ff 94 	sw (fp+-108),r4
  863284:	5b 66 ff 98 	sw (fp+-104),r6
  863288:	38 21 e1 54 	ori r1,r1,0xe154
  86328c:	d8 40 00 00 	call r2
  863290:	2b 64 ff 94 	lw r4,(fp+-108)
  863294:	2b 66 ff 98 	lw r6,(fp+-104)
  863298:	e3 ff fa e3 	bi 861e24 <unlzma+0x6fc>
  86329c:	78 0b 00 86 	mvhi r11,0x86
  8632a0:	2b 62 ff ac 	lw r2,(fp+-84)
  8632a4:	b9 60 08 00 	mv r1,r11
  8632a8:	5b 64 ff 94 	sw (fp+-108),r4
  8632ac:	5b 66 ff 98 	sw (fp+-104),r6
  8632b0:	38 21 e1 54 	ori r1,r1,0xe154
  8632b4:	d8 40 00 00 	call r2
  8632b8:	2b 64 ff 94 	lw r4,(fp+-108)
  8632bc:	2b 66 ff 98 	lw r6,(fp+-104)
  8632c0:	e3 ff fa e9 	bi 861e64 <unlzma+0x73c>
  8632c4:	78 0b 00 86 	mvhi r11,0x86
  8632c8:	2b 62 ff ac 	lw r2,(fp+-84)
  8632cc:	b9 60 08 00 	mv r1,r11
  8632d0:	5b 64 ff 94 	sw (fp+-108),r4
  8632d4:	5b 66 ff 98 	sw (fp+-104),r6
  8632d8:	38 21 e1 54 	ori r1,r1,0xe154
  8632dc:	d8 40 00 00 	call r2
  8632e0:	2b 64 ff 94 	lw r4,(fp+-108)
  8632e4:	2b 66 ff 98 	lw r6,(fp+-104)
  8632e8:	e3 ff fa c1 	bi 861dec <unlzma+0x6c4>
  8632ec:	2b 61 ff d0 	lw r1,(fp+-48)
  8632f0:	2b 62 ff ac 	lw r2,(fp+-84)
  8632f4:	5b 67 ff 94 	sw (fp+-108),r7
  8632f8:	5b 69 ff 98 	sw (fp+-104),r9
  8632fc:	d8 40 00 00 	call r2
  863300:	2b 67 ff 94 	lw r7,(fp+-108)
  863304:	2b 69 ff 98 	lw r9,(fp+-104)
  863308:	e3 ff ff 9b 	bi 863174 <unlzma+0x1a4c>
  86330c:	2b 61 ff d0 	lw r1,(fp+-48)
  863310:	2b 62 ff ac 	lw r2,(fp+-84)
  863314:	5b 67 ff 94 	sw (fp+-108),r7
  863318:	5b 69 ff 98 	sw (fp+-104),r9
  86331c:	d8 40 00 00 	call r2
  863320:	2b 67 ff 94 	lw r7,(fp+-108)
  863324:	2b 69 ff 98 	lw r9,(fp+-104)
  863328:	e3 ff ff 79 	bi 86310c <unlzma+0x19e4>
  86332c:	2b 61 ff d0 	lw r1,(fp+-48)
  863330:	2b 62 ff ac 	lw r2,(fp+-84)
  863334:	5b 67 ff 94 	sw (fp+-108),r7
  863338:	5b 69 ff 98 	sw (fp+-104),r9
  86333c:	d8 40 00 00 	call r2
  863340:	2b 67 ff 94 	lw r7,(fp+-108)
  863344:	2b 69 ff 98 	lw r9,(fp+-104)
  863348:	e3 ff ff 44 	bi 863058 <unlzma+0x1930>
  86334c:	2b 66 ff f4 	lw r6,(fp+-12)
  863350:	43 63 ff f8 	lbu r3,(fp+-8)
  863354:	2b 65 ff cc 	lw r5,(fp+-52)
  863358:	3c c6 00 08 	sli r6,r6,8
  86335c:	b8 66 18 00 	or r3,r3,r6
  863360:	2b 66 ff 9c 	lw r6,(fp+-100)
  863364:	c8 03 10 00 	sub r2,r0,r3
  863368:	b4 a2 20 00 	add r4,r5,r2
  86336c:	b4 83 08 00 	add r1,r4,r3
  863370:	54 23 00 0a 	bgu r1,r3,863398 <unlzma+0x1c70>
  863374:	2b 62 ff bc 	lw r2,(fp+-68)
  863378:	ca 65 28 00 	sub r5,r19,r5
  86337c:	5b 66 ff 9c 	sw (fp+-100),r6
  863380:	b4 45 28 00 	add r5,r2,r5
  863384:	40 ab 00 00 	lbu r11,(r5+0)
  863388:	b4 53 28 00 	add r5,r2,r19
  86338c:	36 73 00 01 	addi r19,r19,1
  863390:	30 ab 00 00 	sb (r5+0),r11
  863394:	e3 ff fb 9a 	bi 8621fc <unlzma+0xad4>
  863398:	b8 80 28 00 	mv r5,r4
  86339c:	e3 ff ff f3 	bi 863368 <unlzma+0x1c40>
  8633a0:	2b 61 ff d0 	lw r1,(fp+-48)
  8633a4:	2b 62 ff ac 	lw r2,(fp+-84)
  8633a8:	5b 67 ff 94 	sw (fp+-108),r7
  8633ac:	5b 69 ff 98 	sw (fp+-104),r9
  8633b0:	d8 40 00 00 	call r2
  8633b4:	2b 67 ff 94 	lw r7,(fp+-108)
  8633b8:	2b 69 ff 98 	lw r9,(fp+-104)
  8633bc:	e3 ff ff 41 	bi 8630c0 <unlzma+0x1998>
  8633c0:	2b 61 ff d0 	lw r1,(fp+-48)
  8633c4:	2b 62 ff ac 	lw r2,(fp+-84)
  8633c8:	5b 67 ff 94 	sw (fp+-108),r7
  8633cc:	5b 69 ff 98 	sw (fp+-104),r9
  8633d0:	d8 40 00 00 	call r2
  8633d4:	2b 67 ff 94 	lw r7,(fp+-108)
  8633d8:	2b 69 ff 98 	lw r9,(fp+-104)
  8633dc:	e3 ff ff 2c 	bi 86308c <unlzma+0x1964>
  8633e0:	2b 61 ff d0 	lw r1,(fp+-48)
  8633e4:	2b 62 ff ac 	lw r2,(fp+-84)
  8633e8:	5b 67 ff 94 	sw (fp+-108),r7
  8633ec:	5b 69 ff 98 	sw (fp+-104),r9
  8633f0:	d8 40 00 00 	call r2
  8633f4:	2b 67 ff 94 	lw r7,(fp+-108)
  8633f8:	2b 69 ff 98 	lw r9,(fp+-104)
  8633fc:	e3 ff ff 51 	bi 863140 <unlzma+0x1a18>
  863400:	2b 62 ff cc 	lw r2,(fp+-52)
  863404:	5b 6d ff 9c 	sw (fp+-100),r13
  863408:	5c 55 fb 7d 	bne r2,r21,8621fc <unlzma+0xad4>
  86340c:	e3 ff fa d4 	bi 861f5c <unlzma+0x834>
  863410:	2b 61 ff ec 	lw r1,(fp+-20)
  863414:	01 4c 00 05 	srui r12,r10,5
  863418:	2b 62 ff e0 	lw r2,(fp+-32)
  86341c:	c9 4c 50 00 	sub r10,r10,r12
  863420:	5b 61 ff e0 	sw (fp+-32),r1
  863424:	0d 6a 00 00 	sh (r11+0),r10
  863428:	cb 0f c0 00 	sub r24,r24,r15
  86342c:	5b 62 ff ec 	sw (fp+-20),r2
  863430:	c9 cf 78 00 	sub r15,r14,r15
  863434:	e3 ff ff 82 	bi 86323c <unlzma+0x1b14>
  863438:	78 09 00 86 	mvhi r9,0x86
  86343c:	2b 62 ff ac 	lw r2,(fp+-84)
  863440:	b9 20 08 00 	mv r1,r9
  863444:	5b 64 ff 94 	sw (fp+-108),r4
  863448:	5b 65 ff 98 	sw (fp+-104),r5
  86344c:	38 21 e1 54 	ori r1,r1,0xe154
  863450:	d8 40 00 00 	call r2
  863454:	2b 64 ff 94 	lw r4,(fp+-108)
  863458:	2b 65 ff 98 	lw r5,(fp+-104)
  86345c:	e3 ff f9 52 	bi 8619a4 <unlzma+0x27c>
  863460:	78 09 00 86 	mvhi r9,0x86
  863464:	2b 62 ff ac 	lw r2,(fp+-84)
  863468:	b9 20 08 00 	mv r1,r9
  86346c:	5b 64 ff 94 	sw (fp+-108),r4
  863470:	5b 65 ff 98 	sw (fp+-104),r5
  863474:	38 21 e1 54 	ori r1,r1,0xe154
  863478:	d8 40 00 00 	call r2
  86347c:	2b 64 ff 94 	lw r4,(fp+-108)
  863480:	2b 65 ff 98 	lw r5,(fp+-104)
  863484:	e3 ff f9 57 	bi 8619e0 <unlzma+0x2b8>
  863488:	78 09 00 86 	mvhi r9,0x86
  86348c:	2b 62 ff ac 	lw r2,(fp+-84)
  863490:	b9 20 08 00 	mv r1,r9
  863494:	5b 64 ff 94 	sw (fp+-108),r4
  863498:	5b 65 ff 98 	sw (fp+-104),r5
  86349c:	38 21 e1 54 	ori r1,r1,0xe154
  8634a0:	d8 40 00 00 	call r2
  8634a4:	2b 64 ff 94 	lw r4,(fp+-108)
  8634a8:	2b 65 ff 98 	lw r5,(fp+-104)
  8634ac:	e3 ff f9 5c 	bi 861a1c <unlzma+0x2f4>
  8634b0:	78 09 00 86 	mvhi r9,0x86
  8634b4:	2b 62 ff ac 	lw r2,(fp+-84)
  8634b8:	b9 20 08 00 	mv r1,r9
  8634bc:	5b 64 ff 94 	sw (fp+-108),r4
  8634c0:	5b 65 ff 98 	sw (fp+-104),r5
  8634c4:	38 21 e1 54 	ori r1,r1,0xe154
  8634c8:	d8 40 00 00 	call r2
  8634cc:	2b 64 ff 94 	lw r4,(fp+-108)
  8634d0:	2b 65 ff 98 	lw r5,(fp+-104)
  8634d4:	e3 ff f9 61 	bi 861a58 <unlzma+0x330>
  8634d8:	78 09 00 86 	mvhi r9,0x86
  8634dc:	2b 62 ff ac 	lw r2,(fp+-84)
  8634e0:	b9 20 08 00 	mv r1,r9
  8634e4:	5b 64 ff 94 	sw (fp+-108),r4
  8634e8:	5b 65 ff 98 	sw (fp+-104),r5
  8634ec:	38 21 e1 54 	ori r1,r1,0xe154
  8634f0:	d8 40 00 00 	call r2
  8634f4:	2b 64 ff 94 	lw r4,(fp+-108)
  8634f8:	2b 65 ff 98 	lw r5,(fp+-104)
  8634fc:	e3 ff f8 ee 	bi 8618b4 <unlzma+0x18c>
  863500:	78 09 00 86 	mvhi r9,0x86
  863504:	2b 62 ff ac 	lw r2,(fp+-84)
  863508:	b9 20 08 00 	mv r1,r9
  86350c:	5b 64 ff 94 	sw (fp+-108),r4
  863510:	5b 65 ff 98 	sw (fp+-104),r5
  863514:	38 21 e1 54 	ori r1,r1,0xe154
  863518:	d8 40 00 00 	call r2
  86351c:	2b 64 ff 94 	lw r4,(fp+-108)
  863520:	2b 65 ff 98 	lw r5,(fp+-104)
  863524:	e3 ff f8 f3 	bi 8618f0 <unlzma+0x1c8>
  863528:	78 09 00 86 	mvhi r9,0x86
  86352c:	2b 62 ff ac 	lw r2,(fp+-84)
  863530:	b9 20 08 00 	mv r1,r9
  863534:	5b 64 ff 94 	sw (fp+-108),r4
  863538:	5b 65 ff 98 	sw (fp+-104),r5
  86353c:	38 21 e1 54 	ori r1,r1,0xe154
  863540:	d8 40 00 00 	call r2
  863544:	2b 64 ff 94 	lw r4,(fp+-108)
  863548:	2b 65 ff 98 	lw r5,(fp+-104)
  86354c:	e3 ff f8 f8 	bi 86192c <unlzma+0x204>
  863550:	78 09 00 86 	mvhi r9,0x86
  863554:	2b 62 ff ac 	lw r2,(fp+-84)
  863558:	b9 20 08 00 	mv r1,r9
  86355c:	5b 64 ff 94 	sw (fp+-108),r4
  863560:	5b 65 ff 98 	sw (fp+-104),r5
  863564:	38 21 e1 54 	ori r1,r1,0xe154
  863568:	d8 40 00 00 	call r2
  86356c:	2b 64 ff 94 	lw r4,(fp+-108)
  863570:	2b 65 ff 98 	lw r5,(fp+-104)
  863574:	e3 ff f8 fd 	bi 861968 <unlzma+0x240>
  863578:	78 09 00 86 	mvhi r9,0x86
  86357c:	2b 62 ff ac 	lw r2,(fp+-84)
  863580:	b9 20 08 00 	mv r1,r9
  863584:	5b 64 ff 94 	sw (fp+-108),r4
  863588:	5b 65 ff 98 	sw (fp+-104),r5
  86358c:	38 21 e1 54 	ori r1,r1,0xe154
  863590:	d8 40 00 00 	call r2
  863594:	2b 64 ff 94 	lw r4,(fp+-108)
  863598:	2b 65 ff 98 	lw r5,(fp+-104)
  86359c:	e3 ff f8 a8 	bi 86183c <unlzma+0x114>
  8635a0:	78 09 00 86 	mvhi r9,0x86
  8635a4:	2b 62 ff ac 	lw r2,(fp+-84)
  8635a8:	b9 20 08 00 	mv r1,r9
  8635ac:	5b 64 ff 94 	sw (fp+-108),r4
  8635b0:	5b 65 ff 98 	sw (fp+-104),r5
  8635b4:	38 21 e1 54 	ori r1,r1,0xe154
  8635b8:	d8 40 00 00 	call r2
  8635bc:	2b 64 ff 94 	lw r4,(fp+-108)
  8635c0:	2b 65 ff 98 	lw r5,(fp+-104)
  8635c4:	e3 ff f8 ad 	bi 861878 <unlzma+0x150>
  8635c8:	78 09 00 86 	mvhi r9,0x86
  8635cc:	2b 62 ff ac 	lw r2,(fp+-84)
  8635d0:	b9 20 08 00 	mv r1,r9
  8635d4:	5b 64 ff 94 	sw (fp+-108),r4
  8635d8:	5b 65 ff 98 	sw (fp+-104),r5
  8635dc:	38 21 e1 54 	ori r1,r1,0xe154
  8635e0:	d8 40 00 00 	call r2
  8635e4:	2b 64 ff 94 	lw r4,(fp+-108)
  8635e8:	2b 65 ff 98 	lw r5,(fp+-104)
  8635ec:	e3 ff f8 84 	bi 8617fc <unlzma+0xd4>
  8635f0:	78 09 00 86 	mvhi r9,0x86
  8635f4:	2b 62 ff ac 	lw r2,(fp+-84)
  8635f8:	b9 20 08 00 	mv r1,r9
  8635fc:	5b 64 ff 94 	sw (fp+-108),r4
  863600:	5b 65 ff 98 	sw (fp+-104),r5
  863604:	38 21 e1 54 	ori r1,r1,0xe154
  863608:	d8 40 00 00 	call r2
  86360c:	2b 64 ff 94 	lw r4,(fp+-108)
  863610:	2b 65 ff 98 	lw r5,(fp+-104)
  863614:	e3 ff f8 6c 	bi 8617c4 <unlzma+0x9c>

00863618 <lzma_error>:
  863618:	37 9c ff fc 	addi sp,sp,-4
  86361c:	5b 9d 00 04 	sw (sp+4),ra
  863620:	b8 20 10 00 	mv r2,r1
  863624:	78 01 00 86 	mvhi r1,0x86
  863628:	38 21 e1 94 	ori r1,r1,0xe194
  86362c:	f8 00 07 c4 	calli 86553c <printf>
  863630:	2b 9d 00 04 	lw ra,(sp+4)
  863634:	37 9c 00 04 	addi sp,sp,4
  863638:	c3 a0 00 00 	ret

0086363c <boot>:
  86363c:	37 9c ff e8 	addi sp,sp,-24
  863640:	5b 8b 00 08 	sw (sp+8),r11
  863644:	5b 9d 00 04 	sw (sp+4),ra
  863648:	b8 20 58 00 	mv r11,r1
  86364c:	5b 82 00 18 	sw (sp+24),r2
  863650:	5b 83 00 14 	sw (sp+20),r3
  863654:	5b 84 00 10 	sw (sp+16),r4
  863658:	5b 85 00 0c 	sw (sp+12),r5
  86365c:	f8 00 1e 1c 	calli 86aecc <vga_blank>
  863660:	34 01 00 01 	mvi r1,1
  863664:	f8 00 0c 7f 	calli 866860 <uart_force_sync>
  863668:	34 01 00 00 	mvi r1,0
  86366c:	d0 21 00 00 	wcsr IM,r1
  863670:	d0 01 00 00 	wcsr IE,r1
  863674:	2b 82 00 18 	lw r2,(sp+24)
  863678:	2b 83 00 14 	lw r3,(sp+20)
  86367c:	2b 84 00 10 	lw r4,(sp+16)
  863680:	2b 85 00 0c 	lw r5,(sp+12)
  863684:	b9 60 08 00 	mv r1,r11
  863688:	f8 00 02 62 	calli 864010 <boot_helper>
  86368c:	e0 00 00 00 	bi 86368c <boot+0x50>

00863690 <tryload>:
  863690:	37 9c ff f0 	addi sp,sp,-16
  863694:	5b 8b 00 0c 	sw (sp+12),r11
  863698:	5b 8c 00 08 	sw (sp+8),r12
  86369c:	5b 9d 00 04 	sw (sp+4),ra
  8636a0:	78 03 01 00 	mvhi r3,0x100
  8636a4:	37 84 00 10 	addi r4,sp,16
  8636a8:	b8 20 60 00 	mv r12,r1
  8636ac:	f8 00 0a 1b 	calli 865f18 <fatfs_load>
  8636b0:	34 0b ff ff 	mvi r11,-1
  8636b4:	4c 01 00 0d 	bge r0,r1,8636e8 <tryload+0x58>
  8636b8:	2b 82 00 10 	lw r2,(sp+16)
  8636bc:	4c 22 00 05 	bge r1,r2,8636d0 <tryload+0x40>
  8636c0:	78 01 00 86 	mvhi r1,0x86
  8636c4:	38 21 e1 a4 	ori r1,r1,0xe1a4
  8636c8:	f8 00 07 9d 	calli 86553c <printf>
  8636cc:	e0 00 00 07 	bi 8636e8 <tryload+0x58>
  8636d0:	78 04 00 86 	mvhi r4,0x86
  8636d4:	b8 80 08 00 	mv r1,r4
  8636d8:	38 21 e1 ec 	ori r1,r1,0xe1ec
  8636dc:	b9 80 18 00 	mv r3,r12
  8636e0:	f8 00 07 97 	calli 86553c <printf>
  8636e4:	2b 8b 00 10 	lw r11,(sp+16)
  8636e8:	b9 60 08 00 	mv r1,r11
  8636ec:	2b 9d 00 04 	lw ra,(sp+4)
  8636f0:	2b 8b 00 0c 	lw r11,(sp+12)
  8636f4:	2b 8c 00 08 	lw r12,(sp+8)
  8636f8:	37 9c 00 10 	addi sp,sp,16
  8636fc:	c3 a0 00 00 	ret

00863700 <tftp_get_v.clone.0>:
  863700:	37 9c ff f4 	addi sp,sp,-12
  863704:	5b 8b 00 0c 	sw (sp+12),r11
  863708:	5b 8c 00 08 	sw (sp+8),r12
  86370c:	5b 9d 00 04 	sw (sp+4),ra
  863710:	78 03 00 86 	mvhi r3,0x86
  863714:	38 63 e5 88 	ori r3,r3,0xe588
  863718:	b8 20 60 00 	mv r12,r1
  86371c:	28 61 00 00 	lw r1,(r3+0)
  863720:	b8 40 18 00 	mv r3,r2
  863724:	b9 80 10 00 	mv r2,r12
  863728:	f8 00 28 00 	calli 86d728 <tftp_get>
  86372c:	b8 20 58 00 	mv r11,r1
  863730:	4c 01 00 0c 	bge r0,r1,863760 <tftp_get_v.clone.0+0x60>
  863734:	78 01 00 86 	mvhi r1,0x86
  863738:	b9 60 10 00 	mv r2,r11
  86373c:	b9 80 18 00 	mv r3,r12
  863740:	38 21 e2 10 	ori r1,r1,0xe210
  863744:	f8 00 07 7e 	calli 86553c <printf>
  863748:	b9 60 08 00 	mv r1,r11
  86374c:	2b 9d 00 04 	lw ra,(sp+4)
  863750:	2b 8b 00 0c 	lw r11,(sp+12)
  863754:	2b 8c 00 08 	lw r12,(sp+8)
  863758:	37 9c 00 0c 	addi sp,sp,12
  86375c:	c3 a0 00 00 	ret
  863760:	78 01 00 86 	mvhi r1,0x86
  863764:	b9 80 10 00 	mv r2,r12
  863768:	38 21 e2 48 	ori r1,r1,0xe248
  86376c:	f8 00 07 74 	calli 86553c <printf>
  863770:	b9 60 08 00 	mv r1,r11
  863774:	2b 9d 00 04 	lw ra,(sp+4)
  863778:	2b 8b 00 0c 	lw r11,(sp+12)
  86377c:	2b 8c 00 08 	lw r12,(sp+8)
  863780:	37 9c 00 0c 	addi sp,sp,12
  863784:	c3 a0 00 00 	ret

00863788 <serialboot>:
  863788:	37 9c fe d0 	addi sp,sp,-304
  86378c:	5b 8b 00 2c 	sw (sp+44),r11
  863790:	5b 8c 00 28 	sw (sp+40),r12
  863794:	5b 8d 00 24 	sw (sp+36),r13
  863798:	5b 8e 00 20 	sw (sp+32),r14
  86379c:	5b 8f 00 1c 	sw (sp+28),r15
  8637a0:	5b 90 00 18 	sw (sp+24),r16
  8637a4:	5b 91 00 14 	sw (sp+20),r17
  8637a8:	5b 92 00 10 	sw (sp+16),r18
  8637ac:	5b 93 00 0c 	sw (sp+12),r19
  8637b0:	5b 94 00 08 	sw (sp+8),r20
  8637b4:	5b 9d 00 04 	sw (sp+4),ra
  8637b8:	78 01 00 86 	mvhi r1,0x86
  8637bc:	38 21 e2 6c 	ori r1,r1,0xe26c
  8637c0:	f8 00 07 5f 	calli 86553c <printf>
  8637c4:	34 01 00 00 	mvi r1,0
  8637c8:	78 0b 00 86 	mvhi r11,0x86
  8637cc:	f8 00 19 a2 	calli 869e54 <usb_debug_enable>
  8637d0:	39 6b e5 f4 	ori r11,r11,0xe5f4
  8637d4:	34 01 00 73 	mvi r1,115
  8637d8:	35 6b 00 01 	addi r11,r11,1
  8637dc:	f8 00 0b e2 	calli 866764 <uart_write>
  8637e0:	11 61 00 00 	lb r1,(r11+0)
  8637e4:	5c 20 ff fd 	bne r1,r0,8637d8 <serialboot+0x50>
  8637e8:	78 01 00 86 	mvhi r1,0x86
  8637ec:	38 21 e5 8c 	ori r1,r1,0xe58c
  8637f0:	78 0d 00 86 	mvhi r13,0x86
  8637f4:	28 2b 00 00 	lw r11,(r1+0)
  8637f8:	34 0c 00 00 	mvi r12,0
  8637fc:	39 ad e5 cc 	ori r13,r13,0xe5cc
  863800:	34 0e 00 0e 	mvi r14,14
  863804:	e0 00 00 03 	bi 863810 <serialboot+0x88>
  863808:	35 6b ff ff 	addi r11,r11,-1
  86380c:	45 60 00 0a 	be r11,r0,863834 <serialboot+0xac>
  863810:	f8 00 0b b2 	calli 8666d8 <uart_read_nonblock>
  863814:	44 20 ff fd 	be r1,r0,863808 <serialboot+0x80>
  863818:	f8 00 0b 9f 	calli 866694 <uart_read>
  86381c:	b5 ac 10 00 	add r2,r13,r12
  863820:	10 42 00 00 	lb r2,(r2+0)
  863824:	44 41 00 16 	be r2,r1,86387c <serialboot+0xf4>
  863828:	35 6b ff ff 	addi r11,r11,-1
  86382c:	64 2c 00 7a 	cmpei r12,r1,122
  863830:	5d 60 ff f8 	bne r11,r0,863810 <serialboot+0x88>
  863834:	78 01 00 86 	mvhi r1,0x86
  863838:	38 21 e2 c0 	ori r1,r1,0xe2c0
  86383c:	f8 00 07 40 	calli 86553c <printf>
  863840:	34 01 00 01 	mvi r1,1
  863844:	f8 00 19 84 	calli 869e54 <usb_debug_enable>
  863848:	2b 9d 00 04 	lw ra,(sp+4)
  86384c:	2b 8b 00 2c 	lw r11,(sp+44)
  863850:	2b 8c 00 28 	lw r12,(sp+40)
  863854:	2b 8d 00 24 	lw r13,(sp+36)
  863858:	2b 8e 00 20 	lw r14,(sp+32)
  86385c:	2b 8f 00 1c 	lw r15,(sp+28)
  863860:	2b 90 00 18 	lw r16,(sp+24)
  863864:	2b 91 00 14 	lw r17,(sp+20)
  863868:	2b 92 00 10 	lw r18,(sp+16)
  86386c:	2b 93 00 0c 	lw r19,(sp+12)
  863870:	2b 94 00 08 	lw r20,(sp+8)
  863874:	37 9c 01 30 	addi sp,sp,304
  863878:	c3 a0 00 00 	ret
  86387c:	35 8c 00 01 	addi r12,r12,1
  863880:	5d 8e ff e2 	bne r12,r14,863808 <serialboot+0x80>
  863884:	78 0e 00 86 	mvhi r14,0x86
  863888:	34 10 00 00 	mvi r16,0
  86388c:	34 11 00 00 	mvi r17,0
  863890:	34 12 00 00 	mvi r18,0
  863894:	34 0d 00 00 	mvi r13,0
  863898:	37 93 00 33 	addi r19,sp,51
  86389c:	37 8c 00 30 	addi r12,sp,48
  8638a0:	34 0f 00 05 	mvi r15,5
  8638a4:	39 ce e5 dc 	ori r14,r14,0xe5dc
  8638a8:	34 14 00 04 	mvi r20,4
  8638ac:	f8 00 0b 7a 	calli 866694 <uart_read>
  8638b0:	33 81 00 30 	sb (sp+48),r1
  8638b4:	f8 00 0b 78 	calli 866694 <uart_read>
  8638b8:	33 81 00 31 	sb (sp+49),r1
  8638bc:	f8 00 0b 76 	calli 866694 <uart_read>
  8638c0:	33 81 00 32 	sb (sp+50),r1
  8638c4:	f8 00 0b 74 	calli 866694 <uart_read>
  8638c8:	43 85 00 30 	lbu r5,(sp+48)
  8638cc:	33 81 00 33 	sb (sp+51),r1
  8638d0:	34 04 00 00 	mvi r4,0
  8638d4:	44 a0 00 08 	be r5,r0,8638f4 <serialboot+0x16c>
  8638d8:	34 0b 00 00 	mvi r11,0
  8638dc:	f8 00 0b 6e 	calli 866694 <uart_read>
  8638e0:	43 84 00 30 	lbu r4,(sp+48)
  8638e4:	b5 8b 28 00 	add r5,r12,r11
  8638e8:	30 a1 00 04 	sb (r5+4),r1
  8638ec:	35 6b 00 01 	addi r11,r11,1
  8638f0:	48 8b ff fb 	bg r4,r11,8638dc <serialboot+0x154>
  8638f4:	43 8b 00 31 	lbu r11,(sp+49)
  8638f8:	43 85 00 32 	lbu r5,(sp+50)
  8638fc:	ba 60 08 00 	mv r1,r19
  863900:	3d 6b 00 08 	sli r11,r11,8
  863904:	34 82 00 01 	addi r2,r4,1
  863908:	b9 65 58 00 	or r11,r11,r5
  86390c:	f8 00 06 19 	calli 865170 <crc16>
  863910:	45 61 00 06 	be r11,r1,863928 <serialboot+0x1a0>
  863914:	35 ad 00 01 	addi r13,r13,1
  863918:	45 af 00 0a 	be r13,r15,863940 <serialboot+0x1b8>
  86391c:	34 01 00 43 	mvi r1,67
  863920:	f8 00 0b 91 	calli 866764 <uart_write>
  863924:	e3 ff ff e2 	bi 8638ac <serialboot+0x124>
  863928:	43 81 00 33 	lbu r1,(sp+51)
  86392c:	54 2f 00 6e 	bgu r1,r15,863ae4 <serialboot+0x35c>
  863930:	3c 21 00 02 	sli r1,r1,2
  863934:	b5 c1 08 00 	add r1,r14,r1
  863938:	28 21 00 00 	lw r1,(r1+0)
  86393c:	c0 20 00 00 	b r1
  863940:	78 01 00 86 	mvhi r1,0x86
  863944:	38 21 e2 94 	ori r1,r1,0xe294
  863948:	f8 00 06 fd 	calli 86553c <printf>
  86394c:	34 01 00 01 	mvi r1,1
  863950:	f8 00 19 41 	calli 869e54 <usb_debug_enable>
  863954:	e3 ff ff bd 	bi 863848 <serialboot+0xc0>
  863958:	43 91 00 34 	lbu r17,(sp+52)
  86395c:	43 83 00 35 	lbu r3,(sp+53)
  863960:	43 82 00 36 	lbu r2,(sp+54)
  863964:	43 81 00 37 	lbu r1,(sp+55)
  863968:	3c 63 00 10 	sli r3,r3,16
  86396c:	3e 31 00 18 	sli r17,r17,24
  863970:	3c 42 00 08 	sli r2,r2,8
  863974:	ba 23 88 00 	or r17,r17,r3
  863978:	ba 21 88 00 	or r17,r17,r1
  86397c:	34 01 00 4b 	mvi r1,75
  863980:	ba 22 88 00 	or r17,r17,r2
  863984:	34 0d 00 00 	mvi r13,0
  863988:	f8 00 0b 77 	calli 866764 <uart_write>
  86398c:	e3 ff ff c8 	bi 8638ac <serialboot+0x124>
  863990:	43 92 00 34 	lbu r18,(sp+52)
  863994:	43 83 00 35 	lbu r3,(sp+53)
  863998:	43 82 00 36 	lbu r2,(sp+54)
  86399c:	43 81 00 37 	lbu r1,(sp+55)
  8639a0:	3c 63 00 10 	sli r3,r3,16
  8639a4:	3e 52 00 18 	sli r18,r18,24
  8639a8:	3c 42 00 08 	sli r2,r2,8
  8639ac:	ba 43 90 00 	or r18,r18,r3
  8639b0:	ba 41 90 00 	or r18,r18,r1
  8639b4:	34 01 00 4b 	mvi r1,75
  8639b8:	ba 42 90 00 	or r18,r18,r2
  8639bc:	34 0d 00 00 	mvi r13,0
  8639c0:	f8 00 0b 69 	calli 866764 <uart_write>
  8639c4:	e3 ff ff ba 	bi 8638ac <serialboot+0x124>
  8639c8:	43 8b 00 34 	lbu r11,(sp+52)
  8639cc:	43 83 00 35 	lbu r3,(sp+53)
  8639d0:	43 82 00 36 	lbu r2,(sp+54)
  8639d4:	43 81 00 37 	lbu r1,(sp+55)
  8639d8:	3c 63 00 10 	sli r3,r3,16
  8639dc:	3d 6b 00 18 	sli r11,r11,24
  8639e0:	3c 42 00 08 	sli r2,r2,8
  8639e4:	b9 63 58 00 	or r11,r11,r3
  8639e8:	b9 61 58 00 	or r11,r11,r1
  8639ec:	34 01 00 4b 	mvi r1,75
  8639f0:	b9 62 58 00 	or r11,r11,r2
  8639f4:	f8 00 0b 5c 	calli 866764 <uart_write>
  8639f8:	78 04 40 66 	mvhi r4,0x4066
  8639fc:	38 84 16 68 	ori r4,r4,0x1668
  863a00:	28 8c 00 00 	lw r12,(r4+0)
  863a04:	f8 00 1d 32 	calli 86aecc <vga_blank>
  863a08:	34 01 00 01 	mvi r1,1
  863a0c:	f8 00 0b 95 	calli 866860 <uart_force_sync>
  863a10:	34 01 00 00 	mvi r1,0
  863a14:	d0 21 00 00 	wcsr IM,r1
  863a18:	d0 01 00 00 	wcsr IE,r1
  863a1c:	ba 40 08 00 	mv r1,r18
  863a20:	ba 20 10 00 	mv r2,r17
  863a24:	ba 00 18 00 	mv r3,r16
  863a28:	b9 80 20 00 	mv r4,r12
  863a2c:	b9 60 28 00 	mv r5,r11
  863a30:	f8 00 01 78 	calli 864010 <boot_helper>
  863a34:	e0 00 00 00 	bi 863a34 <serialboot+0x2ac>
  863a38:	43 84 00 30 	lbu r4,(sp+48)
  863a3c:	43 85 00 34 	lbu r5,(sp+52)
  863a40:	43 83 00 35 	lbu r3,(sp+53)
  863a44:	43 81 00 36 	lbu r1,(sp+54)
  863a48:	43 82 00 37 	lbu r2,(sp+55)
  863a4c:	4e 84 00 0f 	bge r20,r4,863a88 <serialboot+0x300>
  863a50:	3c a5 00 18 	sli r5,r5,24
  863a54:	3c 63 00 10 	sli r3,r3,16
  863a58:	3c 21 00 08 	sli r1,r1,8
  863a5c:	b8 a3 28 00 	or r5,r5,r3
  863a60:	b8 a2 28 00 	or r5,r5,r2
  863a64:	b8 a1 28 00 	or r5,r5,r1
  863a68:	34 04 00 04 	mvi r4,4
  863a6c:	b5 84 30 00 	add r6,r12,r4
  863a70:	40 c6 00 04 	lbu r6,(r6+4)
  863a74:	34 84 00 01 	addi r4,r4,1
  863a78:	30 a6 00 00 	sb (r5+0),r6
  863a7c:	43 86 00 30 	lbu r6,(sp+48)
  863a80:	34 a5 00 01 	addi r5,r5,1
  863a84:	48 c4 ff fa 	bg r6,r4,863a6c <serialboot+0x2e4>
  863a88:	34 01 00 4b 	mvi r1,75
  863a8c:	f8 00 0b 36 	calli 866764 <uart_write>
  863a90:	34 0d 00 00 	mvi r13,0
  863a94:	e3 ff ff 86 	bi 8638ac <serialboot+0x124>
  863a98:	34 01 00 4b 	mvi r1,75
  863a9c:	f8 00 0b 32 	calli 866764 <uart_write>
  863aa0:	34 01 00 01 	mvi r1,1
  863aa4:	f8 00 18 ec 	calli 869e54 <usb_debug_enable>
  863aa8:	e3 ff ff 68 	bi 863848 <serialboot+0xc0>
  863aac:	43 90 00 34 	lbu r16,(sp+52)
  863ab0:	43 83 00 35 	lbu r3,(sp+53)
  863ab4:	43 82 00 36 	lbu r2,(sp+54)
  863ab8:	43 81 00 37 	lbu r1,(sp+55)
  863abc:	3c 63 00 10 	sli r3,r3,16
  863ac0:	3e 10 00 18 	sli r16,r16,24
  863ac4:	3c 42 00 08 	sli r2,r2,8
  863ac8:	ba 03 80 00 	or r16,r16,r3
  863acc:	ba 01 80 00 	or r16,r16,r1
  863ad0:	34 01 00 4b 	mvi r1,75
  863ad4:	ba 02 80 00 	or r16,r16,r2
  863ad8:	34 0d 00 00 	mvi r13,0
  863adc:	f8 00 0b 22 	calli 866764 <uart_write>
  863ae0:	e3 ff ff 73 	bi 8638ac <serialboot+0x124>
  863ae4:	35 ad 00 01 	addi r13,r13,1
  863ae8:	45 af ff 96 	be r13,r15,863940 <serialboot+0x1b8>
  863aec:	34 01 00 55 	mvi r1,85
  863af0:	f8 00 0b 1d 	calli 866764 <uart_write>
  863af4:	e3 ff ff 6e 	bi 8638ac <serialboot+0x124>

00863af8 <netboot>:
  863af8:	37 9c ff f0 	addi sp,sp,-16
  863afc:	5b 8b 00 0c 	sw (sp+12),r11
  863b00:	5b 8c 00 08 	sw (sp+8),r12
  863b04:	5b 9d 00 04 	sw (sp+4),ra
  863b08:	78 01 00 86 	mvhi r1,0x86
  863b0c:	38 21 e2 cc 	ori r1,r1,0xe2cc
  863b10:	f8 00 06 8b 	calli 86553c <printf>
  863b14:	78 01 00 86 	mvhi r1,0x86
  863b18:	78 03 00 86 	mvhi r3,0x86
  863b1c:	38 21 e5 90 	ori r1,r1,0xe590
  863b20:	38 63 e5 94 	ori r3,r3,0xe594
  863b24:	28 2b 00 00 	lw r11,(r1+0)
  863b28:	28 61 00 00 	lw r1,(r3+0)
  863b2c:	78 04 00 86 	mvhi r4,0x86
  863b30:	38 84 e5 98 	ori r4,r4,0xe598
  863b34:	40 26 00 00 	lbu r6,(r1+0)
  863b38:	28 81 00 00 	lw r1,(r4+0)
  863b3c:	78 05 00 86 	mvhi r5,0x86
  863b40:	38 a5 e5 9c 	ori r5,r5,0xe59c
  863b44:	40 27 00 00 	lbu r7,(r1+0)
  863b48:	28 a1 00 00 	lw r1,(r5+0)
  863b4c:	78 04 00 86 	mvhi r4,0x86
  863b50:	38 84 e5 a0 	ori r4,r4,0xe5a0
  863b54:	40 23 00 00 	lbu r3,(r1+0)
  863b58:	28 81 00 00 	lw r1,(r4+0)
  863b5c:	78 05 00 86 	mvhi r5,0x86
  863b60:	38 a5 e5 a4 	ori r5,r5,0xe5a4
  863b64:	40 24 00 00 	lbu r4,(r1+0)
  863b68:	28 a1 00 00 	lw r1,(r5+0)
  863b6c:	41 62 00 00 	lbu r2,(r11+0)
  863b70:	40 25 00 00 	lbu r5,(r1+0)
  863b74:	78 01 00 86 	mvhi r1,0x86
  863b78:	38 21 e2 e8 	ori r1,r1,0xe2e8
  863b7c:	f8 00 06 70 	calli 86553c <printf>
  863b80:	78 01 00 86 	mvhi r1,0x86
  863b84:	34 02 00 c0 	mvi r2,192
  863b88:	34 03 00 a8 	mvi r3,168
  863b8c:	34 04 00 00 	mvi r4,0
  863b90:	34 05 00 2a 	mvi r5,42
  863b94:	38 21 e3 18 	ori r1,r1,0xe318
  863b98:	f8 00 06 69 	calli 86553c <printf>
  863b9c:	78 01 00 86 	mvhi r1,0x86
  863ba0:	34 04 00 00 	mvi r4,0
  863ba4:	34 03 00 a8 	mvi r3,168
  863ba8:	34 05 00 0e 	mvi r5,14
  863bac:	34 02 00 c0 	mvi r2,192
  863bb0:	38 21 e3 34 	ori r1,r1,0xe334
  863bb4:	f8 00 06 62 	calli 86553c <printf>
  863bb8:	78 03 00 86 	mvhi r3,0x86
  863bbc:	38 63 e5 a8 	ori r3,r3,0xe5a8
  863bc0:	28 62 00 00 	lw r2,(r3+0)
  863bc4:	b9 60 08 00 	mv r1,r11
  863bc8:	78 0b 00 86 	mvhi r11,0x86
  863bcc:	f8 00 26 0a 	calli 86d3f4 <microudp_start>
  863bd0:	78 04 00 86 	mvhi r4,0x86
  863bd4:	38 84 e5 88 	ori r4,r4,0xe588
  863bd8:	28 81 00 00 	lw r1,(r4+0)
  863bdc:	39 6b e3 50 	ori r11,r11,0xe350
  863be0:	b9 60 10 00 	mv r2,r11
  863be4:	78 03 40 00 	mvhi r3,0x4000
  863be8:	f8 00 26 d0 	calli 86d728 <tftp_get>
  863bec:	4c 01 00 27 	bge r0,r1,863c88 <netboot+0x190>
  863bf0:	b8 20 10 00 	mv r2,r1
  863bf4:	78 01 00 86 	mvhi r1,0x86
  863bf8:	b9 60 18 00 	mv r3,r11
  863bfc:	38 21 e2 10 	ori r1,r1,0xe210
  863c00:	f8 00 06 4f 	calli 86553c <printf>
  863c04:	78 0b 41 00 	mvhi r11,0x4100
  863c08:	78 01 00 86 	mvhi r1,0x86
  863c0c:	38 21 e3 5c 	ori r1,r1,0xe35c
  863c10:	b9 60 10 00 	mv r2,r11
  863c14:	fb ff fe bb 	calli 863700 <tftp_get_v.clone.0>
  863c18:	4c 01 00 30 	bge r0,r1,863cd8 <netboot+0x1e0>
  863c1c:	b4 2b 08 00 	add r1,r1,r11
  863c20:	30 20 00 00 	sb (r1+0),r0
  863c24:	b9 60 60 00 	mv r12,r11
  863c28:	78 05 00 86 	mvhi r5,0x86
  863c2c:	38 a5 e5 ac 	ori r5,r5,0xe5ac
  863c30:	28 a2 00 00 	lw r2,(r5+0)
  863c34:	78 01 00 86 	mvhi r1,0x86
  863c38:	38 21 e3 a8 	ori r1,r1,0xe3a8
  863c3c:	fb ff fe b1 	calli 863700 <tftp_get_v.clone.0>
  863c40:	48 20 00 1e 	bg r1,r0,863cb8 <netboot+0x1c0>
  863c44:	78 01 00 86 	mvhi r1,0x86
  863c48:	38 21 e3 b4 	ori r1,r1,0xe3b4
  863c4c:	f8 00 06 3c 	calli 86553c <printf>
  863c50:	34 0b 00 00 	mvi r11,0
  863c54:	34 02 00 00 	mvi r2,0
  863c58:	78 01 00 86 	mvhi r1,0x86
  863c5c:	38 21 e3 d4 	ori r1,r1,0xe3d4
  863c60:	5b 82 00 10 	sw (sp+16),r2
  863c64:	f8 00 06 36 	calli 86553c <printf>
  863c68:	78 04 40 66 	mvhi r4,0x4066
  863c6c:	38 84 16 68 	ori r4,r4,0x1668
  863c70:	28 84 00 00 	lw r4,(r4+0)
  863c74:	2b 82 00 10 	lw r2,(sp+16)
  863c78:	b9 80 08 00 	mv r1,r12
  863c7c:	b9 60 18 00 	mv r3,r11
  863c80:	78 05 40 00 	mvhi r5,0x4000
  863c84:	fb ff fe 6e 	calli 86363c <boot>
  863c88:	78 01 00 86 	mvhi r1,0x86
  863c8c:	b9 60 10 00 	mv r2,r11
  863c90:	38 21 e2 48 	ori r1,r1,0xe248
  863c94:	f8 00 06 2a 	calli 86553c <printf>
  863c98:	78 01 00 86 	mvhi r1,0x86
  863c9c:	38 21 e3 68 	ori r1,r1,0xe368
  863ca0:	f8 00 06 27 	calli 86553c <printf>
  863ca4:	2b 9d 00 04 	lw ra,(sp+4)
  863ca8:	2b 8b 00 0c 	lw r11,(sp+12)
  863cac:	2b 8c 00 08 	lw r12,(sp+8)
  863cb0:	37 9c 00 10 	addi sp,sp,16
  863cb4:	c3 a0 00 00 	ret
  863cb8:	78 04 00 86 	mvhi r4,0x86
  863cbc:	38 84 e5 b0 	ori r4,r4,0xe5b0
  863cc0:	28 8b 00 00 	lw r11,(r4+0)
  863cc4:	78 03 00 86 	mvhi r3,0x86
  863cc8:	38 63 e5 ac 	ori r3,r3,0xe5ac
  863ccc:	28 62 00 00 	lw r2,(r3+0)
  863cd0:	b4 2b 58 00 	add r11,r1,r11
  863cd4:	e3 ff ff e1 	bi 863c58 <netboot+0x160>
  863cd8:	78 01 00 86 	mvhi r1,0x86
  863cdc:	38 21 e3 80 	ori r1,r1,0xe380
  863ce0:	f8 00 06 17 	calli 86553c <printf>
  863ce4:	34 0c 00 00 	mvi r12,0
  863ce8:	e3 ff ff d0 	bi 863c28 <netboot+0x130>

00863cec <fsboot>:
  863cec:	37 9c ff ec 	addi sp,sp,-20
  863cf0:	5b 8b 00 0c 	sw (sp+12),r11
  863cf4:	5b 8c 00 08 	sw (sp+8),r12
  863cf8:	5b 9d 00 04 	sw (sp+4),ra
  863cfc:	78 02 00 86 	mvhi r2,0x86
  863d00:	b8 20 58 00 	mv r11,r1
  863d04:	b8 40 08 00 	mv r1,r2
  863d08:	38 21 e3 e4 	ori r1,r1,0xe3e4
  863d0c:	f8 00 06 0c 	calli 86553c <printf>
  863d10:	b9 60 08 00 	mv r1,r11
  863d14:	f8 00 06 3d 	calli 865608 <fatfs_init>
  863d18:	44 20 00 1e 	be r1,r0,863d90 <fsboot+0xa4>
  863d1c:	78 0b 00 86 	mvhi r11,0x86
  863d20:	39 6b e4 28 	ori r11,r11,0xe428
  863d24:	b9 60 08 00 	mv r1,r11
  863d28:	78 02 40 00 	mvhi r2,0x4000
  863d2c:	78 03 01 00 	mvhi r3,0x100
  863d30:	37 84 00 14 	addi r4,sp,20
  863d34:	f8 00 08 79 	calli 865f18 <fatfs_load>
  863d38:	4c 01 00 06 	bge r0,r1,863d50 <fsboot+0x64>
  863d3c:	2b 82 00 14 	lw r2,(sp+20)
  863d40:	4c 22 00 0d 	bge r1,r2,863d74 <fsboot+0x88>
  863d44:	78 01 00 86 	mvhi r1,0x86
  863d48:	38 21 e1 a4 	ori r1,r1,0xe1a4
  863d4c:	f8 00 05 fc 	calli 86553c <printf>
  863d50:	78 01 00 86 	mvhi r1,0x86
  863d54:	38 21 e4 34 	ori r1,r1,0xe434
  863d58:	f8 00 05 f9 	calli 86553c <printf>
  863d5c:	f8 00 09 75 	calli 866330 <fatfs_done>
  863d60:	2b 9d 00 04 	lw ra,(sp+4)
  863d64:	2b 8b 00 0c 	lw r11,(sp+12)
  863d68:	2b 8c 00 08 	lw r12,(sp+8)
  863d6c:	37 9c 00 14 	addi sp,sp,20
  863d70:	c3 a0 00 00 	ret
  863d74:	78 01 00 86 	mvhi r1,0x86
  863d78:	38 21 e1 ec 	ori r1,r1,0xe1ec
  863d7c:	b9 60 18 00 	mv r3,r11
  863d80:	f8 00 05 ef 	calli 86553c <printf>
  863d84:	2b 81 00 14 	lw r1,(sp+20)
  863d88:	48 20 00 0a 	bg r1,r0,863db0 <fsboot+0xc4>
  863d8c:	e3 ff ff f1 	bi 863d50 <fsboot+0x64>
  863d90:	78 01 00 86 	mvhi r1,0x86
  863d94:	38 21 e4 04 	ori r1,r1,0xe404
  863d98:	f8 00 05 e9 	calli 86553c <printf>
  863d9c:	2b 9d 00 04 	lw ra,(sp+4)
  863da0:	2b 8b 00 0c 	lw r11,(sp+12)
  863da4:	2b 8c 00 08 	lw r12,(sp+8)
  863da8:	37 9c 00 14 	addi sp,sp,20
  863dac:	c3 a0 00 00 	ret
  863db0:	78 0b 41 00 	mvhi r11,0x4100
  863db4:	78 01 00 86 	mvhi r1,0x86
  863db8:	38 21 e4 54 	ori r1,r1,0xe454
  863dbc:	b9 60 10 00 	mv r2,r11
  863dc0:	fb ff fe 34 	calli 863690 <tryload>
  863dc4:	48 20 00 1e 	bg r1,r0,863e3c <fsboot+0x150>
  863dc8:	78 01 00 86 	mvhi r1,0x86
  863dcc:	38 21 e4 60 	ori r1,r1,0xe460
  863dd0:	f8 00 05 db 	calli 86553c <printf>
  863dd4:	34 0c 00 00 	mvi r12,0
  863dd8:	78 01 00 86 	mvhi r1,0x86
  863ddc:	38 21 e5 ac 	ori r1,r1,0xe5ac
  863de0:	28 22 00 00 	lw r2,(r1+0)
  863de4:	78 01 00 86 	mvhi r1,0x86
  863de8:	38 21 e4 94 	ori r1,r1,0xe494
  863dec:	fb ff fe 29 	calli 863690 <tryload>
  863df0:	48 20 00 17 	bg r1,r0,863e4c <fsboot+0x160>
  863df4:	78 01 00 86 	mvhi r1,0x86
  863df8:	38 21 e4 a0 	ori r1,r1,0xe4a0
  863dfc:	f8 00 05 d0 	calli 86553c <printf>
  863e00:	34 0b 00 00 	mvi r11,0
  863e04:	34 02 00 00 	mvi r2,0
  863e08:	5b 82 00 10 	sw (sp+16),r2
  863e0c:	f8 00 09 49 	calli 866330 <fatfs_done>
  863e10:	78 01 00 86 	mvhi r1,0x86
  863e14:	38 21 e3 d4 	ori r1,r1,0xe3d4
  863e18:	f8 00 05 c9 	calli 86553c <printf>
  863e1c:	78 04 40 66 	mvhi r4,0x4066
  863e20:	38 84 16 68 	ori r4,r4,0x1668
  863e24:	28 84 00 00 	lw r4,(r4+0)
  863e28:	2b 82 00 10 	lw r2,(sp+16)
  863e2c:	b9 80 08 00 	mv r1,r12
  863e30:	b9 60 18 00 	mv r3,r11
  863e34:	78 05 40 00 	mvhi r5,0x4000
  863e38:	fb ff fe 01 	calli 86363c <boot>
  863e3c:	b4 2b 08 00 	add r1,r1,r11
  863e40:	30 20 00 00 	sb (r1+0),r0
  863e44:	b9 60 60 00 	mv r12,r11
  863e48:	e3 ff ff e4 	bi 863dd8 <fsboot+0xec>
  863e4c:	78 03 00 86 	mvhi r3,0x86
  863e50:	38 63 e5 ac 	ori r3,r3,0xe5ac
  863e54:	28 62 00 00 	lw r2,(r3+0)
  863e58:	78 03 00 86 	mvhi r3,0x86
  863e5c:	38 63 e5 b0 	ori r3,r3,0xe5b0
  863e60:	28 6b 00 00 	lw r11,(r3+0)
  863e64:	b4 2b 58 00 	add r11,r1,r11
  863e68:	e3 ff ff e8 	bi 863e08 <fsboot+0x11c>

00863e6c <flashboot>:
  863e6c:	37 9c ff ec 	addi sp,sp,-20
  863e70:	5b 8b 00 14 	sw (sp+20),r11
  863e74:	5b 8c 00 10 	sw (sp+16),r12
  863e78:	5b 8d 00 0c 	sw (sp+12),r13
  863e7c:	5b 8e 00 08 	sw (sp+8),r14
  863e80:	5b 9d 00 04 	sw (sp+4),ra
  863e84:	78 01 00 86 	mvhi r1,0x86
  863e88:	78 0c 40 66 	mvhi r12,0x4066
  863e8c:	38 21 e4 cc 	ori r1,r1,0xe4cc
  863e90:	39 8c 16 68 	ori r12,r12,0x1668
  863e94:	f8 00 05 aa 	calli 86553c <printf>
  863e98:	29 81 00 00 	lw r1,(r12+0)
  863e9c:	44 20 00 39 	be r1,r0,863f80 <flashboot+0x114>
  863ea0:	78 04 00 86 	mvhi r4,0x86
  863ea4:	38 84 e5 b8 	ori r4,r4,0xe5b8
  863ea8:	78 01 00 86 	mvhi r1,0x86
  863eac:	28 83 00 00 	lw r3,(r4+0)
  863eb0:	38 21 e5 b4 	ori r1,r1,0xe5b4
  863eb4:	28 2e 00 00 	lw r14,(r1+0)
  863eb8:	78 01 00 2e 	mvhi r1,0x2e
  863ebc:	28 2b 00 00 	lw r11,(r1+0)
  863ec0:	34 01 00 00 	mvi r1,0
  863ec4:	4d 60 00 06 	bge r11,r0,863edc <flashboot+0x70>
  863ec8:	78 04 00 86 	mvhi r4,0x86
  863ecc:	38 84 e5 c4 	ori r4,r4,0xe5c4
  863ed0:	28 82 00 00 	lw r2,(r4+0)
  863ed4:	34 01 00 01 	mvi r1,1
  863ed8:	a1 62 58 00 	and r11,r11,r2
  863edc:	78 04 00 86 	mvhi r4,0x86
  863ee0:	38 84 e5 c8 	ori r4,r4,0xe5c8
  863ee4:	28 6d 00 00 	lw r13,(r3+0)
  863ee8:	28 83 00 00 	lw r3,(r4+0)
  863eec:	35 62 ff e0 	addi r2,r11,-32
  863ef0:	50 62 00 0b 	bgeu r3,r2,863f1c <flashboot+0xb0>
  863ef4:	78 01 00 86 	mvhi r1,0x86
  863ef8:	38 21 e4 e8 	ori r1,r1,0xe4e8
  863efc:	f8 00 05 90 	calli 86553c <printf>
  863f00:	2b 9d 00 04 	lw ra,(sp+4)
  863f04:	2b 8b 00 14 	lw r11,(sp+20)
  863f08:	2b 8c 00 10 	lw r12,(sp+16)
  863f0c:	2b 8d 00 0c 	lw r13,(sp+12)
  863f10:	2b 8e 00 08 	lw r14,(sp+8)
  863f14:	37 9c 00 14 	addi sp,sp,20
  863f18:	c3 a0 00 00 	ret
  863f1c:	5c 20 00 21 	bne r1,r0,863fa0 <flashboot+0x134>
  863f20:	78 01 00 86 	mvhi r1,0x86
  863f24:	b9 60 10 00 	mv r2,r11
  863f28:	38 21 e5 64 	ori r1,r1,0xe564
  863f2c:	f8 00 05 84 	calli 86553c <printf>
  863f30:	b9 60 18 00 	mv r3,r11
  863f34:	b9 c0 10 00 	mv r2,r14
  863f38:	78 01 40 00 	mvhi r1,0x4000
  863f3c:	f8 00 02 71 	calli 864900 <memcpy>
  863f40:	78 01 40 00 	mvhi r1,0x4000
  863f44:	b9 60 10 00 	mv r2,r11
  863f48:	f8 00 04 9d 	calli 8651bc <crc32>
  863f4c:	b8 20 18 00 	mv r3,r1
  863f50:	45 a1 00 27 	be r13,r1,863fec <flashboot+0x180>
  863f54:	78 01 00 86 	mvhi r1,0x86
  863f58:	38 21 e5 38 	ori r1,r1,0xe538
  863f5c:	b9 a0 10 00 	mv r2,r13
  863f60:	f8 00 05 77 	calli 86553c <printf>
  863f64:	2b 9d 00 04 	lw ra,(sp+4)
  863f68:	2b 8b 00 14 	lw r11,(sp+20)
  863f6c:	2b 8c 00 10 	lw r12,(sp+16)
  863f70:	2b 8d 00 0c 	lw r13,(sp+12)
  863f74:	2b 8e 00 08 	lw r14,(sp+8)
  863f78:	37 9c 00 14 	addi sp,sp,20
  863f7c:	c3 a0 00 00 	ret
  863f80:	78 01 00 86 	mvhi r1,0x86
  863f84:	78 04 00 86 	mvhi r4,0x86
  863f88:	38 21 e5 bc 	ori r1,r1,0xe5bc
  863f8c:	38 84 e5 c0 	ori r4,r4,0xe5c0
  863f90:	28 2e 00 00 	lw r14,(r1+0)
  863f94:	28 83 00 00 	lw r3,(r4+0)
  863f98:	78 01 00 92 	mvhi r1,0x92
  863f9c:	e3 ff ff c8 	bi 863ebc <flashboot+0x50>
  863fa0:	78 01 00 86 	mvhi r1,0x86
  863fa4:	b9 60 10 00 	mv r2,r11
  863fa8:	38 21 e5 0c 	ori r1,r1,0xe50c
  863fac:	f8 00 05 64 	calli 86553c <printf>
  863fb0:	b9 c0 08 00 	mv r1,r14
  863fb4:	b9 60 10 00 	mv r2,r11
  863fb8:	f8 00 04 81 	calli 8651bc <crc32>
  863fbc:	b8 20 18 00 	mv r3,r1
  863fc0:	5d a1 ff e5 	bne r13,r1,863f54 <flashboot+0xe8>
  863fc4:	78 07 00 86 	mvhi r7,0x86
  863fc8:	b9 c0 08 00 	mv r1,r14
  863fcc:	b9 60 10 00 	mv r2,r11
  863fd0:	34 03 00 00 	mvi r3,0
  863fd4:	34 04 00 00 	mvi r4,0
  863fd8:	78 05 40 00 	mvhi r5,0x4000
  863fdc:	34 06 00 00 	mvi r6,0
  863fe0:	38 e7 36 18 	ori r7,r7,0x3618
  863fe4:	fb ff f5 d1 	calli 861728 <unlzma>
  863fe8:	48 01 ff df 	bg r0,r1,863f64 <flashboot+0xf8>
  863fec:	78 01 00 86 	mvhi r1,0x86
  863ff0:	38 21 e3 d4 	ori r1,r1,0xe3d4
  863ff4:	f8 00 05 52 	calli 86553c <printf>
  863ff8:	29 84 00 00 	lw r4,(r12+0)
  863ffc:	34 01 00 00 	mvi r1,0
  864000:	34 02 00 00 	mvi r2,0
  864004:	34 03 00 00 	mvi r3,0
  864008:	78 05 40 00 	mvhi r5,0x4000
  86400c:	fb ff fd 8c 	calli 86363c <boot>

00864010 <boot_helper>:
  864010:	d0 60 00 00 	wcsr ICC,r0
  864014:	34 00 00 00 	nop
  864018:	34 00 00 00 	nop
  86401c:	34 00 00 00 	nop
  864020:	34 00 00 00 	nop
  864024:	d8 a0 00 00 	call r5

00864028 <_sdram_init>:
  864028:	bb a0 b8 00 	mv r23,ra
  86402c:	e0 00 00 17 	bi 864088 <send_init>

00864030 <send_init_return>:
  864030:	78 01 e0 00 	mvhi r1,0xe000
  864034:	38 21 10 00 	ori r1,r1,0x1000
  864038:	28 22 00 00 	lw r2,(r1+0)
  86403c:	20 42 00 04 	andi r2,r2,0x4
  864040:	5c 40 00 67 	bne r2,r0,8641dc <mancal>
  864044:	e0 00 00 5c 	bi 8641b4 <autocalibrate>

00864048 <autocalibrate_fail_return>:
  864048:	78 01 00 86 	mvhi r1,0x86
  86404c:	38 21 e6 ad 	ori r1,r1,0xe6ad
  864050:	f8 00 01 4c 	calli 864580 <print>
  864054:	e0 00 00 62 	bi 8641dc <mancal>
  864058:	e3 ff ff fc 	bi 864048 <autocalibrate_fail_return>

0086405c <autocalibrate_success_return>:
  86405c:	34 01 00 00 	mvi r1,0
  864060:	98 42 10 00 	xor r2,r2,r2
  864064:	f8 00 01 00 	calli 864464 <memtest>
  864068:	44 20 00 03 	be r1,r0,864074 <memtest_fail>
  86406c:	34 01 00 00 	mvi r1,0
  864070:	c2 e0 00 00 	b r23

00864074 <memtest_fail>:
  864074:	78 01 00 86 	mvhi r1,0x86
  864078:	38 21 e7 3a 	ori r1,r1,0xe73a
  86407c:	f8 00 01 41 	calli 864580 <print>
  864080:	e0 00 00 b1 	bi 864344 <config>

00864084 <memtest_fail_loop>:
  864084:	e0 00 00 00 	bi 864084 <memtest_fail_loop>

00864088 <send_init>:
  864088:	78 02 e0 00 	mvhi r2,0xe000
  86408c:	38 42 20 00 	ori r2,r2,0x2000
  864090:	38 03 00 07 	mvu r3,0x7
  864094:	58 43 00 00 	sw (r2+0),r3
  864098:	38 01 00 01 	mvu r1,0x1
  86409c:	f8 00 01 45 	calli 8645b0 <delay>
  8640a0:	78 02 e0 00 	mvhi r2,0xe000
  8640a4:	38 42 20 04 	ori r2,r2,0x2004
  8640a8:	38 03 40 0b 	mvu r3,0x400b
  8640ac:	58 43 00 00 	sw (r2+0),r3
  8640b0:	38 01 00 01 	mvu r1,0x1
  8640b4:	f8 00 01 3f 	calli 8645b0 <delay>
  8640b8:	38 03 00 08 	mvu r3,0x8
  8640bc:	58 43 00 00 	sw (r2+0),r3
  8640c0:	38 01 00 01 	mvu r1,0x1
  8640c4:	f8 00 01 3b 	calli 8645b0 <delay>
  8640c8:	78 03 00 02 	mvhi r3,0x2
  8640cc:	38 63 00 0f 	ori r3,r3,0xf
  8640d0:	58 43 00 00 	sw (r2+0),r3
  8640d4:	38 01 00 01 	mvu r1,0x1
  8640d8:	f8 00 01 36 	calli 8645b0 <delay>
  8640dc:	38 03 00 08 	mvu r3,0x8
  8640e0:	58 43 00 00 	sw (r2+0),r3
  8640e4:	38 01 00 01 	mvu r1,0x1
  8640e8:	f8 00 01 32 	calli 8645b0 <delay>
  8640ec:	38 03 12 1f 	mvu r3,0x121f
  8640f0:	58 43 00 00 	sw (r2+0),r3
  8640f4:	38 01 00 64 	mvu r1,0x64
  8640f8:	f8 00 01 2e 	calli 8645b0 <delay>
  8640fc:	38 03 00 08 	mvu r3,0x8
  864100:	58 43 00 00 	sw (r2+0),r3
  864104:	38 01 00 01 	mvu r1,0x1
  864108:	f8 00 01 2a 	calli 8645b0 <delay>
  86410c:	38 03 40 0b 	mvu r3,0x400b
  864110:	58 43 00 00 	sw (r2+0),r3
  864114:	38 01 00 01 	mvu r1,0x1
  864118:	f8 00 01 26 	calli 8645b0 <delay>
  86411c:	38 03 00 08 	mvu r3,0x8
  864120:	58 43 00 00 	sw (r2+0),r3
  864124:	38 01 00 01 	mvu r1,0x1
  864128:	f8 00 01 22 	calli 8645b0 <delay>
  86412c:	38 03 00 0d 	mvu r3,0xd
  864130:	58 43 00 00 	sw (r2+0),r3
  864134:	38 01 00 04 	mvu r1,0x4
  864138:	f8 00 01 1e 	calli 8645b0 <delay>
  86413c:	38 03 00 08 	mvu r3,0x8
  864140:	58 43 00 00 	sw (r2+0),r3
  864144:	38 01 00 01 	mvu r1,0x1
  864148:	f8 00 01 1a 	calli 8645b0 <delay>
  86414c:	38 03 00 0d 	mvu r3,0xd
  864150:	58 43 00 00 	sw (r2+0),r3
  864154:	38 01 00 04 	mvu r1,0x4
  864158:	f8 00 01 16 	calli 8645b0 <delay>
  86415c:	38 03 00 08 	mvu r3,0x8
  864160:	58 43 00 00 	sw (r2+0),r3
  864164:	38 01 00 01 	mvu r1,0x1
  864168:	f8 00 01 12 	calli 8645b0 <delay>
  86416c:	38 03 02 1f 	mvu r3,0x21f
  864170:	58 43 00 00 	sw (r2+0),r3
  864174:	38 01 00 64 	mvu r1,0x64
  864178:	f8 00 01 0e 	calli 8645b0 <delay>
  86417c:	38 03 00 08 	mvu r3,0x8
  864180:	58 43 00 00 	sw (r2+0),r3
  864184:	38 01 00 01 	mvu r1,0x1
  864188:	f8 00 01 0a 	calli 8645b0 <delay>
  86418c:	78 02 e0 00 	mvhi r2,0xe000
  864190:	38 42 20 08 	ori r2,r2,0x2008
  864194:	78 03 00 18 	mvhi r3,0x18
  864198:	38 63 b9 0a 	ori r3,r3,0xb90a
  86419c:	58 43 00 00 	sw (r2+0),r3
  8641a0:	78 02 e0 00 	mvhi r2,0xe000
  8641a4:	38 42 20 00 	ori r2,r2,0x2000
  8641a8:	38 03 00 04 	mvu r3,0x4
  8641ac:	58 43 00 00 	sw (r2+0),r3
  8641b0:	e3 ff ff a0 	bi 864030 <send_init_return>

008641b4 <autocalibrate>:
  8641b4:	78 01 e0 00 	mvhi r1,0xe000
  8641b8:	38 21 20 0c 	ori r1,r1,0x200c
  8641bc:	38 18 00 00 	mvu r24,0x0
  8641c0:	98 42 10 00 	xor r2,r2,r2
  8641c4:	38 03 00 06 	mvu r3,0x6
  8641c8:	44 58 00 04 	be r2,r24,8641d8 <idelay_loop_end>

008641cc <idelay_loop>:
  8641cc:	58 23 00 00 	sw (r1+0),r3
  8641d0:	34 42 00 01 	addi r2,r2,1
  8641d4:	5c 58 ff fe 	bne r2,r24,8641cc <idelay_loop>

008641d8 <idelay_loop_end>:
  8641d8:	e3 ff ff a1 	bi 86405c <autocalibrate_success_return>

008641dc <mancal>:
  8641dc:	78 01 e0 00 	mvhi r1,0xe000
  8641e0:	38 21 30 24 	ori r1,r1,0x3024
  8641e4:	78 02 40 00 	mvhi r2,0x4000
  8641e8:	58 22 00 00 	sw (r1+0),r2
  8641ec:	78 01 e0 00 	mvhi r1,0xe000
  8641f0:	38 21 30 00 	ori r1,r1,0x3000
  8641f4:	58 20 00 00 	sw (r1+0),r0

008641f8 <mancal_loop>:
  8641f8:	78 01 00 86 	mvhi r1,0x86
  8641fc:	38 21 e7 65 	ori r1,r1,0xe765
  864200:	f8 00 00 e0 	calli 864580 <print>
  864204:	bb 00 08 00 	mv r1,r24
  864208:	f8 00 00 ba 	calli 8644f0 <printint>
  86420c:	78 01 00 86 	mvhi r1,0x86
  864210:	38 21 e8 26 	ori r1,r1,0xe826
  864214:	f8 00 00 db 	calli 864580 <print>
  864218:	f8 00 00 8b 	calli 864444 <getkey>
  86421c:	38 02 00 75 	mvu r2,0x75
  864220:	44 22 00 10 	be r1,r2,864260 <inc_input_delay>
  864224:	38 02 00 64 	mvu r2,0x64
  864228:	44 22 00 14 	be r1,r2,864278 <dec_input_delay>
  86422c:	38 02 00 74 	mvu r2,0x74
  864230:	44 22 00 18 	be r1,r2,864290 <small_test>
  864234:	38 02 00 54 	mvu r2,0x54
  864238:	44 22 00 1a 	be r1,r2,8642a0 <big_test>
  86423c:	38 02 00 63 	mvu r2,0x63
  864240:	44 22 00 21 	be r1,r2,8642c4 <iodelay_calibrate>
  864244:	38 02 00 72 	mvu r2,0x72
  864248:	44 22 00 20 	be r1,r2,8642c8 <iodelay_reset>
  86424c:	38 02 00 70 	mvu r2,0x70
  864250:	44 22 00 24 	be r1,r2,8642e0 <disp_pattern>
  864254:	38 02 00 62 	mvu r2,0x62
  864258:	44 22 00 35 	be r1,r2,86432c <boot>
  86425c:	e3 ff ff e7 	bi 8641f8 <mancal_loop>

00864260 <inc_input_delay>:
  864260:	37 18 00 01 	addi r24,r24,1
  864264:	78 01 e0 00 	mvhi r1,0xe000
  864268:	38 21 20 0c 	ori r1,r1,0x200c
  86426c:	38 02 00 06 	mvu r2,0x6
  864270:	58 22 00 00 	sw (r1+0),r2
  864274:	e3 ff ff e1 	bi 8641f8 <mancal_loop>

00864278 <dec_input_delay>:
  864278:	37 18 ff ff 	addi r24,r24,-1
  86427c:	78 01 e0 00 	mvhi r1,0xe000
  864280:	38 21 20 0c 	ori r1,r1,0x200c
  864284:	38 02 00 02 	mvu r2,0x2
  864288:	58 22 00 00 	sw (r1+0),r2
  86428c:	e3 ff ff db 	bi 8641f8 <mancal_loop>

00864290 <small_test>:
  864290:	98 21 08 00 	xor r1,r1,r1
  864294:	98 42 10 00 	xor r2,r2,r2
  864298:	f8 00 00 73 	calli 864464 <memtest>
  86429c:	e0 00 00 04 	bi 8642ac <after_test>

008642a0 <big_test>:
  8642a0:	38 01 00 01 	mvu r1,0x1
  8642a4:	98 42 10 00 	xor r2,r2,r2
  8642a8:	f8 00 00 6f 	calli 864464 <memtest>

008642ac <after_test>:
  8642ac:	44 20 00 02 	be r1,r0,8642b4 <print_test_fail>
  8642b0:	e3 ff ff d2 	bi 8641f8 <mancal_loop>

008642b4 <print_test_fail>:
  8642b4:	78 01 00 86 	mvhi r1,0x86
  8642b8:	38 21 e7 f7 	ori r1,r1,0xe7f7
  8642bc:	f8 00 00 b1 	calli 864580 <print>
  8642c0:	e3 ff ff ce 	bi 8641f8 <mancal_loop>

008642c4 <iodelay_calibrate>:
  8642c4:	e3 ff ff cd 	bi 8641f8 <mancal_loop>

008642c8 <iodelay_reset>:
  8642c8:	78 01 e0 00 	mvhi r1,0xe000
  8642cc:	38 21 20 0c 	ori r1,r1,0x200c
  8642d0:	38 02 00 01 	mvu r2,0x1
  8642d4:	58 22 00 00 	sw (r1+0),r2
  8642d8:	9b 39 c8 00 	xor r25,r25,r25
  8642dc:	e3 ff ff c7 	bi 8641f8 <mancal_loop>

008642e0 <disp_pattern>:
  8642e0:	38 01 02 80 	mvu r1,0x280
  8642e4:	38 02 01 e0 	mvu r2,0x1e0
  8642e8:	38 07 00 0c 	mvu r7,0xc
  8642ec:	38 08 00 06 	mvu r8,0x6
  8642f0:	98 84 20 00 	xor r4,r4,r4
  8642f4:	78 05 40 00 	mvhi r5,0x4000

008642f8 <yloop>:
  8642f8:	98 63 18 00 	xor r3,r3,r3

008642fc <xloop>:
  8642fc:	b4 64 30 00 	add r6,r3,r4
  864300:	c4 c7 48 00 	modu r9,r6,r7
  864304:	38 06 ff ff 	mvu r6,0xffff
  864308:	4d 28 00 02 	bge r9,r8,864310 <staywhite>
  86430c:	98 c6 30 00 	xor r6,r6,r6

00864310 <staywhite>:
  864310:	0c a6 00 00 	sh (r5+0),r6
  864314:	34 a5 00 02 	addi r5,r5,2
  864318:	34 63 00 01 	addi r3,r3,1
  86431c:	5c 61 ff f8 	bne r3,r1,8642fc <xloop>
  864320:	34 84 00 01 	addi r4,r4,1
  864324:	5c 82 ff f5 	bne r4,r2,8642f8 <yloop>
  864328:	e3 ff ff b4 	bi 8641f8 <mancal_loop>

0086432c <boot>:
  86432c:	78 01 e0 00 	mvhi r1,0xe000
  864330:	38 21 30 00 	ori r1,r1,0x3000
  864334:	34 02 00 01 	mvi r2,1
  864338:	58 22 00 00 	sw (r1+0),r2
  86433c:	34 01 00 00 	mvi r1,0
  864340:	c2 e0 00 00 	b r23

00864344 <config>:
  864344:	78 0f 00 00 	mvhi r15,0x0
  864348:	39 ef 00 00 	ori r15,r15,0x0
  86434c:	78 10 00 00 	mvhi r16,0x0
  864350:	3a 10 00 00 	ori r16,r16,0x0
  864354:	78 0a 00 00 	mvhi r10,0x0
  864358:	39 4a 00 ff 	ori r10,r10,0xff
  86435c:	78 0b 00 00 	mvhi r11,0x0
  864360:	39 6b 00 64 	ori r11,r11,0x64
  864364:	78 0c 00 00 	mvhi r12,0x0
  864368:	39 8c 00 00 	ori r12,r12,0x0
  86436c:	78 0d 00 00 	mvhi r13,0x0
  864370:	39 ad 00 01 	ori r13,r13,0x1

00864374 <recursive_conf>:
  864374:	bb 20 08 00 	mv r1,r25
  864378:	f8 00 00 5e 	calli 8644f0 <printint>
  86437c:	78 01 00 86 	mvhi r1,0x86
  864380:	38 21 e8 21 	ori r1,r1,0xe821
  864384:	f8 00 00 7f 	calli 864580 <print>
  864388:	bb 00 08 00 	mv r1,r24
  86438c:	f8 00 00 59 	calli 8644f0 <printint>
  864390:	78 01 00 86 	mvhi r1,0x86
  864394:	38 21 e8 26 	ori r1,r1,0xe826
  864398:	f8 00 00 7a 	calli 864580 <print>
  86439c:	98 21 08 00 	xor r1,r1,r1
  8643a0:	98 42 10 00 	xor r2,r2,r2
  8643a4:	f8 00 00 30 	calli 864464 <memtest>
  8643a8:	5c 20 00 1f 	bne r1,r0,864424 <print_success>
  8643ac:	35 ef 00 01 	addi r15,r15,1
  8643b0:	45 ea 00 11 	be r15,r10,8643f4 <inc_delay>
  8643b4:	5d 80 00 07 	bne r12,r0,8643d0 <dec_dqs>

008643b8 <inc_dqs>:
  8643b8:	37 18 00 01 	addi r24,r24,1
  8643bc:	78 01 e0 00 	mvhi r1,0xe000
  8643c0:	38 21 20 0c 	ori r1,r1,0x200c
  8643c4:	38 02 00 18 	mvu r2,0x18
  8643c8:	58 22 00 00 	sw (r1+0),r2
  8643cc:	e0 00 00 06 	bi 8643e4 <wait_dqs_b>

008643d0 <dec_dqs>:
  8643d0:	37 18 ff ff 	addi r24,r24,-1
  8643d4:	78 01 e0 00 	mvhi r1,0xe000
  8643d8:	38 21 20 0c 	ori r1,r1,0x200c
  8643dc:	38 02 00 08 	mvu r2,0x8
  8643e0:	58 22 00 00 	sw (r1+0),r2

008643e4 <wait_dqs_b>:
  8643e4:	28 22 00 00 	lw r2,(r1+0)
  8643e8:	20 42 00 20 	andi r2,r2,0x20
  8643ec:	44 40 ff fe 	be r2,r0,8643e4 <wait_dqs_b>
  8643f0:	e3 ff ff e1 	bi 864374 <recursive_conf>

008643f4 <inc_delay>:
  8643f4:	78 0f 00 00 	mvhi r15,0x0
  8643f8:	39 ef 00 00 	ori r15,r15,0x0
  8643fc:	99 ac 60 00 	xor r12,r13,r12
  864400:	36 10 00 01 	addi r16,r16,1
  864404:	37 39 00 01 	addi r25,r25,1
  864408:	78 01 e0 00 	mvhi r1,0xe000
  86440c:	38 21 20 0c 	ori r1,r1,0x200c
  864410:	38 02 00 06 	mvu r2,0x6
  864414:	58 22 00 00 	sw (r1+0),r2
  864418:	46 0b 00 02 	be r16,r11,864420 <end>
  86441c:	e3 ff ff d6 	bi 864374 <recursive_conf>

00864420 <end>:
  864420:	e0 00 00 05 	bi 864434 <loop_end>

00864424 <print_success>:
  864424:	78 01 00 86 	mvhi r1,0x86
  864428:	38 21 e8 0c 	ori r1,r1,0xe80c
  86442c:	f8 00 00 55 	calli 864580 <print>
  864430:	e3 ff ff bf 	bi 86432c <boot>

00864434 <loop_end>:
  864434:	34 00 00 00 	nop
  864438:	34 00 00 00 	nop
  86443c:	34 00 00 00 	nop
  864440:	e3 ff ff fd 	bi 864434 <loop_end>

00864444 <getkey>:
  864444:	90 40 08 00 	rcsr r1,IP
  864448:	20 21 00 01 	andi r1,r1,0x1
  86444c:	44 20 ff fe 	be r1,r0,864444 <getkey>
  864450:	d0 41 00 00 	wcsr IP,r1
  864454:	78 01 e0 00 	mvhi r1,0xe000
  864458:	38 21 00 00 	ori r1,r1,0x0
  86445c:	28 21 00 00 	lw r1,(r1+0)
  864460:	c3 a0 00 00 	ret

00864464 <memtest>:
  864464:	78 04 aa aa 	mvhi r4,0xaaaa
  864468:	38 84 aa aa 	ori r4,r4,0xaaaa
  86446c:	78 13 e0 00 	mvhi r19,0xe000
  864470:	3a 73 10 04 	ori r19,r19,0x1004
  864474:	5a 64 00 00 	sw (r19+0),r4
  864478:	78 05 40 00 	mvhi r5,0x4000
  86447c:	78 03 00 70 	mvhi r3,0x70
  864480:	b8 60 20 00 	mv r4,r3
  864484:	b8 40 30 00 	mv r6,r2
  864488:	78 07 01 5a 	mvhi r7,0x15a
  86448c:	38 e7 4e 35 	ori r7,r7,0x4e35
  864490:	5c 20 00 04 	bne r1,r0,8644a0 <patloop>
  864494:	78 03 00 00 	mvhi r3,0x0
  864498:	38 63 00 10 	ori r3,r3,0x10
  86449c:	b8 60 20 00 	mv r4,r3

008644a0 <patloop>:
  8644a0:	58 a6 00 00 	sw (r5+0),r6
  8644a4:	88 c7 30 00 	mul r6,r6,r7
  8644a8:	34 c6 00 01 	addi r6,r6,1
  8644ac:	34 a5 00 04 	addi r5,r5,4
  8644b0:	34 63 ff ff 	addi r3,r3,-1
  8644b4:	5c 60 ff fb 	bne r3,r0,8644a0 <patloop>
  8644b8:	78 05 40 00 	mvhi r5,0x4000
  8644bc:	b8 80 18 00 	mv r3,r4
  8644c0:	b8 40 30 00 	mv r6,r2

008644c4 <chkloop>:
  8644c4:	28 a4 00 00 	lw r4,(r5+0)
  8644c8:	5c 86 00 08 	bne r4,r6,8644e8 <testfail>
  8644cc:	88 c7 30 00 	mul r6,r6,r7
  8644d0:	34 c6 00 01 	addi r6,r6,1
  8644d4:	34 a5 00 04 	addi r5,r5,4
  8644d8:	34 63 ff ff 	addi r3,r3,-1
  8644dc:	5c 60 ff fa 	bne r3,r0,8644c4 <chkloop>
  8644e0:	38 01 00 01 	mvu r1,0x1
  8644e4:	c3 a0 00 00 	ret

008644e8 <testfail>:
  8644e8:	98 21 08 00 	xor r1,r1,r1
  8644ec:	c3 a0 00 00 	ret

008644f0 <printint>:
  8644f0:	78 02 e0 00 	mvhi r2,0xe000
  8644f4:	38 42 00 00 	ori r2,r2,0x0
  8644f8:	4c 20 00 09 	bge r1,r0,86451c <positive>
  8644fc:	a4 01 08 00 	xnor r1,r0,r1
  864500:	34 21 00 01 	addi r1,r1,1
  864504:	38 03 00 2d 	mvu r3,0x2d
  864508:	58 43 00 00 	sw (r2+0),r3

0086450c <writeintwait0>:
  86450c:	90 40 18 00 	rcsr r3,IP
  864510:	20 63 00 02 	andi r3,r3,0x2
  864514:	44 60 ff fe 	be r3,r0,86450c <writeintwait0>
  864518:	d0 43 00 00 	wcsr IP,r3

0086451c <positive>:
  86451c:	38 04 00 64 	mvu r4,0x64
  864520:	8c 24 18 00 	divu r3,r1,r4
  864524:	c4 24 08 00 	modu r1,r1,r4
  864528:	34 63 00 30 	addi r3,r3,48
  86452c:	58 43 00 00 	sw (r2+0),r3

00864530 <writeintwait1>:
  864530:	90 40 18 00 	rcsr r3,IP
  864534:	20 63 00 02 	andi r3,r3,0x2
  864538:	44 60 ff fe 	be r3,r0,864530 <writeintwait1>
  86453c:	d0 43 00 00 	wcsr IP,r3
  864540:	38 04 00 0a 	mvu r4,0xa
  864544:	8c 24 18 00 	divu r3,r1,r4
  864548:	c4 24 08 00 	modu r1,r1,r4
  86454c:	34 63 00 30 	addi r3,r3,48
  864550:	58 43 00 00 	sw (r2+0),r3

00864554 <writeintwait2>:
  864554:	90 40 18 00 	rcsr r3,IP
  864558:	20 63 00 02 	andi r3,r3,0x2
  86455c:	44 60 ff fe 	be r3,r0,864554 <writeintwait2>
  864560:	d0 43 00 00 	wcsr IP,r3
  864564:	34 23 00 30 	addi r3,r1,48
  864568:	58 43 00 00 	sw (r2+0),r3

0086456c <writeintwait3>:
  86456c:	90 40 18 00 	rcsr r3,IP
  864570:	20 63 00 02 	andi r3,r3,0x2
  864574:	44 60 ff fe 	be r3,r0,86456c <writeintwait3>
  864578:	d0 43 00 00 	wcsr IP,r3
  86457c:	c3 a0 00 00 	ret

00864580 <print>:
  864580:	78 02 e0 00 	mvhi r2,0xe000
  864584:	38 42 00 00 	ori r2,r2,0x0

00864588 <writeloop>:
  864588:	10 23 00 00 	lb r3,(r1+0)
  86458c:	44 60 00 08 	be r3,r0,8645ac <print_endloop>
  864590:	58 43 00 00 	sw (r2+0),r3

00864594 <writewait>:
  864594:	90 40 18 00 	rcsr r3,IP
  864598:	20 63 00 02 	andi r3,r3,0x2
  86459c:	44 60 ff fe 	be r3,r0,864594 <writewait>
  8645a0:	d0 43 00 00 	wcsr IP,r3
  8645a4:	34 21 00 01 	addi r1,r1,1
  8645a8:	e3 ff ff f8 	bi 864588 <writeloop>

008645ac <print_endloop>:
  8645ac:	c3 a0 00 00 	ret

008645b0 <delay>:
  8645b0:	34 21 ff ff 	addi r1,r1,-1
  8645b4:	5c 20 ff ff 	bne r1,r0,8645b0 <delay>
  8645b8:	c3 a0 00 00 	ret

008645bc <strchr>:
  8645bc:	10 24 00 00 	lb r4,(r1+0)
  8645c0:	b0 40 10 00 	sextb r2,r2
  8645c4:	b8 20 18 00 	mv r3,r1
  8645c8:	44 82 00 09 	be r4,r2,8645ec <strchr+0x30>
  8645cc:	34 03 00 00 	mvi r3,0
  8645d0:	5c 80 00 03 	bne r4,r0,8645dc <strchr+0x20>
  8645d4:	e0 00 00 06 	bi 8645ec <strchr+0x30>
  8645d8:	44 60 00 07 	be r3,r0,8645f4 <strchr+0x38>
  8645dc:	34 21 00 01 	addi r1,r1,1
  8645e0:	10 23 00 00 	lb r3,(r1+0)
  8645e4:	5c 62 ff fd 	bne r3,r2,8645d8 <strchr+0x1c>
  8645e8:	b8 20 18 00 	mv r3,r1
  8645ec:	b8 60 08 00 	mv r1,r3
  8645f0:	c3 a0 00 00 	ret
  8645f4:	34 03 00 00 	mvi r3,0
  8645f8:	b8 60 08 00 	mv r1,r3
  8645fc:	c3 a0 00 00 	ret

00864600 <strrchr>:
  864600:	10 24 00 00 	lb r4,(r1+0)
  864604:	34 03 00 00 	mvi r3,0
  864608:	44 80 00 06 	be r4,r0,864620 <strrchr+0x20>
  86460c:	b8 20 18 00 	mv r3,r1
  864610:	34 63 00 01 	addi r3,r3,1
  864614:	10 64 00 00 	lb r4,(r3+0)
  864618:	5c 80 ff fe 	bne r4,r0,864610 <strrchr+0x10>
  86461c:	c8 61 18 00 	sub r3,r3,r1
  864620:	b4 23 18 00 	add r3,r1,r3
  864624:	b0 40 10 00 	sextb r2,r2
  864628:	10 64 00 00 	lb r4,(r3+0)
  86462c:	44 82 00 05 	be r4,r2,864640 <strrchr+0x40>
  864630:	34 63 ff ff 	addi r3,r3,-1
  864634:	50 61 ff fd 	bgeu r3,r1,864628 <strrchr+0x28>
  864638:	34 01 00 00 	mvi r1,0
  86463c:	c3 a0 00 00 	ret
  864640:	b8 60 08 00 	mv r1,r3
  864644:	c3 a0 00 00 	ret

00864648 <strnchr>:
  864648:	34 04 00 00 	mvi r4,0
  86464c:	44 40 00 0f 	be r2,r0,864688 <strnchr+0x40>
  864650:	10 25 00 00 	lb r5,(r1+0)
  864654:	44 a0 00 0d 	be r5,r0,864688 <strnchr+0x40>
  864658:	b0 60 18 00 	sextb r3,r3
  86465c:	b8 20 20 00 	mv r4,r1
  864660:	34 42 ff ff 	addi r2,r2,-1
  864664:	5c a3 00 06 	bne r5,r3,86467c <strnchr+0x34>
  864668:	e0 00 00 08 	bi 864688 <strnchr+0x40>
  86466c:	10 24 00 00 	lb r4,(r1+0)
  864670:	34 42 ff ff 	addi r2,r2,-1
  864674:	44 80 00 05 	be r4,r0,864688 <strnchr+0x40>
  864678:	44 83 00 06 	be r4,r3,864690 <strnchr+0x48>
  86467c:	34 21 00 01 	addi r1,r1,1
  864680:	5c 40 ff fb 	bne r2,r0,86466c <strnchr+0x24>
  864684:	34 04 00 00 	mvi r4,0
  864688:	b8 80 08 00 	mv r1,r4
  86468c:	c3 a0 00 00 	ret
  864690:	b8 20 20 00 	mv r4,r1
  864694:	b8 80 08 00 	mv r1,r4
  864698:	c3 a0 00 00 	ret

0086469c <strcpy>:
  86469c:	34 03 00 00 	mvi r3,0
  8646a0:	b4 43 20 00 	add r4,r2,r3
  8646a4:	10 84 00 00 	lb r4,(r4+0)
  8646a8:	b4 23 28 00 	add r5,r1,r3
  8646ac:	34 63 00 01 	addi r3,r3,1
  8646b0:	30 a4 00 00 	sb (r5+0),r4
  8646b4:	5c 80 ff fb 	bne r4,r0,8646a0 <strcpy+0x4>
  8646b8:	c3 a0 00 00 	ret

008646bc <strncpy>:
  8646bc:	44 60 00 09 	be r3,r0,8646e0 <strncpy+0x24>
  8646c0:	34 04 00 00 	mvi r4,0
  8646c4:	10 45 00 00 	lb r5,(r2+0)
  8646c8:	b4 24 38 00 	add r7,r1,r4
  8646cc:	34 84 00 01 	addi r4,r4,1
  8646d0:	7c a6 00 00 	cmpnei r6,r5,0
  8646d4:	30 e5 00 00 	sb (r7+0),r5
  8646d8:	b4 46 10 00 	add r2,r2,r6
  8646dc:	5c 83 ff fa 	bne r4,r3,8646c4 <strncpy+0x8>
  8646e0:	c3 a0 00 00 	ret

008646e4 <strcmp>:
  8646e4:	34 03 00 00 	mvi r3,0
  8646e8:	e0 00 00 02 	bi 8646f0 <strcmp+0xc>
  8646ec:	44 a4 00 0b 	be r5,r4,864718 <strcmp+0x34>
  8646f0:	b4 23 28 00 	add r5,r1,r3
  8646f4:	b4 43 20 00 	add r4,r2,r3
  8646f8:	10 a5 00 00 	lb r5,(r5+0)
  8646fc:	40 84 00 00 	lbu r4,(r4+0)
  864700:	34 63 00 01 	addi r3,r3,1
  864704:	c8 a4 20 00 	sub r4,r5,r4
  864708:	b0 80 20 00 	sextb r4,r4
  86470c:	44 80 ff f8 	be r4,r0,8646ec <strcmp+0x8>
  864710:	b8 80 08 00 	mv r1,r4
  864714:	c3 a0 00 00 	ret
  864718:	34 01 00 00 	mvi r1,0
  86471c:	c3 a0 00 00 	ret

00864720 <strncmp>:
  864720:	b8 20 38 00 	mv r7,r1
  864724:	34 01 00 00 	mvi r1,0
  864728:	4c 03 00 15 	bge r0,r3,86477c <strncmp+0x5c>
  86472c:	10 e4 00 00 	lb r4,(r7+0)
  864730:	40 41 00 00 	lbu r1,(r2+0)
  864734:	c8 81 08 00 	sub r1,r4,r1
  864738:	b0 20 08 00 	sextb r1,r1
  86473c:	5c 20 00 10 	bne r1,r0,86477c <strncmp+0x5c>
  864740:	44 81 00 0f 	be r4,r1,86477c <strncmp+0x5c>
  864744:	34 04 00 00 	mvi r4,0
  864748:	34 84 00 01 	addi r4,r4,1
  86474c:	b4 e4 30 00 	add r6,r7,r4
  864750:	b4 44 28 00 	add r5,r2,r4
  864754:	48 64 00 03 	bg r3,r4,864760 <strncmp+0x40>
  864758:	34 01 00 00 	mvi r1,0
  86475c:	c3 a0 00 00 	ret
  864760:	10 c6 00 00 	lb r6,(r6+0)
  864764:	40 a5 00 00 	lbu r5,(r5+0)
  864768:	c8 c5 28 00 	sub r5,r6,r5
  86476c:	b0 a0 28 00 	sextb r5,r5
  864770:	5c a0 00 04 	bne r5,r0,864780 <strncmp+0x60>
  864774:	5c c5 ff f5 	bne r6,r5,864748 <strncmp+0x28>
  864778:	34 01 00 00 	mvi r1,0
  86477c:	c3 a0 00 00 	ret
  864780:	b8 a0 08 00 	mv r1,r5
  864784:	c3 a0 00 00 	ret

00864788 <strlen>:
  864788:	10 23 00 00 	lb r3,(r1+0)
  86478c:	34 02 00 00 	mvi r2,0
  864790:	44 60 00 06 	be r3,r0,8647a8 <strlen+0x20>
  864794:	b8 20 10 00 	mv r2,r1
  864798:	34 42 00 01 	addi r2,r2,1
  86479c:	10 43 00 00 	lb r3,(r2+0)
  8647a0:	5c 60 ff fe 	bne r3,r0,864798 <strlen+0x10>
  8647a4:	c8 41 10 00 	sub r2,r2,r1
  8647a8:	b8 40 08 00 	mv r1,r2
  8647ac:	c3 a0 00 00 	ret

008647b0 <strnlen>:
  8647b0:	34 03 00 00 	mvi r3,0
  8647b4:	44 40 00 0c 	be r2,r0,8647e4 <strnlen+0x34>
  8647b8:	10 24 00 00 	lb r4,(r1+0)
  8647bc:	44 80 00 0a 	be r4,r0,8647e4 <strnlen+0x34>
  8647c0:	34 42 ff ff 	addi r2,r2,-1
  8647c4:	b8 20 18 00 	mv r3,r1
  8647c8:	e0 00 00 04 	bi 8647d8 <strnlen+0x28>
  8647cc:	10 64 00 00 	lb r4,(r3+0)
  8647d0:	34 42 ff ff 	addi r2,r2,-1
  8647d4:	44 80 00 03 	be r4,r0,8647e0 <strnlen+0x30>
  8647d8:	34 63 00 01 	addi r3,r3,1
  8647dc:	5c 40 ff fc 	bne r2,r0,8647cc <strnlen+0x1c>
  8647e0:	c8 61 18 00 	sub r3,r3,r1
  8647e4:	b8 60 08 00 	mv r1,r3
  8647e8:	c3 a0 00 00 	ret

008647ec <memcmp>:
  8647ec:	b8 20 20 00 	mv r4,r1
  8647f0:	34 01 00 00 	mvi r1,0
  8647f4:	4c 03 00 0f 	bge r0,r3,864830 <memcmp+0x44>
  8647f8:	40 85 00 00 	lbu r5,(r4+0)
  8647fc:	40 41 00 00 	lbu r1,(r2+0)
  864800:	c8 a1 08 00 	sub r1,r5,r1
  864804:	5c 20 00 0c 	bne r1,r0,864834 <memcmp+0x48>
  864808:	34 63 ff ff 	addi r3,r3,-1
  86480c:	34 84 00 01 	addi r4,r4,1
  864810:	34 42 00 01 	addi r2,r2,1
  864814:	48 60 00 02 	bg r3,r0,86481c <memcmp+0x30>
  864818:	c3 a0 00 00 	ret
  86481c:	40 86 00 00 	lbu r6,(r4+0)
  864820:	40 45 00 00 	lbu r5,(r2+0)
  864824:	c8 c5 28 00 	sub r5,r6,r5
  864828:	44 a0 ff f8 	be r5,r0,864808 <memcmp+0x1c>
  86482c:	b8 a0 08 00 	mv r1,r5
  864830:	c3 a0 00 00 	ret
  864834:	c3 a0 00 00 	ret

00864838 <memset>:
  864838:	37 9c ff f8 	addi sp,sp,-8
  86483c:	5b 8b 00 08 	sw (sp+8),r11
  864840:	5b 8c 00 04 	sw (sp+4),r12
  864844:	44 60 00 2b 	be r3,r0,8648f0 <memset+0xb8>
  864848:	c8 01 30 00 	sub r6,r0,r1
  86484c:	20 c6 00 03 	andi r6,r6,0x3
  864850:	b8 20 20 00 	mv r4,r1
  864854:	34 67 ff ff 	addi r7,r3,-1
  864858:	b0 40 10 00 	sextb r2,r2
  86485c:	50 66 00 02 	bgeu r3,r6,864864 <memset+0x2c>
  864860:	b8 60 30 00 	mv r6,r3
  864864:	44 c0 00 09 	be r6,r0,864888 <memset+0x50>
  864868:	34 05 00 00 	mvi r5,0
  86486c:	34 68 ff fe 	addi r8,r3,-2
  864870:	30 82 00 00 	sb (r4+0),r2
  864874:	c9 05 38 00 	sub r7,r8,r5
  864878:	34 a5 00 01 	addi r5,r5,1
  86487c:	34 84 00 01 	addi r4,r4,1
  864880:	54 c5 ff fc 	bgu r6,r5,864870 <memset+0x38>
  864884:	44 66 00 1b 	be r3,r6,8648f0 <memset+0xb8>
  864888:	c8 66 18 00 	sub r3,r3,r6
  86488c:	00 68 00 02 	srui r8,r3,2
  864890:	3d 0a 00 02 	sli r10,r8,2
  864894:	45 40 00 11 	be r10,r0,8648d8 <memset+0xa0>
  864898:	20 45 00 ff 	andi r5,r2,0xff
  86489c:	3c a9 00 10 	sli r9,r5,16
  8648a0:	3c ac 00 18 	sli r12,r5,24
  8648a4:	3c ab 00 08 	sli r11,r5,8
  8648a8:	b9 89 48 00 	or r9,r12,r9
  8648ac:	b9 2b 48 00 	or r9,r9,r11
  8648b0:	b9 25 48 00 	or r9,r9,r5
  8648b4:	b4 26 30 00 	add r6,r1,r6
  8648b8:	34 05 00 00 	mvi r5,0
  8648bc:	58 c9 00 00 	sw (r6+0),r9
  8648c0:	34 a5 00 01 	addi r5,r5,1
  8648c4:	34 c6 00 04 	addi r6,r6,4
  8648c8:	55 05 ff fd 	bgu r8,r5,8648bc <memset+0x84>
  8648cc:	b4 8a 20 00 	add r4,r4,r10
  8648d0:	c8 ea 38 00 	sub r7,r7,r10
  8648d4:	44 6a 00 07 	be r3,r10,8648f0 <memset+0xb8>
  8648d8:	34 e7 00 01 	addi r7,r7,1
  8648dc:	34 03 00 00 	mvi r3,0
  8648e0:	b4 83 28 00 	add r5,r4,r3
  8648e4:	30 a2 00 00 	sb (r5+0),r2
  8648e8:	34 63 00 01 	addi r3,r3,1
  8648ec:	5c 67 ff fd 	bne r3,r7,8648e0 <memset+0xa8>
  8648f0:	2b 8b 00 08 	lw r11,(sp+8)
  8648f4:	2b 8c 00 04 	lw r12,(sp+4)
  8648f8:	37 9c 00 08 	addi sp,sp,8
  8648fc:	c3 a0 00 00 	ret

00864900 <memcpy>:
  864900:	44 60 00 2a 	be r3,r0,8649a8 <memcpy+0xa8>
  864904:	20 24 00 01 	andi r4,r1,0x1
  864908:	b8 20 30 00 	mv r6,r1
  86490c:	44 80 00 06 	be r4,r0,864924 <memcpy+0x24>
  864910:	40 44 00 00 	lbu r4,(r2+0)
  864914:	34 63 ff ff 	addi r3,r3,-1
  864918:	34 42 00 01 	addi r2,r2,1
  86491c:	30 24 00 00 	sb (r1+0),r4
  864920:	34 26 00 01 	addi r6,r1,1
  864924:	34 04 00 02 	mvi r4,2
  864928:	4c 83 00 08 	bge r4,r3,864948 <memcpy+0x48>
  86492c:	20 c4 00 02 	andi r4,r6,0x2
  864930:	44 80 00 06 	be r4,r0,864948 <memcpy+0x48>
  864934:	2c 44 00 00 	lhu r4,(r2+0)
  864938:	34 63 ff fe 	addi r3,r3,-2
  86493c:	34 42 00 02 	addi r2,r2,2
  864940:	0c c4 00 00 	sh (r6+0),r4
  864944:	34 c6 00 02 	addi r6,r6,2
  864948:	14 69 00 02 	sri r9,r3,2
  86494c:	45 20 00 0d 	be r9,r0,864980 <memcpy+0x80>
  864950:	b9 20 28 00 	mv r5,r9
  864954:	34 04 00 00 	mvi r4,0
  864958:	b4 44 38 00 	add r7,r2,r4
  86495c:	28 e8 00 00 	lw r8,(r7+0)
  864960:	b4 c4 38 00 	add r7,r6,r4
  864964:	34 a5 ff ff 	addi r5,r5,-1
  864968:	58 e8 00 00 	sw (r7+0),r8
  86496c:	34 84 00 04 	addi r4,r4,4
  864970:	5c a0 ff fa 	bne r5,r0,864958 <memcpy+0x58>
  864974:	3d 29 00 02 	sli r9,r9,2
  864978:	b4 49 10 00 	add r2,r2,r9
  86497c:	b4 c9 30 00 	add r6,r6,r9
  864980:	20 64 00 02 	andi r4,r3,0x2
  864984:	44 80 00 05 	be r4,r0,864998 <memcpy+0x98>
  864988:	2c 44 00 00 	lhu r4,(r2+0)
  86498c:	34 42 00 02 	addi r2,r2,2
  864990:	0c c4 00 00 	sh (r6+0),r4
  864994:	34 c6 00 02 	addi r6,r6,2
  864998:	20 63 00 01 	andi r3,r3,0x1
  86499c:	44 60 00 03 	be r3,r0,8649a8 <memcpy+0xa8>
  8649a0:	40 42 00 00 	lbu r2,(r2+0)
  8649a4:	30 c2 00 00 	sb (r6+0),r2
  8649a8:	c3 a0 00 00 	ret

008649ac <memmove>:
  8649ac:	54 22 00 2b 	bgu r1,r2,864a58 <memmove+0xac>
  8649b0:	44 60 00 35 	be r3,r0,864a84 <memmove+0xd8>
  8649b4:	b8 41 30 00 	or r6,r2,r1
  8649b8:	00 68 00 02 	srui r8,r3,2
  8649bc:	20 c6 00 03 	andi r6,r6,0x3
  8649c0:	34 44 00 04 	addi r4,r2,4
  8649c4:	34 25 00 04 	addi r5,r1,4
  8649c8:	f4 45 28 00 	cmpgu r5,r2,r5
  8649cc:	74 67 00 03 	cmpgui r7,r3,0x3
  8649d0:	64 c6 00 00 	cmpei r6,r6,0
  8649d4:	f4 24 20 00 	cmpgu r4,r1,r4
  8649d8:	3d 09 00 02 	sli r9,r8,2
  8649dc:	a0 e6 30 00 	and r6,r7,r6
  8649e0:	b8 85 20 00 	or r4,r4,r5
  8649e4:	a0 c4 20 00 	and r4,r6,r4
  8649e8:	65 25 00 00 	cmpei r5,r9,0
  8649ec:	18 84 00 01 	xori r4,r4,0x1
  8649f0:	b8 a4 20 00 	or r4,r5,r4
  8649f4:	b8 40 30 00 	mv r6,r2
  8649f8:	b8 20 28 00 	mv r5,r1
  8649fc:	34 6a ff ff 	addi r10,r3,-1
  864a00:	5c 80 00 0d 	bne r4,r0,864a34 <memmove+0x88>
  864a04:	34 05 00 00 	mvi r5,0
  864a08:	b4 44 30 00 	add r6,r2,r4
  864a0c:	28 c7 00 00 	lw r7,(r6+0)
  864a10:	b4 24 30 00 	add r6,r1,r4
  864a14:	34 a5 00 01 	addi r5,r5,1
  864a18:	58 c7 00 00 	sw (r6+0),r7
  864a1c:	34 84 00 04 	addi r4,r4,4
  864a20:	55 05 ff fa 	bgu r8,r5,864a08 <memmove+0x5c>
  864a24:	b4 29 28 00 	add r5,r1,r9
  864a28:	b4 49 30 00 	add r6,r2,r9
  864a2c:	c9 49 50 00 	sub r10,r10,r9
  864a30:	44 69 00 15 	be r3,r9,864a84 <memmove+0xd8>
  864a34:	35 47 00 01 	addi r7,r10,1
  864a38:	34 02 00 00 	mvi r2,0
  864a3c:	b4 c2 18 00 	add r3,r6,r2
  864a40:	40 64 00 00 	lbu r4,(r3+0)
  864a44:	b4 a2 18 00 	add r3,r5,r2
  864a48:	34 42 00 01 	addi r2,r2,1
  864a4c:	30 64 00 00 	sb (r3+0),r4
  864a50:	5c 47 ff fb 	bne r2,r7,864a3c <memmove+0x90>
  864a54:	c3 a0 00 00 	ret
  864a58:	44 60 00 0b 	be r3,r0,864a84 <memmove+0xd8>
  864a5c:	b4 23 20 00 	add r4,r1,r3
  864a60:	b4 43 10 00 	add r2,r2,r3
  864a64:	34 05 ff ff 	mvi r5,-1
  864a68:	34 63 ff ff 	addi r3,r3,-1
  864a6c:	34 42 ff ff 	addi r2,r2,-1
  864a70:	40 46 00 00 	lbu r6,(r2+0)
  864a74:	34 84 ff ff 	addi r4,r4,-1
  864a78:	34 63 ff ff 	addi r3,r3,-1
  864a7c:	30 86 00 00 	sb (r4+0),r6
  864a80:	5c 65 ff fb 	bne r3,r5,864a6c <memmove+0xc0>
  864a84:	c3 a0 00 00 	ret

00864a88 <strstr>:
  864a88:	10 43 00 00 	lb r3,(r2+0)
  864a8c:	b8 20 28 00 	mv r5,r1
  864a90:	44 60 00 08 	be r3,r0,864ab0 <strstr+0x28>
  864a94:	b8 40 18 00 	mv r3,r2
  864a98:	34 63 00 01 	addi r3,r3,1
  864a9c:	10 64 00 00 	lb r4,(r3+0)
  864aa0:	5c 80 ff fe 	bne r4,r0,864a98 <strstr+0x10>
  864aa4:	c8 62 40 00 	sub r8,r3,r2
  864aa8:	b8 20 28 00 	mv r5,r1
  864aac:	5d 04 00 03 	bne r8,r4,864ab8 <strstr+0x30>
  864ab0:	b8 a0 08 00 	mv r1,r5
  864ab4:	c3 a0 00 00 	ret
  864ab8:	10 23 00 00 	lb r3,(r1+0)
  864abc:	b8 20 48 00 	mv r9,r1
  864ac0:	44 60 00 04 	be r3,r0,864ad0 <strstr+0x48>
  864ac4:	35 29 00 01 	addi r9,r9,1
  864ac8:	11 23 00 00 	lb r3,(r9+0)
  864acc:	5c 60 ff fe 	bne r3,r0,864ac4 <strstr+0x3c>
  864ad0:	c9 21 48 00 	sub r9,r9,r1
  864ad4:	34 05 00 00 	mvi r5,0
  864ad8:	49 09 ff f6 	bg r8,r9,864ab0 <strstr+0x28>
  864adc:	b8 20 28 00 	mv r5,r1
  864ae0:	4c 08 ff f4 	bge r0,r8,864ab0 <strstr+0x28>
  864ae4:	40 4a 00 00 	lbu r10,(r2+0)
  864ae8:	40 23 00 00 	lbu r3,(r1+0)
  864aec:	b8 20 20 00 	mv r4,r1
  864af0:	5d 43 00 0d 	bne r10,r3,864b24 <strstr+0x9c>
  864af4:	b9 00 18 00 	mv r3,r8
  864af8:	b8 40 28 00 	mv r5,r2
  864afc:	34 63 ff ff 	addi r3,r3,-1
  864b00:	34 84 00 01 	addi r4,r4,1
  864b04:	34 a5 00 01 	addi r5,r5,1
  864b08:	48 60 00 04 	bg r3,r0,864b18 <strstr+0x90>
  864b0c:	b8 20 28 00 	mv r5,r1
  864b10:	b8 a0 08 00 	mv r1,r5
  864b14:	c3 a0 00 00 	ret
  864b18:	40 87 00 00 	lbu r7,(r4+0)
  864b1c:	40 a6 00 00 	lbu r6,(r5+0)
  864b20:	44 e6 ff f7 	be r7,r6,864afc <strstr+0x74>
  864b24:	35 29 ff ff 	addi r9,r9,-1
  864b28:	49 09 00 03 	bg r8,r9,864b34 <strstr+0xac>
  864b2c:	34 21 00 01 	addi r1,r1,1
  864b30:	e3 ff ff ee 	bi 864ae8 <strstr+0x60>
  864b34:	34 05 00 00 	mvi r5,0
  864b38:	e3 ff ff de 	bi 864ab0 <strstr+0x28>

00864b3c <strtoul>:
  864b3c:	37 9c ff f8 	addi sp,sp,-8
  864b40:	5b 8b 00 08 	sw (sp+8),r11
  864b44:	5b 8c 00 04 	sw (sp+4),r12
  864b48:	5c 60 00 28 	bne r3,r0,864be8 <strtoul+0xac>
  864b4c:	40 24 00 00 	lbu r4,(r1+0)
  864b50:	34 05 00 30 	mvi r5,48
  864b54:	34 03 00 0a 	mvi r3,10
  864b58:	b0 80 30 00 	sextb r6,r4
  864b5c:	44 c5 00 37 	be r6,r5,864c38 <strtoul+0xfc>
  864b60:	34 06 00 00 	mvi r6,0
  864b64:	34 0a 00 09 	mvi r10,9
  864b68:	34 0b 00 05 	mvi r11,5
  864b6c:	34 0c 00 19 	mvi r12,25
  864b70:	b0 80 28 00 	sextb r5,r4
  864b74:	20 a4 00 ff 	andi r4,r5,0xff
  864b78:	34 87 ff d0 	addi r7,r4,-48
  864b7c:	34 88 ff 9f 	addi r8,r4,-97
  864b80:	20 e7 00 ff 	andi r7,r7,0xff
  864b84:	88 c3 48 00 	mul r9,r6,r3
  864b88:	21 08 00 ff 	andi r8,r8,0xff
  864b8c:	34 a5 ff d0 	addi r5,r5,-48
  864b90:	51 47 00 10 	bgeu r10,r7,864bd0 <strtoul+0x94>
  864b94:	34 85 ff bf 	addi r5,r4,-65
  864b98:	20 a5 00 ff 	andi r5,r5,0xff
  864b9c:	34 87 ff e0 	addi r7,r4,-32
  864ba0:	51 68 00 0a 	bgeu r11,r8,864bc8 <strtoul+0x8c>
  864ba4:	51 65 00 08 	bgeu r11,r5,864bc4 <strtoul+0x88>
  864ba8:	44 40 00 02 	be r2,r0,864bb0 <strtoul+0x74>
  864bac:	58 41 00 00 	sw (r2+0),r1
  864bb0:	b8 c0 08 00 	mv r1,r6
  864bb4:	2b 8b 00 08 	lw r11,(sp+8)
  864bb8:	2b 8c 00 04 	lw r12,(sp+4)
  864bbc:	37 9c 00 08 	addi sp,sp,8
  864bc0:	c3 a0 00 00 	ret
  864bc4:	55 0c 00 02 	bgu r8,r12,864bcc <strtoul+0x90>
  864bc8:	20 e4 00 ff 	andi r4,r7,0xff
  864bcc:	34 85 ff c9 	addi r5,r4,-55
  864bd0:	54 65 00 02 	bgu r3,r5,864bd8 <strtoul+0x9c>
  864bd4:	e3 ff ff f5 	bi 864ba8 <strtoul+0x6c>
  864bd8:	34 21 00 01 	addi r1,r1,1
  864bdc:	40 24 00 00 	lbu r4,(r1+0)
  864be0:	b4 a9 30 00 	add r6,r5,r9
  864be4:	e3 ff ff e3 	bi 864b70 <strtoul+0x34>
  864be8:	34 04 00 10 	mvi r4,16
  864bec:	44 64 00 03 	be r3,r4,864bf8 <strtoul+0xbc>
  864bf0:	40 24 00 00 	lbu r4,(r1+0)
  864bf4:	e3 ff ff db 	bi 864b60 <strtoul+0x24>
  864bf8:	40 24 00 00 	lbu r4,(r1+0)
  864bfc:	34 05 00 30 	mvi r5,48
  864c00:	b0 80 30 00 	sextb r6,r4
  864c04:	5c c5 ff d7 	bne r6,r5,864b60 <strtoul+0x24>
  864c08:	40 25 00 01 	lbu r5,(r1+1)
  864c0c:	34 06 00 19 	mvi r6,25
  864c10:	34 a7 ff 9f 	addi r7,r5,-97
  864c14:	20 e7 00 ff 	andi r7,r7,0xff
  864c18:	54 e6 00 03 	bgu r7,r6,864c24 <strtoul+0xe8>
  864c1c:	34 a5 ff e0 	addi r5,r5,-32
  864c20:	20 a5 00 ff 	andi r5,r5,0xff
  864c24:	34 06 00 58 	mvi r6,88
  864c28:	5c a6 ff ce 	bne r5,r6,864b60 <strtoul+0x24>
  864c2c:	34 21 00 02 	addi r1,r1,2
  864c30:	40 24 00 00 	lbu r4,(r1+0)
  864c34:	e3 ff ff cb 	bi 864b60 <strtoul+0x24>
  864c38:	34 21 00 01 	addi r1,r1,1
  864c3c:	40 23 00 00 	lbu r3,(r1+0)
  864c40:	34 04 00 19 	mvi r4,25
  864c44:	34 65 ff 9f 	addi r5,r3,-97
  864c48:	20 a5 00 ff 	andi r5,r5,0xff
  864c4c:	54 a4 00 03 	bgu r5,r4,864c58 <strtoul+0x11c>
  864c50:	34 63 ff e0 	addi r3,r3,-32
  864c54:	20 63 00 ff 	andi r3,r3,0xff
  864c58:	34 04 00 58 	mvi r4,88
  864c5c:	44 64 00 04 	be r3,r4,864c6c <strtoul+0x130>
  864c60:	34 03 00 08 	mvi r3,8
  864c64:	40 24 00 00 	lbu r4,(r1+0)
  864c68:	e3 ff ff be 	bi 864b60 <strtoul+0x24>
  864c6c:	40 23 00 01 	lbu r3,(r1+1)
  864c70:	34 06 00 09 	mvi r6,9
  864c74:	34 24 00 01 	addi r4,r1,1
  864c78:	34 65 ff d0 	addi r5,r3,-48
  864c7c:	20 a5 00 ff 	andi r5,r5,0xff
  864c80:	50 c5 00 08 	bgeu r6,r5,864ca0 <strtoul+0x164>
  864c84:	34 66 ff 9f 	addi r6,r3,-97
  864c88:	20 c6 00 ff 	andi r6,r6,0xff
  864c8c:	34 05 00 05 	mvi r5,5
  864c90:	50 a6 00 08 	bgeu r5,r6,864cb0 <strtoul+0x174>
  864c94:	34 63 ff bf 	addi r3,r3,-65
  864c98:	20 63 00 ff 	andi r3,r3,0xff
  864c9c:	54 65 00 09 	bgu r3,r5,864cc0 <strtoul+0x184>
  864ca0:	b8 80 08 00 	mv r1,r4
  864ca4:	34 03 00 10 	mvi r3,16
  864ca8:	40 84 00 00 	lbu r4,(r4+0)
  864cac:	e3 ff ff ad 	bi 864b60 <strtoul+0x24>
  864cb0:	b8 80 08 00 	mv r1,r4
  864cb4:	34 03 00 10 	mvi r3,16
  864cb8:	40 24 00 00 	lbu r4,(r1+0)
  864cbc:	e3 ff ff a9 	bi 864b60 <strtoul+0x24>
  864cc0:	40 24 00 00 	lbu r4,(r1+0)
  864cc4:	34 03 00 08 	mvi r3,8
  864cc8:	e3 ff ff a6 	bi 864b60 <strtoul+0x24>

00864ccc <strtol>:
  864ccc:	37 9c ff fc 	addi sp,sp,-4
  864cd0:	5b 9d 00 04 	sw (sp+4),ra
  864cd4:	10 26 00 00 	lb r6,(r1+0)
  864cd8:	34 05 00 2d 	mvi r5,45
  864cdc:	44 c5 00 05 	be r6,r5,864cf0 <strtol+0x24>
  864ce0:	fb ff ff 97 	calli 864b3c <strtoul>
  864ce4:	2b 9d 00 04 	lw ra,(sp+4)
  864ce8:	37 9c 00 04 	addi sp,sp,4
  864cec:	c3 a0 00 00 	ret
  864cf0:	34 21 00 01 	addi r1,r1,1
  864cf4:	fb ff ff 92 	calli 864b3c <strtoul>
  864cf8:	c8 01 08 00 	sub r1,r0,r1
  864cfc:	2b 9d 00 04 	lw ra,(sp+4)
  864d00:	37 9c 00 04 	addi sp,sp,4
  864d04:	c3 a0 00 00 	ret

00864d08 <skip_atoi>:
  864d08:	28 22 00 00 	lw r2,(r1+0)
  864d0c:	34 04 00 09 	mvi r4,9
  864d10:	b8 20 38 00 	mv r7,r1
  864d14:	10 43 00 00 	lb r3,(r2+0)
  864d18:	34 01 00 00 	mvi r1,0
  864d1c:	34 63 ff d0 	addi r3,r3,-48
  864d20:	20 65 00 ff 	andi r5,r3,0xff
  864d24:	54 a4 00 0c 	bgu r5,r4,864d54 <skip_atoi+0x4c>
  864d28:	34 08 00 09 	mvi r8,9
  864d2c:	34 42 00 01 	addi r2,r2,1
  864d30:	58 e2 00 00 	sw (r7+0),r2
  864d34:	3c 26 00 01 	sli r6,r1,1
  864d38:	3c 25 00 03 	sli r5,r1,3
  864d3c:	10 44 00 00 	lb r4,(r2+0)
  864d40:	b4 c5 28 00 	add r5,r6,r5
  864d44:	b4 65 08 00 	add r1,r3,r5
  864d48:	34 83 ff d0 	addi r3,r4,-48
  864d4c:	20 64 00 ff 	andi r4,r3,0xff
  864d50:	51 04 ff f7 	bgeu r8,r4,864d2c <skip_atoi+0x24>
  864d54:	c3 a0 00 00 	ret

00864d58 <number>:
  864d58:	37 9c ff a0 	addi sp,sp,-96
  864d5c:	5b 8b 00 1c 	sw (sp+28),r11
  864d60:	5b 8c 00 18 	sw (sp+24),r12
  864d64:	5b 8d 00 14 	sw (sp+20),r13
  864d68:	5b 8e 00 10 	sw (sp+16),r14
  864d6c:	5b 8f 00 0c 	sw (sp+12),r15
  864d70:	5b 90 00 08 	sw (sp+8),r16
  864d74:	5b 91 00 04 	sw (sp+4),r17
  864d78:	20 e8 00 40 	andi r8,r7,0x40
  864d7c:	45 00 00 63 	be r8,r0,864f08 <number+0x1b0>
  864d80:	78 0e 00 86 	mvhi r14,0x86
  864d84:	78 0b 00 86 	mvhi r11,0x86
  864d88:	39 ce e8 4d 	ori r14,r14,0xe84d
  864d8c:	39 6b e8 2c 	ori r11,r11,0xe82c
  864d90:	20 e8 00 10 	andi r8,r7,0x10
  864d94:	45 00 00 03 	be r8,r0,864da0 <number+0x48>
  864d98:	34 08 ff fe 	mvi r8,-2
  864d9c:	a0 e8 38 00 	and r7,r7,r8
  864da0:	34 89 ff fe 	addi r9,r4,-2
  864da4:	34 08 00 22 	mvi r8,34
  864da8:	55 28 00 79 	bgu r9,r8,864f8c <number+0x234>
  864dac:	20 ed 00 01 	andi r13,r7,0x1
  864db0:	65 ad 00 00 	cmpei r13,r13,0
  864db4:	34 08 ff f0 	mvi r8,-16
  864db8:	c8 0d 68 00 	sub r13,r0,r13
  864dbc:	a1 a8 68 00 	and r13,r13,r8
  864dc0:	20 e8 00 02 	andi r8,r7,0x2
  864dc4:	35 ad 00 30 	addi r13,r13,48
  864dc8:	34 0f 00 00 	mvi r15,0
  864dcc:	45 00 00 05 	be r8,r0,864de0 <number+0x88>
  864dd0:	4c 60 00 53 	bge r3,r0,864f1c <number+0x1c4>
  864dd4:	c8 03 18 00 	sub r3,r0,r3
  864dd8:	34 a5 ff ff 	addi r5,r5,-1
  864ddc:	34 0f 00 2d 	mvi r15,45
  864de0:	20 f0 00 20 	andi r16,r7,0x20
  864de4:	46 00 00 05 	be r16,r0,864df8 <number+0xa0>
  864de8:	34 08 00 10 	mvi r8,16
  864dec:	44 88 00 82 	be r4,r8,864ff4 <number+0x29c>
  864df0:	64 88 00 08 	cmpei r8,r4,8
  864df4:	c8 a8 28 00 	sub r5,r5,r8
  864df8:	34 08 00 00 	mvi r8,0
  864dfc:	37 8c 00 20 	addi r12,sp,32
  864e00:	5c 60 00 38 	bne r3,r0,864ee0 <number+0x188>
  864e04:	34 03 00 30 	mvi r3,48
  864e08:	33 83 00 20 	sb (sp+32),r3
  864e0c:	34 08 00 01 	mvi r8,1
  864e10:	34 03 00 00 	mvi r3,0
  864e14:	b9 00 50 00 	mv r10,r8
  864e18:	4d 06 00 02 	bge r8,r6,864e20 <number+0xc8>
  864e1c:	b8 c0 50 00 	mv r10,r6
  864e20:	20 e6 00 11 	andi r6,r7,0x11
  864e24:	c8 aa 48 00 	sub r9,r5,r10
  864e28:	5c c0 00 0e 	bne r6,r0,864e60 <number+0x108>
  864e2c:	35 31 ff ff 	addi r17,r9,-1
  864e30:	4c c9 00 7a 	bge r6,r9,865018 <number+0x2c0>
  864e34:	ba 20 30 00 	mv r6,r17
  864e38:	b8 20 28 00 	mv r5,r1
  864e3c:	34 0c 00 20 	mvi r12,32
  864e40:	34 0b ff ff 	mvi r11,-1
  864e44:	34 c6 ff ff 	addi r6,r6,-1
  864e48:	50 a2 00 02 	bgeu r5,r2,864e50 <number+0xf8>
  864e4c:	30 ac 00 00 	sb (r5+0),r12
  864e50:	34 a5 00 01 	addi r5,r5,1
  864e54:	5c cb ff fc 	bne r6,r11,864e44 <number+0xec>
  864e58:	b4 29 08 00 	add r1,r1,r9
  864e5c:	ca 29 48 00 	sub r9,r17,r9
  864e60:	45 e0 00 04 	be r15,r0,864e70 <number+0x118>
  864e64:	50 22 00 02 	bgeu r1,r2,864e6c <number+0x114>
  864e68:	30 2f 00 00 	sb (r1+0),r15
  864e6c:	34 21 00 01 	addi r1,r1,1
  864e70:	46 00 00 05 	be r16,r0,864e84 <number+0x12c>
  864e74:	34 05 00 08 	mvi r5,8
  864e78:	44 85 00 61 	be r4,r5,864ffc <number+0x2a4>
  864e7c:	34 05 00 10 	mvi r5,16
  864e80:	44 85 00 54 	be r4,r5,864fd0 <number+0x278>
  864e84:	20 e7 00 10 	andi r7,r7,0x10
  864e88:	5c e0 00 0c 	bne r7,r0,864eb8 <number+0x160>
  864e8c:	35 25 ff ff 	addi r5,r9,-1
  864e90:	4c e9 00 60 	bge r7,r9,865010 <number+0x2b8>
  864e94:	b8 20 20 00 	mv r4,r1
  864e98:	34 06 ff ff 	mvi r6,-1
  864e9c:	34 a5 ff ff 	addi r5,r5,-1
  864ea0:	50 82 00 02 	bgeu r4,r2,864ea8 <number+0x150>
  864ea4:	30 8d 00 00 	sb (r4+0),r13
  864ea8:	34 84 00 01 	addi r4,r4,1
  864eac:	5c a6 ff fc 	bne r5,r6,864e9c <number+0x144>
  864eb0:	b4 29 08 00 	add r1,r1,r9
  864eb4:	34 09 ff ff 	mvi r9,-1
  864eb8:	4d 0a 00 22 	bge r8,r10,864f40 <number+0x1e8>
  864ebc:	35 45 ff ff 	addi r5,r10,-1
  864ec0:	b8 20 20 00 	mv r4,r1
  864ec4:	34 06 00 30 	mvi r6,48
  864ec8:	50 82 00 02 	bgeu r4,r2,864ed0 <number+0x178>
  864ecc:	30 86 00 00 	sb (r4+0),r6
  864ed0:	34 84 00 01 	addi r4,r4,1
  864ed4:	4d 05 00 19 	bge r8,r5,864f38 <number+0x1e0>
  864ed8:	34 a5 ff ff 	addi r5,r5,-1
  864edc:	e3 ff ff fb 	bi 864ec8 <number+0x170>
  864ee0:	c4 64 48 00 	modu r9,r3,r4
  864ee4:	b5 88 50 00 	add r10,r12,r8
  864ee8:	b5 69 48 00 	add r9,r11,r9
  864eec:	41 29 00 00 	lbu r9,(r9+0)
  864ef0:	8c 64 18 00 	divu r3,r3,r4
  864ef4:	35 08 00 01 	addi r8,r8,1
  864ef8:	31 49 00 00 	sb (r10+0),r9
  864efc:	5c 60 ff f9 	bne r3,r0,864ee0 <number+0x188>
  864f00:	35 03 ff ff 	addi r3,r8,-1
  864f04:	e3 ff ff c4 	bi 864e14 <number+0xbc>
  864f08:	78 0e 00 86 	mvhi r14,0x86
  864f0c:	78 0b 00 86 	mvhi r11,0x86
  864f10:	39 ce e8 75 	ori r14,r14,0xe875
  864f14:	39 6b e8 54 	ori r11,r11,0xe854
  864f18:	e3 ff ff 9e 	bi 864d90 <number+0x38>
  864f1c:	20 e8 00 04 	andi r8,r7,0x4
  864f20:	5d 00 00 27 	bne r8,r0,864fbc <number+0x264>
  864f24:	20 e8 00 08 	andi r8,r7,0x8
  864f28:	45 0f ff ae 	be r8,r15,864de0 <number+0x88>
  864f2c:	34 a5 ff ff 	addi r5,r5,-1
  864f30:	34 0f 00 20 	mvi r15,32
  864f34:	e3 ff ff ab 	bi 864de0 <number+0x88>
  864f38:	c9 48 40 00 	sub r8,r10,r8
  864f3c:	b4 28 08 00 	add r1,r1,r8
  864f40:	37 85 00 20 	addi r5,sp,32
  864f44:	e0 00 00 02 	bi 864f4c <number+0x1f4>
  864f48:	34 63 ff ff 	addi r3,r3,-1
  864f4c:	b4 a3 20 00 	add r4,r5,r3
  864f50:	50 22 00 03 	bgeu r1,r2,864f5c <number+0x204>
  864f54:	40 84 00 00 	lbu r4,(r4+0)
  864f58:	30 24 00 00 	sb (r1+0),r4
  864f5c:	34 21 00 01 	addi r1,r1,1
  864f60:	5c 60 ff fa 	bne r3,r0,864f48 <number+0x1f0>
  864f64:	b8 20 28 00 	mv r5,r1
  864f68:	4c 69 00 0a 	bge r3,r9,864f90 <number+0x238>
  864f6c:	35 23 ff ff 	addi r3,r9,-1
  864f70:	34 04 00 20 	mvi r4,32
  864f74:	50 22 00 02 	bgeu r1,r2,864f7c <number+0x224>
  864f78:	30 24 00 00 	sb (r1+0),r4
  864f7c:	34 21 00 01 	addi r1,r1,1
  864f80:	44 60 00 0d 	be r3,r0,864fb4 <number+0x25c>
  864f84:	34 63 ff ff 	addi r3,r3,-1
  864f88:	e3 ff ff fb 	bi 864f74 <number+0x21c>
  864f8c:	34 01 00 00 	mvi r1,0
  864f90:	2b 8b 00 1c 	lw r11,(sp+28)
  864f94:	2b 8c 00 18 	lw r12,(sp+24)
  864f98:	2b 8d 00 14 	lw r13,(sp+20)
  864f9c:	2b 8e 00 10 	lw r14,(sp+16)
  864fa0:	2b 8f 00 0c 	lw r15,(sp+12)
  864fa4:	2b 90 00 08 	lw r16,(sp+8)
  864fa8:	2b 91 00 04 	lw r17,(sp+4)
  864fac:	37 9c 00 60 	addi sp,sp,96
  864fb0:	c3 a0 00 00 	ret
  864fb4:	b4 a9 08 00 	add r1,r5,r9
  864fb8:	e3 ff ff f6 	bi 864f90 <number+0x238>
  864fbc:	20 f0 00 20 	andi r16,r7,0x20
  864fc0:	34 a5 ff ff 	addi r5,r5,-1
  864fc4:	34 0f 00 2b 	mvi r15,43
  864fc8:	46 00 ff 8c 	be r16,r0,864df8 <number+0xa0>
  864fcc:	e3 ff ff 87 	bi 864de8 <number+0x90>
  864fd0:	50 22 00 03 	bgeu r1,r2,864fdc <number+0x284>
  864fd4:	34 04 00 30 	mvi r4,48
  864fd8:	30 24 00 00 	sb (r1+0),r4
  864fdc:	34 24 00 01 	addi r4,r1,1
  864fe0:	50 82 00 03 	bgeu r4,r2,864fec <number+0x294>
  864fe4:	41 c5 00 00 	lbu r5,(r14+0)
  864fe8:	30 25 00 01 	sb (r1+1),r5
  864fec:	34 81 00 01 	addi r1,r4,1
  864ff0:	e3 ff ff a5 	bi 864e84 <number+0x12c>
  864ff4:	34 a5 ff fe 	addi r5,r5,-2
  864ff8:	e3 ff ff 80 	bi 864df8 <number+0xa0>
  864ffc:	50 22 00 03 	bgeu r1,r2,865008 <number+0x2b0>
  865000:	34 04 00 30 	mvi r4,48
  865004:	30 24 00 00 	sb (r1+0),r4
  865008:	34 21 00 01 	addi r1,r1,1
  86500c:	e3 ff ff 9e 	bi 864e84 <number+0x12c>
  865010:	b8 a0 48 00 	mv r9,r5
  865014:	e3 ff ff a9 	bi 864eb8 <number+0x160>
  865018:	ba 20 48 00 	mv r9,r17
  86501c:	e3 ff ff 91 	bi 864e60 <number+0x108>

00865020 <vscnprintf>:
  865020:	37 9c ff f8 	addi sp,sp,-8
  865024:	5b 8b 00 08 	sw (sp+8),r11
  865028:	5b 9d 00 04 	sw (sp+4),ra
  86502c:	b8 40 58 00 	mv r11,r2
  865030:	f8 00 06 15 	calli 866884 <vsnprintf>
  865034:	49 61 00 02 	bg r11,r1,86503c <vscnprintf+0x1c>
  865038:	35 61 ff ff 	addi r1,r11,-1
  86503c:	2b 9d 00 04 	lw ra,(sp+4)
  865040:	2b 8b 00 08 	lw r11,(sp+8)
  865044:	37 9c 00 08 	addi sp,sp,8
  865048:	c3 a0 00 00 	ret

0086504c <snprintf>:
  86504c:	37 9c ff e4 	addi sp,sp,-28
  865050:	5b 9d 00 04 	sw (sp+4),ra
  865054:	5b 84 00 0c 	sw (sp+12),r4
  865058:	37 84 00 0c 	addi r4,sp,12
  86505c:	5b 83 00 08 	sw (sp+8),r3
  865060:	5b 85 00 10 	sw (sp+16),r5
  865064:	5b 86 00 14 	sw (sp+20),r6
  865068:	5b 87 00 18 	sw (sp+24),r7
  86506c:	5b 88 00 1c 	sw (sp+28),r8
  865070:	f8 00 06 05 	calli 866884 <vsnprintf>
  865074:	2b 9d 00 04 	lw ra,(sp+4)
  865078:	37 9c 00 1c 	addi sp,sp,28
  86507c:	c3 a0 00 00 	ret

00865080 <scnprintf>:
  865080:	37 9c ff e0 	addi sp,sp,-32
  865084:	5b 8b 00 08 	sw (sp+8),r11
  865088:	5b 9d 00 04 	sw (sp+4),ra
  86508c:	5b 84 00 10 	sw (sp+16),r4
  865090:	37 84 00 10 	addi r4,sp,16
  865094:	b8 40 58 00 	mv r11,r2
  865098:	5b 83 00 0c 	sw (sp+12),r3
  86509c:	5b 85 00 14 	sw (sp+20),r5
  8650a0:	5b 86 00 18 	sw (sp+24),r6
  8650a4:	5b 87 00 1c 	sw (sp+28),r7
  8650a8:	5b 88 00 20 	sw (sp+32),r8
  8650ac:	f8 00 05 f6 	calli 866884 <vsnprintf>
  8650b0:	49 61 00 02 	bg r11,r1,8650b8 <scnprintf+0x38>
  8650b4:	35 61 ff ff 	addi r1,r11,-1
  8650b8:	2b 9d 00 04 	lw ra,(sp+4)
  8650bc:	2b 8b 00 08 	lw r11,(sp+8)
  8650c0:	37 9c 00 20 	addi sp,sp,32
  8650c4:	c3 a0 00 00 	ret

008650c8 <vsprintf>:
  8650c8:	37 9c ff fc 	addi sp,sp,-4
  8650cc:	5b 9d 00 04 	sw (sp+4),ra
  8650d0:	78 04 00 86 	mvhi r4,0x86
  8650d4:	38 84 e5 c4 	ori r4,r4,0xe5c4
  8650d8:	b8 40 28 00 	mv r5,r2
  8650dc:	28 82 00 00 	lw r2,(r4+0)
  8650e0:	b8 60 20 00 	mv r4,r3
  8650e4:	b8 a0 18 00 	mv r3,r5
  8650e8:	f8 00 05 e7 	calli 866884 <vsnprintf>
  8650ec:	2b 9d 00 04 	lw ra,(sp+4)
  8650f0:	37 9c 00 04 	addi sp,sp,4
  8650f4:	c3 a0 00 00 	ret

008650f8 <sprintf>:
  8650f8:	37 9c ff e0 	addi sp,sp,-32
  8650fc:	5b 9d 00 04 	sw (sp+4),ra
  865100:	78 0a 00 86 	mvhi r10,0x86
  865104:	39 4a e5 c4 	ori r10,r10,0xe5c4
  865108:	b8 40 48 00 	mv r9,r2
  86510c:	5b 82 00 08 	sw (sp+8),r2
  865110:	29 42 00 00 	lw r2,(r10+0)
  865114:	5b 83 00 0c 	sw (sp+12),r3
  865118:	5b 84 00 10 	sw (sp+16),r4
  86511c:	b9 20 18 00 	mv r3,r9
  865120:	37 84 00 0c 	addi r4,sp,12
  865124:	5b 85 00 14 	sw (sp+20),r5
  865128:	5b 86 00 18 	sw (sp+24),r6
  86512c:	5b 87 00 1c 	sw (sp+28),r7
  865130:	5b 88 00 20 	sw (sp+32),r8
  865134:	f8 00 05 d4 	calli 866884 <vsnprintf>
  865138:	2b 9d 00 04 	lw ra,(sp+4)
  86513c:	37 9c 00 20 	addi sp,sp,32
  865140:	c3 a0 00 00 	ret

00865144 <rand>:
  865144:	78 02 40 00 	mvhi r2,0x4000
  865148:	38 42 00 00 	ori r2,r2,0x0
  86514c:	28 41 00 00 	lw r1,(r2+0)
  865150:	78 04 00 86 	mvhi r4,0x86
  865154:	38 84 e8 28 	ori r4,r4,0xe828
  865158:	3c 23 00 07 	sli r3,r1,7
  86515c:	b4 61 08 00 	add r1,r3,r1
  865160:	28 83 00 00 	lw r3,(r4+0)
  865164:	b4 23 08 00 	add r1,r1,r3
  865168:	58 41 00 00 	sw (r2+0),r1
  86516c:	c3 a0 00 00 	ret

00865170 <crc16>:
  865170:	b8 20 40 00 	mv r8,r1
  865174:	34 01 00 00 	mvi r1,0
  865178:	4c 02 00 10 	bge r0,r2,8651b8 <crc16+0x48>
  86517c:	78 07 00 87 	mvhi r7,0x87
  865180:	34 03 00 00 	mvi r3,0
  865184:	38 e7 15 a0 	ori r7,r7,0x15a0
  865188:	b5 03 20 00 	add r4,r8,r3
  86518c:	40 85 00 00 	lbu r5,(r4+0)
  865190:	00 26 00 08 	srui r6,r1,8
  865194:	3c 24 00 08 	sli r4,r1,8
  865198:	98 c5 28 00 	xor r5,r6,r5
  86519c:	3c a5 00 02 	sli r5,r5,2
  8651a0:	20 84 ff ff 	andi r4,r4,0xffff
  8651a4:	b4 e5 28 00 	add r5,r7,r5
  8651a8:	2c a5 00 02 	lhu r5,(r5+2)
  8651ac:	34 63 00 01 	addi r3,r3,1
  8651b0:	98 a4 08 00 	xor r1,r5,r4
  8651b4:	5c 62 ff f5 	bne r3,r2,865188 <crc16+0x18>
  8651b8:	c3 a0 00 00 	ret

008651bc <crc32>:
  8651bc:	37 9c ff f4 	addi sp,sp,-12
  8651c0:	5b 8b 00 0c 	sw (sp+12),r11
  8651c4:	5b 8c 00 08 	sw (sp+8),r12
  8651c8:	5b 8d 00 04 	sw (sp+4),r13
  8651cc:	34 03 00 07 	mvi r3,7
  8651d0:	34 05 ff ff 	mvi r5,-1
  8651d4:	50 62 00 4f 	bgeu r3,r2,865310 <crc32+0x154>
  8651d8:	78 04 00 86 	mvhi r4,0x86
  8651dc:	b8 40 30 00 	mv r6,r2
  8651e0:	b8 20 18 00 	mv r3,r1
  8651e4:	38 84 e8 7c 	ori r4,r4,0xe87c
  8651e8:	34 0d 00 07 	mvi r13,7
  8651ec:	40 67 00 00 	lbu r7,(r3+0)
  8651f0:	00 a9 00 08 	srui r9,r5,8
  8651f4:	40 68 00 01 	lbu r8,(r3+1)
  8651f8:	98 a7 28 00 	xor r5,r5,r7
  8651fc:	20 a5 00 ff 	andi r5,r5,0xff
  865200:	3c a5 00 02 	sli r5,r5,2
  865204:	40 67 00 02 	lbu r7,(r3+2)
  865208:	b4 85 28 00 	add r5,r4,r5
  86520c:	28 a5 00 00 	lw r5,(r5+0)
  865210:	40 6b 00 03 	lbu r11,(r3+3)
  865214:	40 6a 00 04 	lbu r10,(r3+4)
  865218:	98 a9 28 00 	xor r5,r5,r9
  86521c:	98 a8 40 00 	xor r8,r5,r8
  865220:	21 08 00 ff 	andi r8,r8,0xff
  865224:	3d 08 00 02 	sli r8,r8,2
  865228:	00 a5 00 08 	srui r5,r5,8
  86522c:	b4 88 40 00 	add r8,r4,r8
  865230:	29 0c 00 00 	lw r12,(r8+0)
  865234:	40 69 00 05 	lbu r9,(r3+5)
  865238:	40 68 00 06 	lbu r8,(r3+6)
  86523c:	99 85 28 00 	xor r5,r12,r5
  865240:	98 a7 38 00 	xor r7,r5,r7
  865244:	20 e7 00 ff 	andi r7,r7,0xff
  865248:	3c e7 00 02 	sli r7,r7,2
  86524c:	00 a5 00 08 	srui r5,r5,8
  865250:	b4 87 38 00 	add r7,r4,r7
  865254:	28 ec 00 00 	lw r12,(r7+0)
  865258:	40 67 00 07 	lbu r7,(r3+7)
  86525c:	34 c6 ff f8 	addi r6,r6,-8
  865260:	99 85 28 00 	xor r5,r12,r5
  865264:	98 ab 58 00 	xor r11,r5,r11
  865268:	21 6b 00 ff 	andi r11,r11,0xff
  86526c:	3d 6b 00 02 	sli r11,r11,2
  865270:	00 a5 00 08 	srui r5,r5,8
  865274:	b4 8b 58 00 	add r11,r4,r11
  865278:	29 6b 00 00 	lw r11,(r11+0)
  86527c:	34 63 00 08 	addi r3,r3,8
  865280:	99 65 28 00 	xor r5,r11,r5
  865284:	98 aa 50 00 	xor r10,r5,r10
  865288:	21 4a 00 ff 	andi r10,r10,0xff
  86528c:	3d 4a 00 02 	sli r10,r10,2
  865290:	00 a5 00 08 	srui r5,r5,8
  865294:	b4 8a 50 00 	add r10,r4,r10
  865298:	29 4a 00 00 	lw r10,(r10+0)
  86529c:	99 45 28 00 	xor r5,r10,r5
  8652a0:	98 a9 48 00 	xor r9,r5,r9
  8652a4:	21 29 00 ff 	andi r9,r9,0xff
  8652a8:	3d 29 00 02 	sli r9,r9,2
  8652ac:	00 a5 00 08 	srui r5,r5,8
  8652b0:	b4 89 48 00 	add r9,r4,r9
  8652b4:	29 29 00 00 	lw r9,(r9+0)
  8652b8:	99 25 28 00 	xor r5,r9,r5
  8652bc:	98 a8 40 00 	xor r8,r5,r8
  8652c0:	21 08 00 ff 	andi r8,r8,0xff
  8652c4:	3d 08 00 02 	sli r8,r8,2
  8652c8:	00 a5 00 08 	srui r5,r5,8
  8652cc:	b4 88 40 00 	add r8,r4,r8
  8652d0:	29 08 00 00 	lw r8,(r8+0)
  8652d4:	99 05 28 00 	xor r5,r8,r5
  8652d8:	98 a7 38 00 	xor r7,r5,r7
  8652dc:	20 e7 00 ff 	andi r7,r7,0xff
  8652e0:	3c e7 00 02 	sli r7,r7,2
  8652e4:	00 a5 00 08 	srui r5,r5,8
  8652e8:	b4 87 38 00 	add r7,r4,r7
  8652ec:	28 e7 00 00 	lw r7,(r7+0)
  8652f0:	98 e5 28 00 	xor r5,r7,r5
  8652f4:	54 cd ff be 	bgu r6,r13,8651ec <crc32+0x30>
  8652f8:	34 42 ff f8 	addi r2,r2,-8
  8652fc:	00 43 00 03 	srui r3,r2,3
  865300:	20 42 00 07 	andi r2,r2,0x7
  865304:	34 63 00 01 	addi r3,r3,1
  865308:	3c 63 00 03 	sli r3,r3,3
  86530c:	b4 23 08 00 	add r1,r1,r3
  865310:	44 40 00 0f 	be r2,r0,86534c <crc32+0x190>
  865314:	78 04 00 86 	mvhi r4,0x86
  865318:	34 03 00 00 	mvi r3,0
  86531c:	38 84 e8 7c 	ori r4,r4,0xe87c
  865320:	b4 23 30 00 	add r6,r1,r3
  865324:	40 c7 00 00 	lbu r7,(r6+0)
  865328:	00 a6 00 08 	srui r6,r5,8
  86532c:	34 63 00 01 	addi r3,r3,1
  865330:	98 a7 28 00 	xor r5,r5,r7
  865334:	20 a5 00 ff 	andi r5,r5,0xff
  865338:	3c a5 00 02 	sli r5,r5,2
  86533c:	b4 85 28 00 	add r5,r4,r5
  865340:	28 a5 00 00 	lw r5,(r5+0)
  865344:	98 a6 28 00 	xor r5,r5,r6
  865348:	5c 43 ff f6 	bne r2,r3,865320 <crc32+0x164>
  86534c:	a4 a0 08 00 	not r1,r5
  865350:	2b 8b 00 0c 	lw r11,(sp+12)
  865354:	2b 8c 00 08 	lw r12,(sp+8)
  865358:	2b 8d 00 04 	lw r13,(sp+4)
  86535c:	37 9c 00 0c 	addi sp,sp,12
  865360:	c3 a0 00 00 	ret

00865364 <console_set_write_hook>:
  865364:	78 02 40 00 	mvhi r2,0x4000
  865368:	38 42 00 04 	ori r2,r2,0x4
  86536c:	58 41 00 00 	sw (r2+0),r1
  865370:	c3 a0 00 00 	ret

00865374 <console_set_read_hook>:
  865374:	78 04 40 00 	mvhi r4,0x4000
  865378:	78 03 40 00 	mvhi r3,0x4000
  86537c:	38 84 00 0c 	ori r4,r4,0xc
  865380:	38 63 00 08 	ori r3,r3,0x8
  865384:	58 81 00 00 	sw (r4+0),r1
  865388:	58 62 00 00 	sw (r3+0),r2
  86538c:	c3 a0 00 00 	ret

00865390 <readchar>:
  865390:	37 9c ff f8 	addi sp,sp,-8
  865394:	5b 8b 00 08 	sw (sp+8),r11
  865398:	5b 9d 00 04 	sw (sp+4),ra
  86539c:	78 0b 40 00 	mvhi r11,0x4000
  8653a0:	39 6b 00 08 	ori r11,r11,0x8
  8653a4:	e0 00 00 03 	bi 8653b0 <readchar+0x20>
  8653a8:	29 62 00 00 	lw r2,(r11+0)
  8653ac:	5c 41 00 08 	bne r2,r1,8653cc <readchar+0x3c>
  8653b0:	f8 00 04 ca 	calli 8666d8 <uart_read_nonblock>
  8653b4:	44 20 ff fd 	be r1,r0,8653a8 <readchar+0x18>
  8653b8:	f8 00 04 b7 	calli 866694 <uart_read>
  8653bc:	2b 9d 00 04 	lw ra,(sp+4)
  8653c0:	2b 8b 00 08 	lw r11,(sp+8)
  8653c4:	37 9c 00 08 	addi sp,sp,8
  8653c8:	c3 a0 00 00 	ret
  8653cc:	d8 40 00 00 	call r2
  8653d0:	44 20 ff f8 	be r1,r0,8653b0 <readchar+0x20>
  8653d4:	78 01 40 00 	mvhi r1,0x4000
  8653d8:	38 21 00 0c 	ori r1,r1,0xc
  8653dc:	28 21 00 00 	lw r1,(r1+0)
  8653e0:	d8 20 00 00 	call r1
  8653e4:	e3 ff ff f6 	bi 8653bc <readchar+0x2c>

008653e8 <readchar_nonblock>:
  8653e8:	37 9c ff fc 	addi sp,sp,-4
  8653ec:	5b 9d 00 04 	sw (sp+4),ra
  8653f0:	f8 00 04 ba 	calli 8666d8 <uart_read_nonblock>
  8653f4:	34 02 00 01 	mvi r2,1
  8653f8:	5c 20 00 08 	bne r1,r0,865418 <readchar_nonblock+0x30>
  8653fc:	78 01 40 00 	mvhi r1,0x4000
  865400:	38 21 00 08 	ori r1,r1,0x8
  865404:	28 21 00 00 	lw r1,(r1+0)
  865408:	34 02 00 00 	mvi r2,0
  86540c:	44 22 00 03 	be r1,r2,865418 <readchar_nonblock+0x30>
  865410:	d8 20 00 00 	call r1
  865414:	7c 22 00 00 	cmpnei r2,r1,0
  865418:	b8 40 08 00 	mv r1,r2
  86541c:	2b 9d 00 04 	lw ra,(sp+4)
  865420:	37 9c 00 04 	addi sp,sp,4
  865424:	c3 a0 00 00 	ret

00865428 <puts>:
  865428:	37 9c ff ec 	addi sp,sp,-20
  86542c:	5b 8b 00 14 	sw (sp+20),r11
  865430:	5b 8c 00 10 	sw (sp+16),r12
  865434:	5b 8d 00 0c 	sw (sp+12),r13
  865438:	5b 8e 00 08 	sw (sp+8),r14
  86543c:	5b 9d 00 04 	sw (sp+4),ra
  865440:	b8 20 60 00 	mv r12,r1
  865444:	90 20 70 00 	rcsr r14,IM
  865448:	34 01 00 01 	mvi r1,1
  86544c:	d0 21 00 00 	wcsr IM,r1
  865450:	11 8b 00 00 	lb r11,(r12+0)
  865454:	78 0d 40 00 	mvhi r13,0x4000
  865458:	39 ad 00 04 	ori r13,r13,0x4
  86545c:	45 60 00 0a 	be r11,r0,865484 <puts+0x5c>
  865460:	b9 60 08 00 	mv r1,r11
  865464:	f8 00 04 c0 	calli 866764 <uart_write>
  865468:	29 a2 00 00 	lw r2,(r13+0)
  86546c:	35 8c 00 01 	addi r12,r12,1
  865470:	b9 60 08 00 	mv r1,r11
  865474:	44 40 00 02 	be r2,r0,86547c <puts+0x54>
  865478:	d8 40 00 00 	call r2
  86547c:	11 8b 00 00 	lb r11,(r12+0)
  865480:	5d 60 ff f8 	bne r11,r0,865460 <puts+0x38>
  865484:	34 01 00 0a 	mvi r1,10
  865488:	f8 00 04 b7 	calli 866764 <uart_write>
  86548c:	29 a2 00 00 	lw r2,(r13+0)
  865490:	44 40 00 03 	be r2,r0,86549c <puts+0x74>
  865494:	34 01 00 0a 	mvi r1,10
  865498:	d8 40 00 00 	call r2
  86549c:	d0 2e 00 00 	wcsr IM,r14
  8654a0:	34 01 00 01 	mvi r1,1
  8654a4:	2b 9d 00 04 	lw ra,(sp+4)
  8654a8:	2b 8b 00 14 	lw r11,(sp+20)
  8654ac:	2b 8c 00 10 	lw r12,(sp+16)
  8654b0:	2b 8d 00 0c 	lw r13,(sp+12)
  8654b4:	2b 8e 00 08 	lw r14,(sp+8)
  8654b8:	37 9c 00 14 	addi sp,sp,20
  8654bc:	c3 a0 00 00 	ret

008654c0 <putsnonl>:
  8654c0:	37 9c ff ec 	addi sp,sp,-20
  8654c4:	5b 8b 00 14 	sw (sp+20),r11
  8654c8:	5b 8c 00 10 	sw (sp+16),r12
  8654cc:	5b 8d 00 0c 	sw (sp+12),r13
  8654d0:	5b 8e 00 08 	sw (sp+8),r14
  8654d4:	5b 9d 00 04 	sw (sp+4),ra
  8654d8:	b8 20 60 00 	mv r12,r1
  8654dc:	90 20 70 00 	rcsr r14,IM
  8654e0:	34 01 00 01 	mvi r1,1
  8654e4:	d0 21 00 00 	wcsr IM,r1
  8654e8:	11 8b 00 00 	lb r11,(r12+0)
  8654ec:	45 60 00 0c 	be r11,r0,86551c <putsnonl+0x5c>
  8654f0:	78 0d 40 00 	mvhi r13,0x4000
  8654f4:	39 ad 00 04 	ori r13,r13,0x4
  8654f8:	b9 60 08 00 	mv r1,r11
  8654fc:	f8 00 04 9a 	calli 866764 <uart_write>
  865500:	29 a2 00 00 	lw r2,(r13+0)
  865504:	35 8c 00 01 	addi r12,r12,1
  865508:	b9 60 08 00 	mv r1,r11
  86550c:	44 40 00 02 	be r2,r0,865514 <putsnonl+0x54>
  865510:	d8 40 00 00 	call r2
  865514:	11 8b 00 00 	lb r11,(r12+0)
  865518:	5d 60 ff f8 	bne r11,r0,8654f8 <putsnonl+0x38>
  86551c:	d0 2e 00 00 	wcsr IM,r14
  865520:	2b 9d 00 04 	lw ra,(sp+4)
  865524:	2b 8b 00 14 	lw r11,(sp+20)
  865528:	2b 8c 00 10 	lw r12,(sp+16)
  86552c:	2b 8d 00 0c 	lw r13,(sp+12)
  865530:	2b 8e 00 08 	lw r14,(sp+8)
  865534:	37 9c 00 14 	addi sp,sp,20
  865538:	c3 a0 00 00 	ret

0086553c <printf>:
  86553c:	37 9c fe c8 	addi sp,sp,-312
  865540:	5b 8b 00 18 	sw (sp+24),r11
  865544:	5b 8c 00 14 	sw (sp+20),r12
  865548:	5b 8d 00 10 	sw (sp+16),r13
  86554c:	5b 8e 00 0c 	sw (sp+12),r14
  865550:	5b 8f 00 08 	sw (sp+8),r15
  865554:	5b 9d 00 04 	sw (sp+4),ra
  865558:	b8 20 48 00 	mv r9,r1
  86555c:	37 8c 00 1c 	addi r12,sp,28
  865560:	5b 81 01 1c 	sw (sp+284),r1
  865564:	5b 82 01 20 	sw (sp+288),r2
  865568:	5b 83 01 24 	sw (sp+292),r3
  86556c:	5b 84 01 28 	sw (sp+296),r4
  865570:	b9 80 08 00 	mv r1,r12
  865574:	34 02 01 00 	mvi r2,256
  865578:	b9 20 18 00 	mv r3,r9
  86557c:	37 84 01 20 	addi r4,sp,288
  865580:	5b 85 01 2c 	sw (sp+300),r5
  865584:	5b 86 01 30 	sw (sp+304),r6
  865588:	5b 87 01 34 	sw (sp+308),r7
  86558c:	5b 88 01 38 	sw (sp+312),r8
  865590:	fb ff fe a4 	calli 865020 <vscnprintf>
  865594:	b8 20 70 00 	mv r14,r1
  865598:	b5 81 08 00 	add r1,r12,r1
  86559c:	30 20 00 00 	sb (r1+0),r0
  8655a0:	90 20 78 00 	rcsr r15,IM
  8655a4:	34 01 00 01 	mvi r1,1
  8655a8:	d0 21 00 00 	wcsr IM,r1
  8655ac:	13 8b 00 1c 	lb r11,(sp+28)
  8655b0:	45 60 00 0c 	be r11,r0,8655e0 <printf+0xa4>
  8655b4:	78 0d 40 00 	mvhi r13,0x4000
  8655b8:	39 ad 00 04 	ori r13,r13,0x4
  8655bc:	b9 60 08 00 	mv r1,r11
  8655c0:	f8 00 04 69 	calli 866764 <uart_write>
  8655c4:	29 a2 00 00 	lw r2,(r13+0)
  8655c8:	35 8c 00 01 	addi r12,r12,1
  8655cc:	b9 60 08 00 	mv r1,r11
  8655d0:	44 40 00 02 	be r2,r0,8655d8 <printf+0x9c>
  8655d4:	d8 40 00 00 	call r2
  8655d8:	11 8b 00 00 	lb r11,(r12+0)
  8655dc:	5d 60 ff f8 	bne r11,r0,8655bc <printf+0x80>
  8655e0:	d0 2f 00 00 	wcsr IM,r15
  8655e4:	b9 c0 08 00 	mv r1,r14
  8655e8:	2b 9d 00 04 	lw ra,(sp+4)
  8655ec:	2b 8b 00 18 	lw r11,(sp+24)
  8655f0:	2b 8c 00 14 	lw r12,(sp+20)
  8655f4:	2b 8d 00 10 	lw r13,(sp+16)
  8655f8:	2b 8e 00 0c 	lw r14,(sp+12)
  8655fc:	2b 8f 00 08 	lw r15,(sp+8)
  865600:	37 9c 01 38 	addi sp,sp,312
  865604:	c3 a0 00 00 	ret

00865608 <fatfs_init>:
  865608:	37 9c fb e8 	addi sp,sp,-1048
  86560c:	5b 8b 00 18 	sw (sp+24),r11
  865610:	5b 8c 00 14 	sw (sp+20),r12
  865614:	5b 8d 00 10 	sw (sp+16),r13
  865618:	5b 8e 00 0c 	sw (sp+12),r14
  86561c:	5b 8f 00 08 	sw (sp+8),r15
  865620:	5b 9d 00 04 	sw (sp+4),ra
  865624:	b8 20 58 00 	mv r11,r1
  865628:	f8 00 06 0f 	calli 866e64 <bd_init>
  86562c:	44 20 00 4d 	be r1,r0,865760 <fatfs_init+0x158>
  865630:	b9 60 08 00 	mv r1,r11
  865634:	f8 00 0f a5 	calli 8694c8 <bd_has_part_table>
  865638:	5c 20 00 56 	bne r1,r0,865790 <fatfs_init+0x188>
  86563c:	78 0b 40 00 	mvhi r11,0x4000
  865640:	39 6b 04 30 	ori r11,r11,0x430
  865644:	59 60 00 00 	sw (r11+0),r0
  865648:	34 01 00 00 	mvi r1,0
  86564c:	37 82 00 1c 	addi r2,sp,28
  865650:	f8 00 0e 11 	calli 868e94 <bd_readblock>
  865654:	44 20 00 8f 	be r1,r0,865890 <fatfs_init+0x288>
  865658:	43 81 00 27 	lbu r1,(sp+39)
  86565c:	43 82 00 28 	lbu r2,(sp+40)
  865660:	3c 21 00 08 	sli r1,r1,8
  865664:	b8 41 08 00 	or r1,r2,r1
  865668:	3c 22 00 08 	sli r2,r1,8
  86566c:	00 21 00 08 	srui r1,r1,8
  865670:	b8 41 10 00 	or r2,r2,r1
  865674:	dc 40 10 00 	sexth r2,r2
  865678:	34 01 02 00 	mvi r1,512
  86567c:	5c 41 00 78 	bne r2,r1,86585c <fatfs_init+0x254>
  865680:	2b 83 00 2c 	lw r3,(sp+44)
  865684:	2f 84 00 32 	lhu r4,(sp+50)
  865688:	43 85 00 2c 	lbu r5,(sp+44)
  86568c:	00 63 00 08 	srui r3,r3,8
  865690:	3c 81 00 08 	sli r1,r4,8
  865694:	00 84 00 08 	srui r4,r4,8
  865698:	20 63 ff ff 	andi r3,r3,0xffff
  86569c:	b8 24 08 00 	or r1,r1,r4
  8656a0:	3c 62 00 08 	sli r2,r3,8
  8656a4:	00 63 00 08 	srui r3,r3,8
  8656a8:	20 21 ff ff 	andi r1,r1,0xffff
  8656ac:	29 6c 00 00 	lw r12,(r11+0)
  8656b0:	b8 43 10 00 	or r2,r2,r3
  8656b4:	88 25 58 00 	mul r11,r1,r5
  8656b8:	20 42 ff ff 	andi r2,r2,0xffff
  8656bc:	35 8c 00 01 	addi r12,r12,1
  8656c0:	43 8f 00 29 	lbu r15,(sp+41)
  8656c4:	00 4d 00 04 	srui r13,r2,4
  8656c8:	b5 6c 58 00 	add r11,r11,r12
  8656cc:	3c 2e 00 08 	sli r14,r1,8
  8656d0:	78 09 40 00 	mvhi r9,0x4000
  8656d4:	78 08 40 00 	mvhi r8,0x4000
  8656d8:	78 07 40 00 	mvhi r7,0x4000
  8656dc:	78 06 40 00 	mvhi r6,0x4000
  8656e0:	78 05 40 00 	mvhi r5,0x4000
  8656e4:	78 04 40 00 	mvhi r4,0x4000
  8656e8:	78 03 40 00 	mvhi r3,0x4000
  8656ec:	78 01 40 00 	mvhi r1,0x4000
  8656f0:	34 0a ff ff 	mvi r10,-1
  8656f4:	38 21 02 20 	ori r1,r1,0x220
  8656f8:	39 29 00 10 	ori r9,r9,0x10
  8656fc:	39 08 02 24 	ori r8,r8,0x224
  865700:	38 e7 02 28 	ori r7,r7,0x228
  865704:	38 c6 02 2c 	ori r6,r6,0x22c
  865708:	38 a5 00 14 	ori r5,r5,0x14
  86570c:	38 84 00 18 	ori r4,r4,0x18
  865710:	38 63 00 1c 	ori r3,r3,0x1c
  865714:	b5 6d 68 00 	add r13,r11,r13
  865718:	58 2d 00 00 	sw (r1+0),r13
  86571c:	59 2f 00 00 	sw (r9+0),r15
  865720:	59 0e 00 00 	sw (r8+0),r14
  865724:	58 ec 00 00 	sw (r7+0),r12
  865728:	58 ca 00 00 	sw (r6+0),r10
  86572c:	58 a2 00 00 	sw (r5+0),r2
  865730:	58 8b 00 00 	sw (r4+0),r11
  865734:	58 6a 00 00 	sw (r3+0),r10
  865738:	34 01 00 01 	mvi r1,1
  86573c:	44 40 00 36 	be r2,r0,865814 <fatfs_init+0x20c>
  865740:	2b 9d 00 04 	lw ra,(sp+4)
  865744:	2b 8b 00 18 	lw r11,(sp+24)
  865748:	2b 8c 00 14 	lw r12,(sp+20)
  86574c:	2b 8d 00 10 	lw r13,(sp+16)
  865750:	2b 8e 00 0c 	lw r14,(sp+12)
  865754:	2b 8f 00 08 	lw r15,(sp+8)
  865758:	37 9c 04 18 	addi sp,sp,1048
  86575c:	c3 a0 00 00 	ret
  865760:	78 01 00 86 	mvhi r1,0x86
  865764:	38 21 ec 7c 	ori r1,r1,0xec7c
  865768:	fb ff ff 75 	calli 86553c <printf>
  86576c:	34 01 00 00 	mvi r1,0
  865770:	2b 9d 00 04 	lw ra,(sp+4)
  865774:	2b 8b 00 18 	lw r11,(sp+24)
  865778:	2b 8c 00 14 	lw r12,(sp+20)
  86577c:	2b 8d 00 10 	lw r13,(sp+16)
  865780:	2b 8e 00 0c 	lw r14,(sp+12)
  865784:	2b 8f 00 08 	lw r15,(sp+8)
  865788:	37 9c 04 18 	addi sp,sp,1048
  86578c:	c3 a0 00 00 	ret
  865790:	34 01 00 00 	mvi r1,0
  865794:	37 82 02 1c 	addi r2,sp,540
  865798:	f8 00 0d bf 	calli 868e94 <bd_readblock>
  86579c:	44 20 00 49 	be r1,r0,8658c0 <fatfs_init+0x2b8>
  8657a0:	43 81 03 de 	lbu r1,(sp+990)
  8657a4:	78 0b 40 00 	mvhi r11,0x4000
  8657a8:	39 6b 04 30 	ori r11,r11,0x430
  8657ac:	64 22 00 0b 	cmpei r2,r1,11
  8657b0:	64 21 00 06 	cmpei r1,r1,6
  8657b4:	34 03 ff ff 	mvi r3,-1
  8657b8:	59 63 00 00 	sw (r11+0),r3
  8657bc:	b8 41 08 00 	or r1,r2,r1
  8657c0:	5c 20 00 45 	bne r1,r0,8658d4 <fatfs_init+0x2cc>
  8657c4:	43 82 03 ee 	lbu r2,(sp+1006)
  8657c8:	64 43 00 0b 	cmpei r3,r2,11
  8657cc:	64 42 00 06 	cmpei r2,r2,6
  8657d0:	b8 62 10 00 	or r2,r3,r2
  8657d4:	5c 41 00 57 	bne r2,r1,865930 <fatfs_init+0x328>
  8657d8:	43 81 03 fe 	lbu r1,(sp+1022)
  8657dc:	64 23 00 0b 	cmpei r3,r1,11
  8657e0:	64 21 00 06 	cmpei r1,r1,6
  8657e4:	b8 61 08 00 	or r1,r3,r1
  8657e8:	5c 22 00 54 	bne r1,r2,865938 <fatfs_init+0x330>
  8657ec:	43 82 04 0e 	lbu r2,(sp+1038)
  8657f0:	64 43 00 0b 	cmpei r3,r2,11
  8657f4:	64 42 00 06 	cmpei r2,r2,6
  8657f8:	b8 62 10 00 	or r2,r3,r2
  8657fc:	5c 41 00 51 	bne r2,r1,865940 <fatfs_init+0x338>
  865800:	78 01 00 86 	mvhi r1,0x86
  865804:	38 21 ec c4 	ori r1,r1,0xecc4
  865808:	fb ff ff 4d 	calli 86553c <printf>
  86580c:	34 01 00 00 	mvi r1,0
  865810:	e3 ff ff cc 	bi 865740 <fatfs_init+0x138>
  865814:	78 01 00 86 	mvhi r1,0x86
  865818:	38 21 ed 38 	ori r1,r1,0xed38
  86581c:	fb ff ff 48 	calli 86553c <printf>
  865820:	78 01 00 86 	mvhi r1,0x86
  865824:	38 21 ed 74 	ori r1,r1,0xed74
  865828:	fb ff ff 45 	calli 86553c <printf>
  86582c:	78 01 00 86 	mvhi r1,0x86
  865830:	38 21 ed b8 	ori r1,r1,0xedb8
  865834:	fb ff ff 42 	calli 86553c <printf>
  865838:	34 01 00 00 	mvi r1,0
  86583c:	2b 9d 00 04 	lw ra,(sp+4)
  865840:	2b 8b 00 18 	lw r11,(sp+24)
  865844:	2b 8c 00 14 	lw r12,(sp+20)
  865848:	2b 8d 00 10 	lw r13,(sp+16)
  86584c:	2b 8e 00 0c 	lw r14,(sp+12)
  865850:	2b 8f 00 08 	lw r15,(sp+8)
  865854:	37 9c 04 18 	addi sp,sp,1048
  865858:	c3 a0 00 00 	ret
  86585c:	78 01 00 86 	mvhi r1,0x86
  865860:	20 42 ff ff 	andi r2,r2,0xffff
  865864:	38 21 ed 08 	ori r1,r1,0xed08
  865868:	fb ff ff 35 	calli 86553c <printf>
  86586c:	34 01 00 00 	mvi r1,0
  865870:	2b 9d 00 04 	lw ra,(sp+4)
  865874:	2b 8b 00 18 	lw r11,(sp+24)
  865878:	2b 8c 00 14 	lw r12,(sp+20)
  86587c:	2b 8d 00 10 	lw r13,(sp+16)
  865880:	2b 8e 00 0c 	lw r14,(sp+12)
  865884:	2b 8f 00 08 	lw r15,(sp+8)
  865888:	37 9c 04 18 	addi sp,sp,1048
  86588c:	c3 a0 00 00 	ret
  865890:	78 01 00 86 	mvhi r1,0x86
  865894:	38 21 ec e4 	ori r1,r1,0xece4
  865898:	fb ff ff 29 	calli 86553c <printf>
  86589c:	34 01 00 00 	mvi r1,0
  8658a0:	2b 9d 00 04 	lw ra,(sp+4)
  8658a4:	2b 8b 00 18 	lw r11,(sp+24)
  8658a8:	2b 8c 00 14 	lw r12,(sp+20)
  8658ac:	2b 8d 00 10 	lw r13,(sp+16)
  8658b0:	2b 8e 00 0c 	lw r14,(sp+12)
  8658b4:	2b 8f 00 08 	lw r15,(sp+8)
  8658b8:	37 9c 04 18 	addi sp,sp,1048
  8658bc:	c3 a0 00 00 	ret
  8658c0:	78 01 00 86 	mvhi r1,0x86
  8658c4:	38 21 ec a8 	ori r1,r1,0xeca8
  8658c8:	fb ff ff 1d 	calli 86553c <printf>
  8658cc:	34 01 00 00 	mvi r1,0
  8658d0:	e3 ff ff 9c 	bi 865740 <fatfs_init+0x138>
  8658d4:	34 01 00 00 	mvi r1,0
  8658d8:	34 22 00 1c 	addi r2,r1,28
  8658dc:	3c 42 00 04 	sli r2,r2,4
  8658e0:	37 81 04 18 	addi r1,sp,1048
  8658e4:	b4 22 10 00 	add r2,r1,r2
  8658e8:	34 42 fe 04 	addi r2,r2,-508
  8658ec:	2c 41 00 06 	lhu r1,(r2+6)
  8658f0:	2c 42 00 08 	lhu r2,(r2+8)
  8658f4:	3c 21 00 10 	sli r1,r1,16
  8658f8:	b8 41 08 00 	or r1,r2,r1
  8658fc:	00 22 00 18 	srui r2,r1,24
  865900:	3c 24 00 18 	sli r4,r1,24
  865904:	20 23 ff 00 	andi r3,r1,0xff00
  865908:	3c 63 00 08 	sli r3,r3,8
  86590c:	00 21 00 08 	srui r1,r1,8
  865910:	b8 44 10 00 	or r2,r2,r4
  865914:	b8 43 10 00 	or r2,r2,r3
  865918:	20 21 ff 00 	andi r1,r1,0xff00
  86591c:	b8 41 08 00 	or r1,r2,r1
  865920:	59 61 00 00 	sw (r11+0),r1
  865924:	34 02 ff ff 	mvi r2,-1
  865928:	5c 22 ff 49 	bne r1,r2,86564c <fatfs_init+0x44>
  86592c:	e3 ff ff b5 	bi 865800 <fatfs_init+0x1f8>
  865930:	34 01 00 01 	mvi r1,1
  865934:	e3 ff ff e9 	bi 8658d8 <fatfs_init+0x2d0>
  865938:	34 01 00 02 	mvi r1,2
  86593c:	e3 ff ff e7 	bi 8658d8 <fatfs_init+0x2d0>
  865940:	34 01 00 03 	mvi r1,3
  865944:	e3 ff ff e5 	bi 8658d8 <fatfs_init+0x2d0>

00865948 <fatfs_list_files>:
  865948:	37 9c ff 24 	addi sp,sp,-220
  86594c:	5b 8b 00 44 	sw (sp+68),r11
  865950:	5b 8c 00 40 	sw (sp+64),r12
  865954:	5b 8d 00 3c 	sw (sp+60),r13
  865958:	5b 8e 00 38 	sw (sp+56),r14
  86595c:	5b 8f 00 34 	sw (sp+52),r15
  865960:	5b 90 00 30 	sw (sp+48),r16
  865964:	5b 91 00 2c 	sw (sp+44),r17
  865968:	5b 92 00 28 	sw (sp+40),r18
  86596c:	5b 93 00 24 	sw (sp+36),r19
  865970:	5b 94 00 20 	sw (sp+32),r20
  865974:	5b 95 00 1c 	sw (sp+28),r21
  865978:	5b 96 00 18 	sw (sp+24),r22
  86597c:	5b 97 00 14 	sw (sp+20),r23
  865980:	5b 98 00 10 	sw (sp+16),r24
  865984:	5b 99 00 0c 	sw (sp+12),r25
  865988:	5b 9b 00 08 	sw (sp+8),fp
  86598c:	5b 9d 00 04 	sw (sp+4),ra
  865990:	78 0e 40 00 	mvhi r14,0x4000
  865994:	39 ce 00 14 	ori r14,r14,0x14
  865998:	29 c3 00 00 	lw r3,(r14+0)
  86599c:	33 80 00 ce 	sb (sp+206),r0
  8659a0:	b8 20 a8 00 	mv r21,r1
  8659a4:	b8 40 b0 00 	mv r22,r2
  8659a8:	34 01 00 01 	mvi r1,1
  8659ac:	4c 03 00 60 	bge r0,r3,865b2c <fatfs_list_files+0x1e4>
  8659b0:	78 01 00 86 	mvhi r1,0x86
  8659b4:	78 14 40 00 	mvhi r20,0x4000
  8659b8:	78 13 40 00 	mvhi r19,0x4000
  8659bc:	78 19 40 00 	mvhi r25,0x4000
  8659c0:	38 21 ed f0 	ori r1,r1,0xedf0
  8659c4:	34 0c 00 00 	mvi r12,0
  8659c8:	34 10 00 00 	mvi r16,0
  8659cc:	3a 94 00 18 	ori r20,r20,0x18
  8659d0:	3a 73 00 1c 	ori r19,r19,0x1c
  8659d4:	3b 39 00 20 	ori r25,r25,0x20
  8659d8:	5b 81 00 48 	sw (sp+72),r1
  8659dc:	34 11 00 0f 	mvi r17,15
  8659e0:	34 17 00 e5 	mvi r23,229
  8659e4:	34 0b 00 20 	mvi r11,32
  8659e8:	37 8d 00 d0 	addi r13,sp,208
  8659ec:	34 18 00 2e 	mvi r24,46
  8659f0:	34 1b 00 82 	mvi fp,130
  8659f4:	34 0f 00 ff 	mvi r15,255
  8659f8:	3d 82 00 05 	sli r2,r12,5
  8659fc:	2a 92 00 00 	lw r18,(r20+0)
  865a00:	00 42 00 09 	srui r2,r2,9
  865a04:	2a 63 00 00 	lw r3,(r19+0)
  865a08:	b4 52 90 00 	add r18,r2,r18
  865a0c:	46 43 00 06 	be r18,r3,865a24 <fatfs_list_files+0xdc>
  865a10:	ba 40 08 00 	mv r1,r18
  865a14:	bb 20 10 00 	mv r2,r25
  865a18:	f8 00 0d 1f 	calli 868e94 <bd_readblock>
  865a1c:	44 20 01 3a 	be r1,r0,865f04 <fatfs_list_files+0x5bc>
  865a20:	5a 72 00 00 	sw (r19+0),r18
  865a24:	21 84 00 0f 	andi r4,r12,0xf
  865a28:	3c 84 00 05 	sli r4,r4,5
  865a2c:	b4 99 20 00 	add r4,r4,r25
  865a30:	40 85 00 0b 	lbu r5,(r4+11)
  865a34:	44 b1 00 51 	be r5,r17,865b78 <fatfs_list_files+0x230>
  865a38:	20 a6 00 18 	andi r6,r5,0x18
  865a3c:	40 85 00 00 	lbu r5,(r4+0)
  865a40:	5c c0 00 36 	bne r6,r0,865b18 <fatfs_list_files+0x1d0>
  865a44:	44 b7 00 35 	be r5,r23,865b18 <fatfs_list_files+0x1d0>
  865a48:	44 a0 00 38 	be r5,r0,865b28 <fatfs_list_files+0x1e0>
  865a4c:	44 ab 00 f8 	be r5,r11,865e2c <fatfs_list_files+0x4e4>
  865a50:	33 85 00 d0 	sb (sp+208),r5
  865a54:	40 85 00 01 	lbu r5,(r4+1)
  865a58:	44 ab 00 fd 	be r5,r11,865e4c <fatfs_list_files+0x504>
  865a5c:	33 85 00 d1 	sb (sp+209),r5
  865a60:	40 85 00 02 	lbu r5,(r4+2)
  865a64:	44 ab 01 02 	be r5,r11,865e6c <fatfs_list_files+0x524>
  865a68:	33 85 00 d2 	sb (sp+210),r5
  865a6c:	40 85 00 03 	lbu r5,(r4+3)
  865a70:	44 ab 01 05 	be r5,r11,865e84 <fatfs_list_files+0x53c>
  865a74:	33 85 00 d3 	sb (sp+211),r5
  865a78:	40 85 00 04 	lbu r5,(r4+4)
  865a7c:	44 ab 01 08 	be r5,r11,865e9c <fatfs_list_files+0x554>
  865a80:	33 85 00 d4 	sb (sp+212),r5
  865a84:	40 85 00 05 	lbu r5,(r4+5)
  865a88:	44 ab 01 0b 	be r5,r11,865eb4 <fatfs_list_files+0x56c>
  865a8c:	33 85 00 d5 	sb (sp+213),r5
  865a90:	40 85 00 06 	lbu r5,(r4+6)
  865a94:	44 ab 01 0e 	be r5,r11,865ecc <fatfs_list_files+0x584>
  865a98:	33 85 00 d6 	sb (sp+214),r5
  865a9c:	40 85 00 07 	lbu r5,(r4+7)
  865aa0:	44 ab 01 11 	be r5,r11,865ee4 <fatfs_list_files+0x59c>
  865aa4:	33 85 00 d7 	sb (sp+215),r5
  865aa8:	34 09 00 0b 	mvi r9,11
  865aac:	34 05 00 0c 	mvi r5,12
  865ab0:	34 08 00 0a 	mvi r8,10
  865ab4:	34 07 00 09 	mvi r7,9
  865ab8:	34 06 00 08 	mvi r6,8
  865abc:	b5 a6 30 00 	add r6,r13,r6
  865ac0:	30 d8 00 00 	sb (r6+0),r24
  865ac4:	40 86 00 08 	lbu r6,(r4+8)
  865ac8:	44 cb 00 d7 	be r6,r11,865e24 <fatfs_list_files+0x4dc>
  865acc:	b5 a7 38 00 	add r7,r13,r7
  865ad0:	30 e6 00 00 	sb (r7+0),r6
  865ad4:	40 86 00 09 	lbu r6,(r4+9)
  865ad8:	44 cb 00 db 	be r6,r11,865e44 <fatfs_list_files+0x4fc>
  865adc:	b5 a8 40 00 	add r8,r13,r8
  865ae0:	31 06 00 00 	sb (r8+0),r6
  865ae4:	40 84 00 0a 	lbu r4,(r4+10)
  865ae8:	44 8b 00 df 	be r4,r11,865e64 <fatfs_list_files+0x51c>
  865aec:	b5 a9 48 00 	add r9,r13,r9
  865af0:	31 24 00 00 	sb (r9+0),r4
  865af4:	b5 a5 28 00 	add r5,r13,r5
  865af8:	30 a0 00 00 	sb (r5+0),r0
  865afc:	b9 a0 10 00 	mv r2,r13
  865b00:	46 00 00 02 	be r16,r0,865b08 <fatfs_list_files+0x1c0>
  865b04:	37 82 00 4c 	addi r2,sp,76
  865b08:	b9 a0 08 00 	mv r1,r13
  865b0c:	ba c0 18 00 	mv r3,r22
  865b10:	da a0 00 00 	call r21
  865b14:	44 20 00 fa 	be r1,r0,865efc <fatfs_list_files+0x5b4>
  865b18:	34 10 00 00 	mvi r16,0
  865b1c:	29 c4 00 00 	lw r4,(r14+0)
  865b20:	35 8c 00 01 	addi r12,r12,1
  865b24:	48 8c ff b5 	bg r4,r12,8659f8 <fatfs_list_files+0xb0>
  865b28:	34 01 00 01 	mvi r1,1
  865b2c:	2b 9d 00 04 	lw ra,(sp+4)
  865b30:	2b 8b 00 44 	lw r11,(sp+68)
  865b34:	2b 8c 00 40 	lw r12,(sp+64)
  865b38:	2b 8d 00 3c 	lw r13,(sp+60)
  865b3c:	2b 8e 00 38 	lw r14,(sp+56)
  865b40:	2b 8f 00 34 	lw r15,(sp+52)
  865b44:	2b 90 00 30 	lw r16,(sp+48)
  865b48:	2b 91 00 2c 	lw r17,(sp+44)
  865b4c:	2b 92 00 28 	lw r18,(sp+40)
  865b50:	2b 93 00 24 	lw r19,(sp+36)
  865b54:	2b 94 00 20 	lw r20,(sp+32)
  865b58:	2b 95 00 1c 	lw r21,(sp+28)
  865b5c:	2b 96 00 18 	lw r22,(sp+24)
  865b60:	2b 97 00 14 	lw r23,(sp+20)
  865b64:	2b 98 00 10 	lw r24,(sp+16)
  865b68:	2b 99 00 0c 	lw r25,(sp+12)
  865b6c:	2b 9b 00 08 	lw fp,(sp+8)
  865b70:	37 9c 00 dc 	addi sp,sp,220
  865b74:	c3 a0 00 00 	ret
  865b78:	40 87 00 00 	lbu r7,(r4+0)
  865b7c:	20 e6 00 3f 	andi r6,r7,0x3f
  865b80:	08 c5 00 0d 	muli r5,r6,13
  865b84:	54 bb ff e6 	bgu r5,fp,865b1c <fatfs_list_files+0x1d4>
  865b88:	40 83 00 01 	lbu r3,(r4+1)
  865b8c:	40 89 00 02 	lbu r9,(r4+2)
  865b90:	34 c2 ff ff 	addi r2,r6,-1
  865b94:	3c 63 00 08 	sli r3,r3,8
  865b98:	08 42 00 0d 	muli r2,r2,13
  865b9c:	b9 23 48 00 	or r9,r9,r3
  865ba0:	3d 28 00 08 	sli r8,r9,8
  865ba4:	01 29 00 08 	srui r9,r9,8
  865ba8:	37 85 00 4c 	addi r5,sp,76
  865bac:	b9 09 40 00 	or r8,r8,r9
  865bb0:	21 08 ff ff 	andi r8,r8,0xffff
  865bb4:	b4 a2 28 00 	add r5,r5,r2
  865bb8:	55 0f 00 04 	bgu r8,r15,865bc8 <fatfs_list_files+0x280>
  865bbc:	30 a8 00 00 	sb (r5+0),r8
  865bc0:	45 00 00 95 	be r8,r0,865e14 <fatfs_list_files+0x4cc>
  865bc4:	34 a5 00 01 	addi r5,r5,1
  865bc8:	40 82 00 03 	lbu r2,(r4+3)
  865bcc:	40 89 00 04 	lbu r9,(r4+4)
  865bd0:	3c 42 00 08 	sli r2,r2,8
  865bd4:	b9 22 48 00 	or r9,r9,r2
  865bd8:	3d 28 00 08 	sli r8,r9,8
  865bdc:	01 29 00 08 	srui r9,r9,8
  865be0:	b9 09 40 00 	or r8,r8,r9
  865be4:	21 08 ff ff 	andi r8,r8,0xffff
  865be8:	55 0f 00 04 	bgu r8,r15,865bf8 <fatfs_list_files+0x2b0>
  865bec:	30 a8 00 00 	sb (r5+0),r8
  865bf0:	45 00 00 89 	be r8,r0,865e14 <fatfs_list_files+0x4cc>
  865bf4:	34 a5 00 01 	addi r5,r5,1
  865bf8:	40 82 00 05 	lbu r2,(r4+5)
  865bfc:	40 89 00 06 	lbu r9,(r4+6)
  865c00:	3c 42 00 08 	sli r2,r2,8
  865c04:	b9 22 48 00 	or r9,r9,r2
  865c08:	3d 28 00 08 	sli r8,r9,8
  865c0c:	01 29 00 08 	srui r9,r9,8
  865c10:	b9 09 40 00 	or r8,r8,r9
  865c14:	21 08 ff ff 	andi r8,r8,0xffff
  865c18:	55 0f 00 04 	bgu r8,r15,865c28 <fatfs_list_files+0x2e0>
  865c1c:	30 a8 00 00 	sb (r5+0),r8
  865c20:	45 00 00 7d 	be r8,r0,865e14 <fatfs_list_files+0x4cc>
  865c24:	34 a5 00 01 	addi r5,r5,1
  865c28:	40 82 00 07 	lbu r2,(r4+7)
  865c2c:	40 89 00 08 	lbu r9,(r4+8)
  865c30:	3c 42 00 08 	sli r2,r2,8
  865c34:	b9 22 48 00 	or r9,r9,r2
  865c38:	3d 28 00 08 	sli r8,r9,8
  865c3c:	01 29 00 08 	srui r9,r9,8
  865c40:	b9 09 40 00 	or r8,r8,r9
  865c44:	21 08 ff ff 	andi r8,r8,0xffff
  865c48:	55 0f 00 04 	bgu r8,r15,865c58 <fatfs_list_files+0x310>
  865c4c:	30 a8 00 00 	sb (r5+0),r8
  865c50:	45 00 00 71 	be r8,r0,865e14 <fatfs_list_files+0x4cc>
  865c54:	34 a5 00 01 	addi r5,r5,1
  865c58:	40 82 00 09 	lbu r2,(r4+9)
  865c5c:	40 83 00 0a 	lbu r3,(r4+10)
  865c60:	3c 42 00 08 	sli r2,r2,8
  865c64:	b8 62 18 00 	or r3,r3,r2
  865c68:	3c 68 00 08 	sli r8,r3,8
  865c6c:	00 63 00 08 	srui r3,r3,8
  865c70:	b9 03 40 00 	or r8,r8,r3
  865c74:	21 08 ff ff 	andi r8,r8,0xffff
  865c78:	55 0f 00 04 	bgu r8,r15,865c88 <fatfs_list_files+0x340>
  865c7c:	30 a8 00 00 	sb (r5+0),r8
  865c80:	45 00 00 65 	be r8,r0,865e14 <fatfs_list_files+0x4cc>
  865c84:	34 a5 00 01 	addi r5,r5,1
  865c88:	40 82 00 0e 	lbu r2,(r4+14)
  865c8c:	40 83 00 0f 	lbu r3,(r4+15)
  865c90:	3c 42 00 08 	sli r2,r2,8
  865c94:	b8 62 18 00 	or r3,r3,r2
  865c98:	3c 68 00 08 	sli r8,r3,8
  865c9c:	00 63 00 08 	srui r3,r3,8
  865ca0:	b9 03 40 00 	or r8,r8,r3
  865ca4:	21 08 ff ff 	andi r8,r8,0xffff
  865ca8:	55 0f 00 04 	bgu r8,r15,865cb8 <fatfs_list_files+0x370>
  865cac:	30 a8 00 00 	sb (r5+0),r8
  865cb0:	45 00 00 59 	be r8,r0,865e14 <fatfs_list_files+0x4cc>
  865cb4:	34 a5 00 01 	addi r5,r5,1
  865cb8:	40 82 00 10 	lbu r2,(r4+16)
  865cbc:	40 83 00 11 	lbu r3,(r4+17)
  865cc0:	3c 42 00 08 	sli r2,r2,8
  865cc4:	b8 62 18 00 	or r3,r3,r2
  865cc8:	3c 68 00 08 	sli r8,r3,8
  865ccc:	00 63 00 08 	srui r3,r3,8
  865cd0:	b9 03 40 00 	or r8,r8,r3
  865cd4:	21 08 ff ff 	andi r8,r8,0xffff
  865cd8:	55 0f 00 04 	bgu r8,r15,865ce8 <fatfs_list_files+0x3a0>
  865cdc:	30 a8 00 00 	sb (r5+0),r8
  865ce0:	45 00 00 4d 	be r8,r0,865e14 <fatfs_list_files+0x4cc>
  865ce4:	34 a5 00 01 	addi r5,r5,1
  865ce8:	40 82 00 12 	lbu r2,(r4+18)
  865cec:	40 83 00 13 	lbu r3,(r4+19)
  865cf0:	3c 42 00 08 	sli r2,r2,8
  865cf4:	b8 62 18 00 	or r3,r3,r2
  865cf8:	3c 68 00 08 	sli r8,r3,8
  865cfc:	00 63 00 08 	srui r3,r3,8
  865d00:	b9 03 40 00 	or r8,r8,r3
  865d04:	21 08 ff ff 	andi r8,r8,0xffff
  865d08:	55 0f 00 04 	bgu r8,r15,865d18 <fatfs_list_files+0x3d0>
  865d0c:	30 a8 00 00 	sb (r5+0),r8
  865d10:	45 00 00 41 	be r8,r0,865e14 <fatfs_list_files+0x4cc>
  865d14:	34 a5 00 01 	addi r5,r5,1
  865d18:	40 82 00 14 	lbu r2,(r4+20)
  865d1c:	40 83 00 15 	lbu r3,(r4+21)
  865d20:	3c 42 00 08 	sli r2,r2,8
  865d24:	b8 62 18 00 	or r3,r3,r2
  865d28:	3c 68 00 08 	sli r8,r3,8
  865d2c:	00 63 00 08 	srui r3,r3,8
  865d30:	b9 03 40 00 	or r8,r8,r3
  865d34:	21 08 ff ff 	andi r8,r8,0xffff
  865d38:	55 0f 00 04 	bgu r8,r15,865d48 <fatfs_list_files+0x400>
  865d3c:	30 a8 00 00 	sb (r5+0),r8
  865d40:	45 00 00 35 	be r8,r0,865e14 <fatfs_list_files+0x4cc>
  865d44:	34 a5 00 01 	addi r5,r5,1
  865d48:	40 82 00 16 	lbu r2,(r4+22)
  865d4c:	40 83 00 17 	lbu r3,(r4+23)
  865d50:	3c 42 00 08 	sli r2,r2,8
  865d54:	b8 62 18 00 	or r3,r3,r2
  865d58:	3c 68 00 08 	sli r8,r3,8
  865d5c:	00 63 00 08 	srui r3,r3,8
  865d60:	b9 03 40 00 	or r8,r8,r3
  865d64:	21 08 ff ff 	andi r8,r8,0xffff
  865d68:	55 0f 00 04 	bgu r8,r15,865d78 <fatfs_list_files+0x430>
  865d6c:	30 a8 00 00 	sb (r5+0),r8
  865d70:	45 00 00 29 	be r8,r0,865e14 <fatfs_list_files+0x4cc>
  865d74:	34 a5 00 01 	addi r5,r5,1
  865d78:	40 82 00 18 	lbu r2,(r4+24)
  865d7c:	40 83 00 19 	lbu r3,(r4+25)
  865d80:	3c 42 00 08 	sli r2,r2,8
  865d84:	b8 62 18 00 	or r3,r3,r2
  865d88:	3c 68 00 08 	sli r8,r3,8
  865d8c:	00 63 00 08 	srui r3,r3,8
  865d90:	b9 03 40 00 	or r8,r8,r3
  865d94:	21 08 ff ff 	andi r8,r8,0xffff
  865d98:	55 0f 00 04 	bgu r8,r15,865da8 <fatfs_list_files+0x460>
  865d9c:	30 a8 00 00 	sb (r5+0),r8
  865da0:	45 00 00 1d 	be r8,r0,865e14 <fatfs_list_files+0x4cc>
  865da4:	34 a5 00 01 	addi r5,r5,1
  865da8:	40 82 00 1c 	lbu r2,(r4+28)
  865dac:	40 83 00 1d 	lbu r3,(r4+29)
  865db0:	3c 42 00 08 	sli r2,r2,8
  865db4:	b8 62 18 00 	or r3,r3,r2
  865db8:	3c 68 00 08 	sli r8,r3,8
  865dbc:	00 63 00 08 	srui r3,r3,8
  865dc0:	b9 03 40 00 	or r8,r8,r3
  865dc4:	21 08 ff ff 	andi r8,r8,0xffff
  865dc8:	55 0f 00 04 	bgu r8,r15,865dd8 <fatfs_list_files+0x490>
  865dcc:	30 a8 00 00 	sb (r5+0),r8
  865dd0:	45 00 00 11 	be r8,r0,865e14 <fatfs_list_files+0x4cc>
  865dd4:	34 a5 00 01 	addi r5,r5,1
  865dd8:	40 82 00 1e 	lbu r2,(r4+30)
  865ddc:	40 83 00 1f 	lbu r3,(r4+31)
  865de0:	3c 42 00 08 	sli r2,r2,8
  865de4:	b8 62 10 00 	or r2,r3,r2
  865de8:	3c 44 00 08 	sli r4,r2,8
  865dec:	00 42 00 08 	srui r2,r2,8
  865df0:	b8 82 20 00 	or r4,r4,r2
  865df4:	20 84 ff ff 	andi r4,r4,0xffff
  865df8:	54 8f 00 04 	bgu r4,r15,865e08 <fatfs_list_files+0x4c0>
  865dfc:	30 a4 00 00 	sb (r5+0),r4
  865e00:	44 80 00 05 	be r4,r0,865e14 <fatfs_list_files+0x4cc>
  865e04:	34 a5 00 01 	addi r5,r5,1
  865e08:	20 e7 00 40 	andi r7,r7,0x40
  865e0c:	44 e0 00 02 	be r7,r0,865e14 <fatfs_list_files+0x4cc>
  865e10:	30 a0 00 00 	sb (r5+0),r0
  865e14:	34 01 00 01 	mvi r1,1
  865e18:	5c c1 ff 41 	bne r6,r1,865b1c <fatfs_list_files+0x1d4>
  865e1c:	34 10 00 01 	mvi r16,1
  865e20:	e3 ff ff 3f 	bi 865b1c <fatfs_list_files+0x1d4>
  865e24:	b8 e0 28 00 	mv r5,r7
  865e28:	e3 ff ff 33 	bi 865af4 <fatfs_list_files+0x1ac>
  865e2c:	34 05 00 04 	mvi r5,4
  865e30:	34 09 00 03 	mvi r9,3
  865e34:	34 08 00 02 	mvi r8,2
  865e38:	34 07 00 01 	mvi r7,1
  865e3c:	34 06 00 00 	mvi r6,0
  865e40:	e3 ff ff 1f 	bi 865abc <fatfs_list_files+0x174>
  865e44:	b9 00 28 00 	mv r5,r8
  865e48:	e3 ff ff 2b 	bi 865af4 <fatfs_list_files+0x1ac>
  865e4c:	34 05 00 05 	mvi r5,5
  865e50:	34 09 00 04 	mvi r9,4
  865e54:	34 08 00 03 	mvi r8,3
  865e58:	34 07 00 02 	mvi r7,2
  865e5c:	34 06 00 01 	mvi r6,1
  865e60:	e3 ff ff 17 	bi 865abc <fatfs_list_files+0x174>
  865e64:	b9 20 28 00 	mv r5,r9
  865e68:	e3 ff ff 23 	bi 865af4 <fatfs_list_files+0x1ac>
  865e6c:	34 05 00 06 	mvi r5,6
  865e70:	34 09 00 05 	mvi r9,5
  865e74:	34 08 00 04 	mvi r8,4
  865e78:	34 07 00 03 	mvi r7,3
  865e7c:	34 06 00 02 	mvi r6,2
  865e80:	e3 ff ff 0f 	bi 865abc <fatfs_list_files+0x174>
  865e84:	34 05 00 07 	mvi r5,7
  865e88:	34 09 00 06 	mvi r9,6
  865e8c:	34 08 00 05 	mvi r8,5
  865e90:	34 07 00 04 	mvi r7,4
  865e94:	34 06 00 03 	mvi r6,3
  865e98:	e3 ff ff 09 	bi 865abc <fatfs_list_files+0x174>
  865e9c:	34 05 00 08 	mvi r5,8
  865ea0:	34 09 00 07 	mvi r9,7
  865ea4:	34 08 00 06 	mvi r8,6
  865ea8:	34 07 00 05 	mvi r7,5
  865eac:	34 06 00 04 	mvi r6,4
  865eb0:	e3 ff ff 03 	bi 865abc <fatfs_list_files+0x174>
  865eb4:	34 05 00 09 	mvi r5,9
  865eb8:	34 09 00 08 	mvi r9,8
  865ebc:	34 08 00 07 	mvi r8,7
  865ec0:	34 07 00 06 	mvi r7,6
  865ec4:	34 06 00 05 	mvi r6,5
  865ec8:	e3 ff fe fd 	bi 865abc <fatfs_list_files+0x174>
  865ecc:	34 05 00 0a 	mvi r5,10
  865ed0:	34 09 00 09 	mvi r9,9
  865ed4:	34 08 00 08 	mvi r8,8
  865ed8:	34 07 00 07 	mvi r7,7
  865edc:	34 06 00 06 	mvi r6,6
  865ee0:	e3 ff fe f7 	bi 865abc <fatfs_list_files+0x174>
  865ee4:	34 05 00 0b 	mvi r5,11
  865ee8:	34 09 00 0a 	mvi r9,10
  865eec:	34 08 00 09 	mvi r8,9
  865ef0:	34 07 00 08 	mvi r7,8
  865ef4:	34 06 00 07 	mvi r6,7
  865ef8:	e3 ff fe f1 	bi 865abc <fatfs_list_files+0x174>
  865efc:	34 01 00 00 	mvi r1,0
  865f00:	e3 ff ff 0b 	bi 865b2c <fatfs_list_files+0x1e4>
  865f04:	2b 81 00 48 	lw r1,(sp+72)
  865f08:	ba 40 10 00 	mv r2,r18
  865f0c:	fb ff fd 8c 	calli 86553c <printf>
  865f10:	34 04 00 00 	mvi r4,0
  865f14:	e3 ff fe c7 	bi 865a30 <fatfs_list_files+0xe8>

00865f18 <fatfs_load>:
  865f18:	37 9c ff b0 	addi sp,sp,-80
  865f1c:	5b 8b 00 44 	sw (sp+68),r11
  865f20:	5b 8c 00 40 	sw (sp+64),r12
  865f24:	5b 8d 00 3c 	sw (sp+60),r13
  865f28:	5b 8e 00 38 	sw (sp+56),r14
  865f2c:	5b 8f 00 34 	sw (sp+52),r15
  865f30:	5b 90 00 30 	sw (sp+48),r16
  865f34:	5b 91 00 2c 	sw (sp+44),r17
  865f38:	5b 92 00 28 	sw (sp+40),r18
  865f3c:	5b 93 00 24 	sw (sp+36),r19
  865f40:	5b 94 00 20 	sw (sp+32),r20
  865f44:	5b 95 00 1c 	sw (sp+28),r21
  865f48:	5b 96 00 18 	sw (sp+24),r22
  865f4c:	5b 97 00 14 	sw (sp+20),r23
  865f50:	5b 98 00 10 	sw (sp+16),r24
  865f54:	5b 99 00 0c 	sw (sp+12),r25
  865f58:	5b 9b 00 08 	sw (sp+8),fp
  865f5c:	5b 9d 00 04 	sw (sp+4),ra
  865f60:	78 13 40 00 	mvhi r19,0x4000
  865f64:	b8 40 88 00 	mv r17,r2
  865f68:	3a 73 00 10 	ori r19,r19,0x10
  865f6c:	34 02 00 2e 	mvi r2,46
  865f70:	b8 20 80 00 	mv r16,r1
  865f74:	b8 60 78 00 	mv r15,r3
  865f78:	b8 80 a8 00 	mv r21,r4
  865f7c:	2a 79 00 00 	lw r25,(r19+0)
  865f80:	fb ff f9 a0 	calli 864600 <strrchr>
  865f84:	b8 20 58 00 	mv r11,r1
  865f88:	5c 20 00 19 	bne r1,r0,865fec <fatfs_load+0xd4>
  865f8c:	78 01 00 86 	mvhi r1,0x86
  865f90:	38 21 ee 1c 	ori r1,r1,0xee1c
  865f94:	ba 00 10 00 	mv r2,r16
  865f98:	fb ff fd 69 	calli 86553c <printf>
  865f9c:	34 01 00 00 	mvi r1,0
  865fa0:	2b 9d 00 04 	lw ra,(sp+4)
  865fa4:	2b 8b 00 44 	lw r11,(sp+68)
  865fa8:	2b 8c 00 40 	lw r12,(sp+64)
  865fac:	2b 8d 00 3c 	lw r13,(sp+60)
  865fb0:	2b 8e 00 38 	lw r14,(sp+56)
  865fb4:	2b 8f 00 34 	lw r15,(sp+52)
  865fb8:	2b 90 00 30 	lw r16,(sp+48)
  865fbc:	2b 91 00 2c 	lw r17,(sp+44)
  865fc0:	2b 92 00 28 	lw r18,(sp+40)
  865fc4:	2b 93 00 24 	lw r19,(sp+36)
  865fc8:	2b 94 00 20 	lw r20,(sp+32)
  865fcc:	2b 95 00 1c 	lw r21,(sp+28)
  865fd0:	2b 96 00 18 	lw r22,(sp+24)
  865fd4:	2b 97 00 14 	lw r23,(sp+20)
  865fd8:	2b 98 00 10 	lw r24,(sp+16)
  865fdc:	2b 99 00 0c 	lw r25,(sp+12)
  865fe0:	2b 9b 00 08 	lw fp,(sp+8)
  865fe4:	37 9c 00 50 	addi sp,sp,80
  865fe8:	c3 a0 00 00 	ret
  865fec:	37 94 00 48 	addi r20,sp,72
  865ff0:	34 02 00 20 	mvi r2,32
  865ff4:	34 03 00 08 	mvi r3,8
  865ff8:	ba 80 08 00 	mv r1,r20
  865ffc:	fb ff fa 0f 	calli 864838 <memset>
  866000:	37 81 00 50 	addi r1,sp,80
  866004:	34 02 00 20 	mvi r2,32
  866008:	34 03 00 03 	mvi r3,3
  86600c:	fb ff fa 0b 	calli 864838 <memset>
  866010:	52 0b 00 0e 	bgeu r16,r11,866048 <fatfs_load+0x130>
  866014:	ba 80 38 00 	mv r7,r20
  866018:	ba 00 30 00 	mv r6,r16
  86601c:	34 01 00 19 	mvi r1,25
  866020:	40 c5 00 00 	lbu r5,(r6+0)
  866024:	34 c6 00 01 	addi r6,r6,1
  866028:	34 a8 ff 9f 	addi r8,r5,-97
  86602c:	21 08 00 ff 	andi r8,r8,0xff
  866030:	34 a3 ff e0 	addi r3,r5,-32
  866034:	55 01 00 02 	bgu r8,r1,86603c <fatfs_load+0x124>
  866038:	20 65 00 ff 	andi r5,r3,0xff
  86603c:	30 e5 00 00 	sb (r7+0),r5
  866040:	34 e7 00 01 	addi r7,r7,1
  866044:	5c cb ff f7 	bne r6,r11,866020 <fatfs_load+0x108>
  866048:	11 65 00 01 	lb r5,(r11+1)
  86604c:	35 6b 00 01 	addi r11,r11,1
  866050:	44 a0 00 0e 	be r5,r0,866088 <fatfs_load+0x170>
  866054:	37 86 00 50 	addi r6,sp,80
  866058:	34 03 00 19 	mvi r3,25
  86605c:	20 a5 00 ff 	andi r5,r5,0xff
  866060:	34 a1 ff 9f 	addi r1,r5,-97
  866064:	20 21 00 ff 	andi r1,r1,0xff
  866068:	35 6b 00 01 	addi r11,r11,1
  86606c:	34 a2 ff e0 	addi r2,r5,-32
  866070:	54 23 00 02 	bgu r1,r3,866078 <fatfs_load+0x160>
  866074:	20 45 00 ff 	andi r5,r2,0xff
  866078:	30 c5 00 00 	sb (r6+0),r5
  86607c:	11 65 00 00 	lb r5,(r11+0)
  866080:	34 c6 00 01 	addi r6,r6,1
  866084:	5c a0 ff f6 	bne r5,r0,86605c <fatfs_load+0x144>
  866088:	78 0c 40 00 	mvhi r12,0x4000
  86608c:	39 8c 00 14 	ori r12,r12,0x14
  866090:	29 81 00 00 	lw r1,(r12+0)
  866094:	4c 01 ff be 	bge r0,r1,865f8c <fatfs_load+0x74>
  866098:	78 1b 40 00 	mvhi fp,0x4000
  86609c:	78 17 40 00 	mvhi r23,0x4000
  8660a0:	78 12 40 00 	mvhi r18,0x4000
  8660a4:	34 0d 00 00 	mvi r13,0
  8660a8:	3b 7b 00 18 	ori fp,fp,0x18
  8660ac:	3a f7 00 1c 	ori r23,r23,0x1c
  8660b0:	3a 52 00 20 	ori r18,r18,0x20
  8660b4:	34 18 00 e5 	mvi r24,229
  8660b8:	3d a1 00 05 	sli r1,r13,5
  8660bc:	2b 6b 00 00 	lw r11,(fp+0)
  8660c0:	00 21 00 09 	srui r1,r1,9
  8660c4:	2a e3 00 00 	lw r3,(r23+0)
  8660c8:	b4 2b 58 00 	add r11,r1,r11
  8660cc:	ba 40 10 00 	mv r2,r18
  8660d0:	b9 60 08 00 	mv r1,r11
  8660d4:	45 63 00 04 	be r11,r3,8660e4 <fatfs_load+0x1cc>
  8660d8:	f8 00 0b 6f 	calli 868e94 <bd_readblock>
  8660dc:	44 20 00 90 	be r1,r0,86631c <fatfs_load+0x404>
  8660e0:	5a eb 00 00 	sw (r23+0),r11
  8660e4:	21 b6 00 0f 	andi r22,r13,0xf
  8660e8:	3e d6 00 05 	sli r22,r22,5
  8660ec:	35 ad 00 01 	addi r13,r13,1
  8660f0:	b6 d2 58 00 	add r11,r22,r18
  8660f4:	41 64 00 00 	lbu r4,(r11+0)
  8660f8:	44 80 ff a5 	be r4,r0,865f8c <fatfs_load+0x74>
  8660fc:	41 65 00 0b 	lbu r5,(r11+11)
  866100:	20 a5 00 18 	andi r5,r5,0x18
  866104:	5c a0 00 0e 	bne r5,r0,86613c <fatfs_load+0x224>
  866108:	b9 60 10 00 	mv r2,r11
  86610c:	34 03 00 08 	mvi r3,8
  866110:	ba 80 08 00 	mv r1,r20
  866114:	44 98 00 0a 	be r4,r24,86613c <fatfs_load+0x224>
  866118:	fb ff f9 b5 	calli 8647ec <memcmp>
  86611c:	b8 20 70 00 	mv r14,r1
  866120:	36 c2 00 08 	addi r2,r22,8
  866124:	37 81 00 50 	addi r1,sp,80
  866128:	b6 42 10 00 	add r2,r18,r2
  86612c:	34 03 00 03 	mvi r3,3
  866130:	5d c0 00 03 	bne r14,r0,86613c <fatfs_load+0x224>
  866134:	fb ff f9 ae 	calli 8647ec <memcmp>
  866138:	44 2e 00 04 	be r1,r14,866148 <fatfs_load+0x230>
  86613c:	29 83 00 00 	lw r3,(r12+0)
  866140:	48 6d ff de 	bg r3,r13,8660b8 <fatfs_load+0x1a0>
  866144:	e3 ff ff 92 	bi 865f8c <fatfs_load+0x74>
  866148:	46 a1 00 15 	be r21,r1,86619c <fatfs_load+0x284>
  86614c:	41 61 00 1c 	lbu r1,(r11+28)
  866150:	41 63 00 1d 	lbu r3,(r11+29)
  866154:	41 62 00 1e 	lbu r2,(r11+30)
  866158:	3c 21 00 18 	sli r1,r1,24
  86615c:	3c 63 00 10 	sli r3,r3,16
  866160:	41 65 00 1f 	lbu r5,(r11+31)
  866164:	3c 42 00 08 	sli r2,r2,8
  866168:	b8 61 08 00 	or r1,r3,r1
  86616c:	b8 41 08 00 	or r1,r2,r1
  866170:	b8 a1 28 00 	or r5,r5,r1
  866174:	00 a4 00 18 	srui r4,r5,24
  866178:	3c a3 00 18 	sli r3,r5,24
  86617c:	20 a2 ff 00 	andi r2,r5,0xff00
  866180:	3c 42 00 08 	sli r2,r2,8
  866184:	00 a1 00 08 	srui r1,r5,8
  866188:	b8 83 18 00 	or r3,r4,r3
  86618c:	b8 62 10 00 	or r2,r3,r2
  866190:	20 21 ff 00 	andi r1,r1,0xff00
  866194:	b8 41 08 00 	or r1,r2,r1
  866198:	5a a1 00 00 	sw (r21+0),r1
  86619c:	15 e3 00 1f 	sri r3,r15,31
  8661a0:	41 61 00 1a 	lbu r1,(r11+26)
  8661a4:	00 63 00 17 	srui r3,r3,23
  8661a8:	41 62 00 1b 	lbu r2,(r11+27)
  8661ac:	b4 6f 78 00 	add r15,r3,r15
  8661b0:	3c 21 00 08 	sli r1,r1,8
  8661b4:	15 ef 00 09 	sri r15,r15,9
  8661b8:	3f 39 00 09 	sli r25,r25,9
  8661bc:	b8 41 08 00 	or r1,r2,r1
  8661c0:	4c 0f 00 54 	bge r0,r15,866310 <fatfs_load+0x3f8>
  8661c4:	3c 30 00 08 	sli r16,r1,8
  8661c8:	00 21 00 08 	srui r1,r1,8
  8661cc:	78 12 40 00 	mvhi r18,0x4000
  8661d0:	ba 01 80 00 	or r16,r16,r1
  8661d4:	78 14 40 00 	mvhi r20,0x4000
  8661d8:	78 16 40 00 	mvhi r22,0x4000
  8661dc:	78 15 40 00 	mvhi r21,0x4000
  8661e0:	78 17 40 00 	mvhi r23,0x4000
  8661e4:	22 10 ff ff 	andi r16,r16,0xffff
  8661e8:	34 18 00 00 	mvi r24,0
  8661ec:	3a 52 02 20 	ori r18,r18,0x220
  8661f0:	3a 94 02 24 	ori r20,r20,0x224
  8661f4:	3a d6 02 28 	ori r22,r22,0x228
  8661f8:	3a b5 02 2c 	ori r21,r21,0x22c
  8661fc:	3a f7 02 30 	ori r23,r23,0x230
  866200:	38 1b ff f7 	mvu fp,0xfff7
  866204:	2a 6c 00 00 	lw r12,(r19+0)
  866208:	36 03 ff fe 	addi r3,r16,-2
  86620c:	2a 4b 00 00 	lw r11,(r18+0)
  866210:	88 6c 18 00 	mul r3,r3,r12
  866214:	b9 e0 70 00 	mv r14,r15
  866218:	b4 6b 58 00 	add r11,r3,r11
  86621c:	4d 8f 00 02 	bge r12,r15,866224 <fatfs_load+0x30c>
  866220:	b9 80 70 00 	mv r14,r12
  866224:	4c 0e 00 0c 	bge r0,r14,866254 <fatfs_load+0x33c>
  866228:	ba 20 68 00 	mv r13,r17
  86622c:	34 0c 00 00 	mvi r12,0
  866230:	b9 60 08 00 	mv r1,r11
  866234:	b9 a0 10 00 	mv r2,r13
  866238:	f8 00 0b 17 	calli 868e94 <bd_readblock>
  86623c:	35 8c 00 01 	addi r12,r12,1
  866240:	44 20 00 22 	be r1,r0,8662c8 <fatfs_load+0x3b0>
  866244:	35 6b 00 01 	addi r11,r11,1
  866248:	35 ad 02 00 	addi r13,r13,512
  86624c:	49 cc ff f9 	bg r14,r12,866230 <fatfs_load+0x318>
  866250:	2a 6c 00 00 	lw r12,(r19+0)
  866254:	2a 81 00 00 	lw r1,(r20+0)
  866258:	4e 01 00 22 	bge r16,r1,8662e0 <fatfs_load+0x3c8>
  86625c:	2a cb 00 00 	lw r11,(r22+0)
  866260:	02 01 00 08 	srui r1,r16,8
  866264:	2a a2 00 00 	lw r2,(r21+0)
  866268:	b4 2b 58 00 	add r11,r1,r11
  86626c:	ba e0 68 00 	mv r13,r23
  866270:	45 62 00 07 	be r11,r2,86628c <fatfs_load+0x374>
  866274:	b9 60 08 00 	mv r1,r11
  866278:	ba e0 10 00 	mv r2,r23
  86627c:	ba e0 68 00 	mv r13,r23
  866280:	f8 00 0b 05 	calli 868e94 <bd_readblock>
  866284:	44 20 00 1d 	be r1,r0,8662f8 <fatfs_load+0x3e0>
  866288:	5a ab 00 00 	sw (r21+0),r11
  86628c:	22 10 00 ff 	andi r16,r16,0xff
  866290:	3e 10 00 01 	sli r16,r16,1
  866294:	37 18 00 01 	addi r24,r24,1
